00000                 | 
00000                 | #line 1 "D:/programowanie/20211226-P2-retromachine/Propeller/trackerPlayer.p2asm"
00000                 | ' 
00000                 | '   MAXIMUM_PERIOD          = 856
00000                 | con
00000                 | 	MAXIMUM_PERIOD = 856
00000                 | '   MINIMUM_PERIOD          = 113
00000                 | 	MINIMUM_PERIOD = 113
00000                 | '   VALUES_IN_PERIOD_TABLE  = MAXIMUM_PERIOD - MINIMUM_PERIOD + 1
00000                 | 	VALUES_IN_PERIOD_TABLE = 744
00000                 | '   MAXIMUM_VOLUME          = 64
00000                 | 	MAXIMUM_VOLUME = 64
00000                 | '   MINIMUM_VOLUME          = 0
00000                 | 	MINIMUM_VOLUME = 0
00000                 | '   BYTES_IN_PERIOD_TABLE   = 72
00000                 | 	BYTES_IN_PERIOD_TABLE = 72
00000                 | '   LAST_POS_IN_PERIOD_TBL  = 35
00000                 | 	LAST_POS_IN_PERIOD_TBL = 35
00000                 | '   VIBRATO_WAVEFORM_LENGTH = 64
00000                 | 	VIBRATO_WAVEFORM_LENGTH = 64
00000                 | '   VIBRATO_WAVEFORM_MASK   = VIBRATO_WAVEFORM_LENGTH - 1
00000                 | 	VIBRATO_WAVEFORM_MASK = 63
00000                 | '   PATTERN_LENGTH          = 64
00000                 | 	PATTERN_LENGTH = 64
00000                 | '   NR_CHANNELS             = 4
00000                 | 	NR_CHANNELS = 4
00000                 | '   LAST_CHANNEL            = NR_CHANNELS - 1
00000                 | 	LAST_CHANNEL = 3
00000                 | '   NR_SAMPLES              = 32
00000                 | 	NR_SAMPLES = 32
00000                 | '   LAST_SAMPLE_NUMBER      = NR_SAMPLES - 1
00000                 | 	LAST_SAMPLE_NUMBER = 31
00000                 | dat
00000 000 00 00 00 00 | 	nop
00004 001 01 EC 63 FD | 	cogid	pa
00008 002 02 00 00 FF 
0000c 003 04 EC E7 FC | 	coginit	pa,##$404
00010                 | 	orgh	$10
00010     00 00 00 00 | 	long	0	'reserved
00014     00 00 00 00 | 	long	0 ' clock frequency: will default to 20000000
00018     00 00 00 00 | 	long	0 ' clock mode: will default to $100094b
0001c     00 00 00 00 
      ...             
003f8     00 00 00 00 
003fc     00 00 00 00 | 	orgh	$400
00400     00 BC 05 06 |  _ret_	mov	result1, #0
00404 000             | 	org	0
00404 000             | entry
00404 000 00 F0 0F F2 | 	cmp	ptra, #0 wz
00408 001 0C 02 90 5D |  if_ne	jmp	#spininit
0040c 002 DC F0 03 F6 | 	mov	ptra, objptr
00410 003 F8 F1 07 F1 | 	add	ptra, #504
00414 004 14 EC 0F FB | 	rdlong	pa, #20 wz
00418 005 E8 01 90 5D |  if_ne	jmp	#skip_clock_set_
0041c 006 00 00 64 FD | 	hubset	#0
00420 007 04 80 80 FF 
00424 008 00 90 66 FD | 	hubset	##16779592
00428 009 86 01 80 FF 
0042c 00a 1F 80 66 FD | 	waitx	##200000
00430 00b 04 80 00 FF 
00434 00c 4B ED 07 F6 | 	mov	pa, ##16779595
00438 00d 00 EC 63 FD | 	hubset	pa
0043c 00e 18 EC 67 FC | 	wrlong	pa, #24
00440 00f 96 98 80 FF 
00444 010 14 00 6E FC | 	wrlong	##20000000, #20
00448 011 B8 01 90 FD | 	jmp	#skip_clock_set_
0044c 012 00 00 00 00 
      ...             
005fc 07e 00 00 00 00 
00600 07f 00 00 00 00 | 	orgf	128
00604 080             | skip_clock_set_
00604 080 80 07 A0 FD | 	call	#_init
00608 081             | cogexit
00608 081 38 01 80 FF 
0060c 082 1F 00 66 FD | 	waitx	##160000
00610 083 01 C2 61 FD | 	cogid	arg01
00614 084 03 C2 61 FD | 	cogstop	arg01
00618 085             | spininit
00618 085 00 B9 05 FB | 	rdlong	objptr, ptra
0061c 086 04 F0 07 F1 | 	add	ptra, #4
00620 087 00 BD 05 FB | 	rdlong	result1, ptra
00624 088 04 F0 07 F1 | 	add	ptra, #4
00628 089 00 C3 05 FB | 	rdlong	arg01, ptra
0062c 08a 04 F0 07 F1 | 	add	ptra, #4
00630 08b 00 C5 05 FB | 	rdlong	arg02, ptra
00634 08c 04 F0 07 F1 | 	add	ptra, #4
00638 08d 00 C7 05 FB | 	rdlong	arg03, ptra
0063c 08e 04 F0 07 F1 | 	add	ptra, #4
00640 08f 00 C9 05 FB | 	rdlong	arg04, ptra
00644 090 10 F0 87 F1 | 	sub	ptra, #16
00648 091 2D BC 61 FD | 	call	result1
0064c 092 B8 FF 9F FD | 	jmp	#cogexit
00650 093             | FCACHE_LOAD_
00650 093 2B 3E 61 FD |     pop	fcache_tmpb_
00654 094 F6 3F 01 F1 |     add	fcache_tmpb_, pa
00658 095 2A 3E 61 FD |     push	fcache_tmpb_
0065c 096 F6 3F 81 F1 |     sub	fcache_tmpb_, pa
00660 097 02 EC 47 F0 |     shr	pa, #2
00664 098 00 EC 8F F9 |     altd	pa
00668 099 9E 00 00 F6 |     mov	 0-0, ret_instr_
0066c 09a 01 EC 87 F1 |     sub	pa, #1
00670 09b 28 EC 63 FD |     setq	pa
00674 09c 9F 00 00 FB |     rdlong	$0, fcache_tmpb_
00678 09d 00 00 80 FD |     jmp	#\$0 ' jmp to cache
0067c 09e             | ret_instr_
0067c 09e 2D 00 64 FD |     ret
00680 09f             | fcache_tmpb_
00680 09f 00 00 00 00 |     long 0
00684 0a0             | builtin_bytefill_
00684 0a0 01 C6 55 F0 |         shr	arg03, #1 wc
00688 0a1 E1 C4 41 CC |  if_c   wrbyte	arg02, arg01
0068c 0a2 01 C2 05 C1 |  if_c   add	arg01, #1
00690 0a3 00 C4 FD F9 |         movbyts	arg02, #0
00694 0a4             | builtin_wordfill_
00694 0a4 01 C6 55 F0 |         shr	arg03, #1 wc
00698 0a5 E1 C4 51 CC |  if_c   wrword	arg02, arg01
0069c 0a6 02 C2 05 C1 |  if_c   add	arg01, #2
006a0 0a7 E2 C4 29 F9 |         setword	arg02, arg02, #1
006a4 0a8             | builtin_longfill_
006a4 0a8 E1 00 88 FC |         wrfast	#0,arg01
006a8 0a9 00 C6 0D F2 |         cmp	arg03, #0 wz
006ac 0aa E3 02 D8 5C |  if_nz  rep	#1, arg03
006b0 0ab 17 C4 61 5D |  if_nz  wflong	arg02
006b4 0ac 2D 00 64 FD |         ret
006b8 0ad             | COUNT_
006b8 0ad 00 00 00 00 |     long 0
006bc 0ae             | RETADDR_
006bc 0ae 00 00 00 00 |     long 0
006c0 0af             | fp
006c0 0af 00 00 00 00 |     long 0
006c4 0b0             | pushregs_
006c4 0b0 2B EC 63 FD |     pop  pa
006c8 0b1 2B 5C 61 FD |     pop  RETADDR_
006cc 0b2 04 5A 95 FB |     tjz  COUNT_, #pushregs_done_
006d0 0b3 01 5A 85 F1 |     sub  COUNT_, #1
006d4 0b4 28 5A 61 FD |     setq COUNT_
006d8 0b5 00 CD 65 FC |     wrlong local01, ptra
006dc 0b6 01 5A 05 F1 |     add  COUNT_, #1
006e0 0b7             | pushregs_done_
006e0 0b7 02 5A 65 F0 |     shl  COUNT_, #2
006e4 0b8 AD F0 03 F1 |     add  ptra, COUNT_
006e8 0b9 02 5A 45 F0 |     shr  COUNT_, #2
006ec 0ba 28 04 64 FD |     setq #2 ' push 3 registers starting at COUNT_
006f0 0bb 00 5B 65 FC |     wrlong COUNT_, ptra
006f4 0bc 0C F0 07 F1 |     add    ptra, #12
006f8 0bd F8 5F 01 F6 |     mov    fp, ptra
006fc 0be 2C EC 63 FD |     jmp  pa
00700 0bf             |  popregs_
00700 0bf 2B EC 63 FD |     pop    pa
00704 0c0 0C F0 87 F1 |     sub    ptra, #12
00708 0c1 28 04 64 FD |     setq   #2
0070c 0c2 00 5B 05 FB |     rdlong COUNT_, ptra
00710 0c3 06 5A 95 FB |     tjz    COUNT_, #popregs__ret
00714 0c4 02 5A 65 F0 |     shl    COUNT_, #2
00718 0c5 AD F0 83 F1 |     sub    ptra, COUNT_
0071c 0c6 02 5A 45 F0 |     shr    COUNT_, #2
00720 0c7 01 5A 85 F1 |     sub    COUNT_, #1
00724 0c8 28 5A 61 FD |     setq   COUNT_
00728 0c9 00 CD 05 FB |     rdlong local01, ptra
0072c 0ca             | popregs__ret
0072c 0ca 2A 5C 61 FD |     push   RETADDR_
00730 0cb 2C EC 63 FD |     jmp    pa
00734 0cc             | 
00734 0cc             | unsdivide_
00734 0cc 28 00 64 FD |        setq    #0
00738 0cd F0 DE 11 FD |        qdiv    muldiva_, muldivb_
0073c 0ce 18 E0 61 FD |        getqx   muldivb_
00740 0cf 19 DE 61 0D |  _ret_ getqy   muldiva_
00744 0d0             | 
00744 0d0             | divide_
00744 0d0 EF DE 51 F6 |        abs     muldiva_,muldiva_     wc       'abs(x)
00748 0d1 03 B6 85 F5 |        muxc    itmp2_,#%11                    'store sign of x
0074c 0d2 F0 E0 59 F6 |        abs     muldivb_,muldivb_     wcz      'abs(y)
00750 0d3 02 B6 65 C5 |  if_c  xor     itmp2_,#%10                    'store sign of y
00754 0d4 2D 00 64 AD |  if_z  ret
00758 0d5 D8 FF BF FD |        call    #unsdivide_
0075c 0d6 01 B6 D5 F7 |        test    itmp2_,#1        wc       'restore sign, remainder
00760 0d7 EF DE 81 F6 |        negc    muldiva_,muldiva_ 
00764 0d8 02 B6 D5 F7 |        test    itmp2_,#%10      wc       'restore sign, division result
00768 0d9 F0 E0 81 06 |  _ret_ negc    muldivb_,muldivb_
0076c 0da             | 
0076c 0da             | itmp1_
0076c 0da 00 00 00 00 | 	long	0
00770 0db             | itmp2_
00770 0db 00 00 00 00 | 	long	0
00774 0dc             | objptr
00774 0dc E0 19 00 00 | 	long	@objmem
00778 0dd             | ptr__dat__
00778 0dd B4 08 00 00 | 	long	@_dat_
0077c 0de             | result1
0077c 0de 00 00 00 00 | 	long	0
00780 0df             | COG_BSS_START
00780 0df             | 	fit	480
00780                 | 	orgh
00780                 | hubentry
00780                 | 
00780                 | _init
00780     09 5A 05 F6 | 	mov	COUNT_, #9
00784     B0 00 A0 FD | 	call	#pushregs_
00788     E1 CC 01 F6 | 	mov	local01, arg01
0078c     E2 CE 01 F6 | 	mov	local02, arg02
00790     E3 D0 09 F6 | 	mov	local03, arg03 wz
00794     E4 D2 01 F6 | 	mov	local04, arg04
00798     E5 D4 01 F6 | 	mov	local05, arg05
0079c                 | ' 
0079c                 | '   systemClock := sysClock
0079c     DC CC 61 FC | 	wrlong	local01, objptr
007a0                 | '   mainVolume  := mVolume
007a0     04 B8 05 F1 | 	add	objptr, #4
007a4     DC D4 51 FC | 	wrword	local05, objptr
007a8     04 B8 85 F1 | 	sub	objptr, #4
007ac                 | ' 
007ac                 | '   if reSoundHqMode
007ac     20 00 90 AD |  if_e	jmp	#LR__0001
007b0     DC DE 01 FB | 	rdlong	muldiva_, objptr
007b4     E7 E0 01 F6 | 	mov	muldivb_, local02
007b8     D0 00 A0 FD | 	call	#divide_
007bc     7F 00 00 FF 
007c0     00 E1 05 F5 | 	and	muldivb_, ##65280
007c4     DC DE 01 FB | 	rdlong	muldiva_, objptr
007c8     D0 00 A0 FD | 	call	#divide_
007cc                 | '     mixingFrequency := systemClock / ((systemClock / mixingFrequency) & $FF00)
007cc     F0 CE 01 F6 | 	mov	local02, muldivb_
007d0                 | LR__0001
007d0     04 BA 05 F1 | 	add	ptr__dat__, #4
007d4     DD D6 01 F6 | 	mov	local06, ptr__dat__
007d8     71 D8 05 F6 | 	mov	local07, #113
007dc     04 BA 85 F1 | 	sub	ptr__dat__, #4
007e0                 | LR__0002
007e0                 | '     frequencyLut[i - MINIMUM_PERIOD] := calculateAccumulatorFrequency(mixingFrequency, i)
007e0     E7 C2 01 F6 | 	mov	arg01, local02
007e4     EC C4 01 F6 | 	mov	arg02, local07
007e8     8C 00 B0 FD | 	call	#_calculateAccumulatorFrequency
007ec     EB BC 61 FC | 	wrlong	result1, local06
007f0     01 D8 05 F1 | 	add	local07, #1
007f4     04 D6 05 F1 | 	add	local06, #4
007f8     01 00 00 FF 
007fc     59 D9 5D F2 | 	cmps	local07, ##857 wcz
00800     DC FF 9F CD |  if_b	jmp	#LR__0002
00804                 | ' 
00804                 | '   panningLut[0]  :=   stereoSeparation
00804     05 00 00 FF 
00808     A4 BB 05 F1 | 	add	ptr__dat__, ##2980
0080c     DD D2 51 FC | 	wrword	local04, ptr__dat__
00810     E9 DA 01 F6 | 	mov	local08, local04
00814     01 DA 05 F1 | 	add	local08, #1
00818                 | '   panningLut[1]  := -(stereoSeparation + 1)
00818     ED DC 01 F6 | 	mov	local09, local08
0081c     EE DC 61 F6 | 	neg	local09, local09
00820     02 BA 05 F1 | 	add	ptr__dat__, #2
00824     DD DC 51 FC | 	wrword	local09, ptr__dat__
00828                 | '   panningLut[2]  := -(stereoSeparation + 1)
00828     ED DA 61 F6 | 	neg	local08, local08
0082c     02 BA 05 F1 | 	add	ptr__dat__, #2
00830     DD DA 51 FC | 	wrword	local08, ptr__dat__
00834                 | '   panningLut[3]  :=   stereoSeparation
00834     02 BA 05 F1 | 	add	ptr__dat__, #2
00838     DD D2 51 FC | 	wrword	local04, ptr__dat__
0083c     05 00 00 FF 
00840     AA BB 85 F1 | 	sub	ptr__dat__, ##2986
00844                 | ' 
00844                 | '   ticksPerMinute := 50 * 60
00844     A7 B9 05 F1 | 	add	objptr, #423
00848     05 00 80 FF 
0084c     DC 70 6B FC | 	wrlong	##3000, objptr
00850     A7 B9 85 F1 | 	sub	objptr, #423
00854     DC DE 01 FB | 	rdlong	muldiva_, objptr
00858     32 E0 05 F6 | 	mov	muldivb_, #50
0085c     D0 00 A0 FD | 	call	#divide_
00860                 | '   cyclesToWait   := systemClock / 50
00860     AB B9 05 F1 | 	add	objptr, #427
00864     DC E0 61 FC | 	wrlong	muldivb_, objptr
00868     AB B9 85 F1 | 	sub	objptr, #427
0086c     AF F0 03 F6 | 	mov	ptra, fp
00870     BF 00 A0 FD | 	call	#popregs_
00874                 | _init_ret
00874     2D 00 64 FD | 	ret
00878                 | 
00878                 | ' 
00878                 | ' 
00878                 | ' PRI calculateAccumulatorFrequency(mixingFrequency, amigaPeriod) : r | upper, lower
00878                 | _calculateAccumulatorFrequency
00878                 | ' 
00878                 | '   'R = (65536 * 3546894) / amigaPeriod / mixingFrequency
00878                 | '   org
00878     AC F7 9F FE | 	loc	pa,	#(@LR__0004-@LR__0003)
0087c     93 00 A0 FD | 	call	#FCACHE_LOAD_
00880                 | LR__0003
00880 000             | 	org	0
00880 000 80 00 80 FF 
00884 001 0F 1B 00 FF 
00888 002 0E 01 0C FD | 	qmul	##65536, ##3546894
0088c 003 18 BE 61 FD | 	getqx	_var01
00890 004 19 C0 61 FD | 	getqy	_var02
00894 005 28 C0 61 FD | 	setq	_var02
00898 006 E2 BE 11 FD | 	qdiv	_var01, arg02
0089c 007 18 BE 61 FD | 	getqx	_var01
008a0 008 E1 BE 11 FD | 	qdiv	_var01, arg01
008a4 009 18 BE 61 FD | 	getqx	_var01
008a8 00a             | LR__0004
008a8                 | 	orgh
008a8                 | ' 
008a8                 | '   return lower
008a8     DF BC 01 F6 | 	mov	result1, _var01
008ac                 | _calculateAccumulatorFrequency_ret
008ac     2D 00 64 FD | 	ret
008b0                 | hubexit
008b0     81 00 80 FD | 	jmp	#cogexit
008b4                 | 	alignl
008b4                 | _dat_
008b4                 | 
008b4     00 00 00 00 | null             long  0
008b8     46 52 45 51 
008bc     46 52 45 51 
008c0     46 52 45 51 
008c4     46 52 45 51 | frequencyLut     long  $51_45_52_46[VALUES_IN_PERIOD_TABLE] ' This table is runtime calculated to match any possible sys clock and mixing frequency combination [1024]
008c8     46 52 45 51 
008cc     46 52 45 51 
008d0     46 52 45 51 
008d4     46 52 45 51 | 	byte	$46, $52, $45, $51, $46, $52, $45, $51, $46, $52, $45, $51, $46, $52, $45, $51
008d8     46 52 45 51 
008dc     46 52 45 51 
008e0     46 52 45 51 
008e4     46 52 45 51 | 	byte	$46, $52, $45, $51, $46, $52, $45, $51, $46, $52, $45, $51, $46, $52, $45, $51
008e8     46 52 45 51 
008ec     46 52 45 51 
008f0     46 52 45 51 
008f4     46 52 45 51 | 	byte	$46, $52, $45, $51, $46, $52, $45, $51, $46, $52, $45, $51, $46, $52, $45, $51
008f8     46 52 45 51 
008fc     46 52 45 51 
00900     46 52 45 51 
00904     46 52 45 51 | 	byte	$46, $52, $45, $51, $46, $52, $45, $51, $46, $52, $45, $51, $46, $52, $45, $51
00908     46 52 45 51 
0090c     46 52 45 51 
00910     46 52 45 51 
00914     46 52 45 51 | 	byte	$46, $52, $45, $51, $46, $52, $45, $51, $46, $52, $45, $51, $46, $52, $45, $51
00918     46 52 45 51 
0091c     46 52 45 51 
00920     46 52 45 51 
00924     46 52 45 51 | 	byte	$46, $52, $45, $51, $46, $52, $45, $51, $46, $52, $45, $51, $46, $52, $45, $51
00928     46 52 45 51 
0092c     46 52 45 51 
00930     46 52 45 51 
00934     46 52 45 51 | 	byte	$46, $52, $45, $51, $46, $52, $45, $51, $46, $52, $45, $51, $46, $52, $45, $51
00938     46 52 45 51 
0093c     46 52 45 51 
00940     46 52 45 51 
00944     46 52 45 51 | 	byte	$46, $52, $45, $51, $46, $52, $45, $51, $46, $52, $45, $51, $46, $52, $45, $51
00948     46 52 45 51 
0094c     46 52 45 51 
00950     46 52 45 51 
00954     46 52 45 51 | 	byte	$46, $52, $45, $51, $46, $52, $45, $51, $46, $52, $45, $51, $46, $52, $45, $51
00958     46 52 45 51 
0095c     46 52 45 51 
00960     46 52 45 51 
00964     46 52 45 51 | 	byte	$46, $52, $45, $51, $46, $52, $45, $51, $46, $52, $45, $51, $46, $52, $45, $51
00968     46 52 45 51 
0096c     46 52 45 51 
00970     46 52 45 51 
00974     46 52 45 51 | 	byte	$46, $52, $45, $51, $46, $52, $45, $51, $46, $52, $45, $51, $46, $52, $45, $51
00978     46 52 45 51 
0097c     46 52 45 51 
00980     46 52 45 51 
00984     46 52 45 51 | 	byte	$46, $52, $45, $51, $46, $52, $45, $51, $46, $52, $45, $51, $46, $52, $45, $51
00988     46 52 45 51 
0098c     46 52 45 51 
00990     46 52 45 51 
00994     46 52 45 51 | 	byte	$46, $52, $45, $51, $46, $52, $45, $51, $46, $52, $45, $51, $46, $52, $45, $51
00998     46 52 45 51 
0099c     46 52 45 51 
009a0     46 52 45 51 
009a4     46 52 45 51 | 	byte	$46, $52, $45, $51, $46, $52, $45, $51, $46, $52, $45, $51, $46, $52, $45, $51
009a8     46 52 45 51 
009ac     46 52 45 51 
009b0     46 52 45 51 
009b4     46 52 45 51 | 	byte	$46, $52, $45, $51, $46, $52, $45, $51, $46, $52, $45, $51, $46, $52, $45, $51
009b8     46 52 45 51 
009bc     46 52 45 51 
009c0     46 52 45 51 
009c4     46 52 45 51 | 	byte	$46, $52, $45, $51, $46, $52, $45, $51, $46, $52, $45, $51, $46, $52, $45, $51
009c8     46 52 45 51 
009cc     46 52 45 51 
009d0     46 52 45 51 
009d4     46 52 45 51 | 	byte	$46, $52, $45, $51, $46, $52, $45, $51, $46, $52, $45, $51, $46, $52, $45, $51
009d8     46 52 45 51 
009dc     46 52 45 51 
009e0     46 52 45 51 
009e4     46 52 45 51 | 	byte	$46, $52, $45, $51, $46, $52, $45, $51, $46, $52, $45, $51, $46, $52, $45, $51
009e8     46 52 45 51 
009ec     46 52 45 51 
009f0     46 52 45 51 
009f4     46 52 45 51 | 	byte	$46, $52, $45, $51, $46, $52, $45, $51, $46, $52, $45, $51, $46, $52, $45, $51
009f8     46 52 45 51 
009fc     46 52 45 51 
00a00     46 52 45 51 
00a04     46 52 45 51 | 	byte	$46, $52, $45, $51, $46, $52, $45, $51, $46, $52, $45, $51, $46, $52, $45, $51
00a08     46 52 45 51 
00a0c     46 52 45 51 
00a10     46 52 45 51 
00a14     46 52 45 51 | 	byte	$46, $52, $45, $51, $46, $52, $45, $51, $46, $52, $45, $51, $46, $52, $45, $51
00a18     46 52 45 51 
00a1c     46 52 45 51 
00a20     46 52 45 51 
00a24     46 52 45 51 | 	byte	$46, $52, $45, $51, $46, $52, $45, $51, $46, $52, $45, $51, $46, $52, $45, $51
00a28     46 52 45 51 
00a2c     46 52 45 51 
00a30     46 52 45 51 
00a34     46 52 45 51 | 	byte	$46, $52, $45, $51, $46, $52, $45, $51, $46, $52, $45, $51, $46, $52, $45, $51
00a38     46 52 45 51 
00a3c     46 52 45 51 
00a40     46 52 45 51 
00a44     46 52 45 51 | 	byte	$46, $52, $45, $51, $46, $52, $45, $51, $46, $52, $45, $51, $46, $52, $45, $51
00a48     46 52 45 51 
00a4c     46 52 45 51 
00a50     46 52 45 51 
00a54     46 52 45 51 | 	byte	$46, $52, $45, $51, $46, $52, $45, $51, $46, $52, $45, $51, $46, $52, $45, $51
00a58     46 52 45 51 
00a5c     46 52 45 51 
00a60     46 52 45 51 
00a64     46 52 45 51 | 	byte	$46, $52, $45, $51, $46, $52, $45, $51, $46, $52, $45, $51, $46, $52, $45, $51
00a68     46 52 45 51 
00a6c     46 52 45 51 
00a70     46 52 45 51 
00a74     46 52 45 51 | 	byte	$46, $52, $45, $51, $46, $52, $45, $51, $46, $52, $45, $51, $46, $52, $45, $51
00a78     46 52 45 51 
00a7c     46 52 45 51 
00a80     46 52 45 51 
00a84     46 52 45 51 | 	byte	$46, $52, $45, $51, $46, $52, $45, $51, $46, $52, $45, $51, $46, $52, $45, $51
00a88     46 52 45 51 
00a8c     46 52 45 51 
00a90     46 52 45 51 
00a94     46 52 45 51 | 	byte	$46, $52, $45, $51, $46, $52, $45, $51, $46, $52, $45, $51, $46, $52, $45, $51
00a98     46 52 45 51 
00a9c     46 52 45 51 
00aa0     46 52 45 51 
00aa4     46 52 45 51 | 	byte	$46, $52, $45, $51, $46, $52, $45, $51, $46, $52, $45, $51, $46, $52, $45, $51
00aa8     46 52 45 51 
00aac     46 52 45 51 
00ab0     46 52 45 51 
00ab4     46 52 45 51 | 	byte	$46, $52, $45, $51, $46, $52, $45, $51, $46, $52, $45, $51, $46, $52, $45, $51
00ab8     46 52 45 51 
00abc     46 52 45 51 
00ac0     46 52 45 51 
00ac4     46 52 45 51 | 	byte	$46, $52, $45, $51, $46, $52, $45, $51, $46, $52, $45, $51, $46, $52, $45, $51
00ac8     46 52 45 51 
00acc     46 52 45 51 
00ad0     46 52 45 51 
00ad4     46 52 45 51 | 	byte	$46, $52, $45, $51, $46, $52, $45, $51, $46, $52, $45, $51, $46, $52, $45, $51
00ad8     46 52 45 51 
00adc     46 52 45 51 
00ae0     46 52 45 51 
00ae4     46 52 45 51 | 	byte	$46, $52, $45, $51, $46, $52, $45, $51, $46, $52, $45, $51, $46, $52, $45, $51
00ae8     46 52 45 51 
00aec     46 52 45 51 
00af0     46 52 45 51 
00af4     46 52 45 51 | 	byte	$46, $52, $45, $51, $46, $52, $45, $51, $46, $52, $45, $51, $46, $52, $45, $51
00af8     46 52 45 51 
00afc     46 52 45 51 
00b00     46 52 45 51 
00b04     46 52 45 51 | 	byte	$46, $52, $45, $51, $46, $52, $45, $51, $46, $52, $45, $51, $46, $52, $45, $51
00b08     46 52 45 51 
00b0c     46 52 45 51 
00b10     46 52 45 51 
00b14     46 52 45 51 | 	byte	$46, $52, $45, $51, $46, $52, $45, $51, $46, $52, $45, $51, $46, $52, $45, $51
00b18     46 52 45 51 
00b1c     46 52 45 51 
00b20     46 52 45 51 
00b24     46 52 45 51 | 	byte	$46, $52, $45, $51, $46, $52, $45, $51, $46, $52, $45, $51, $46, $52, $45, $51
00b28     46 52 45 51 
00b2c     46 52 45 51 
00b30     46 52 45 51 
00b34     46 52 45 51 | 	byte	$46, $52, $45, $51, $46, $52, $45, $51, $46, $52, $45, $51, $46, $52, $45, $51
00b38     46 52 45 51 
00b3c     46 52 45 51 
00b40     46 52 45 51 
00b44     46 52 45 51 | 	byte	$46, $52, $45, $51, $46, $52, $45, $51, $46, $52, $45, $51, $46, $52, $45, $51
00b48     46 52 45 51 
00b4c     46 52 45 51 
00b50     46 52 45 51 
00b54     46 52 45 51 | 	byte	$46, $52, $45, $51, $46, $52, $45, $51, $46, $52, $45, $51, $46, $52, $45, $51
00b58     46 52 45 51 
00b5c     46 52 45 51 
00b60     46 52 45 51 
00b64     46 52 45 51 | 	byte	$46, $52, $45, $51, $46, $52, $45, $51, $46, $52, $45, $51, $46, $52, $45, $51
00b68     46 52 45 51 
00b6c     46 52 45 51 
00b70     46 52 45 51 
00b74     46 52 45 51 | 	byte	$46, $52, $45, $51, $46, $52, $45, $51, $46, $52, $45, $51, $46, $52, $45, $51
00b78     46 52 45 51 
00b7c     46 52 45 51 
00b80     46 52 45 51 
00b84     46 52 45 51 | 	byte	$46, $52, $45, $51, $46, $52, $45, $51, $46, $52, $45, $51, $46, $52, $45, $51
00b88     46 52 45 51 
00b8c     46 52 45 51 
00b90     46 52 45 51 
00b94     46 52 45 51 | 	byte	$46, $52, $45, $51, $46, $52, $45, $51, $46, $52, $45, $51, $46, $52, $45, $51
00b98     46 52 45 51 
00b9c     46 52 45 51 
00ba0     46 52 45 51 
00ba4     46 52 45 51 | 	byte	$46, $52, $45, $51, $46, $52, $45, $51, $46, $52, $45, $51, $46, $52, $45, $51
00ba8     46 52 45 51 
00bac     46 52 45 51 
00bb0     46 52 45 51 
00bb4     46 52 45 51 | 	byte	$46, $52, $45, $51, $46, $52, $45, $51, $46, $52, $45, $51, $46, $52, $45, $51
00bb8     46 52 45 51 
00bbc     46 52 45 51 
00bc0     46 52 45 51 
00bc4     46 52 45 51 | 	byte	$46, $52, $45, $51, $46, $52, $45, $51, $46, $52, $45, $51, $46, $52, $45, $51
00bc8     46 52 45 51 
00bcc     46 52 45 51 
00bd0     46 52 45 51 
00bd4     46 52 45 51 | 	byte	$46, $52, $45, $51, $46, $52, $45, $51, $46, $52, $45, $51, $46, $52, $45, $51
00bd8     46 52 45 51 
00bdc     46 52 45 51 
00be0     46 52 45 51 
00be4     46 52 45 51 | 	byte	$46, $52, $45, $51, $46, $52, $45, $51, $46, $52, $45, $51, $46, $52, $45, $51
00be8     46 52 45 51 
00bec     46 52 45 51 
00bf0     46 52 45 51 
00bf4     46 52 45 51 | 	byte	$46, $52, $45, $51, $46, $52, $45, $51, $46, $52, $45, $51, $46, $52, $45, $51
00bf8     46 52 45 51 
00bfc     46 52 45 51 
00c00     46 52 45 51 
00c04     46 52 45 51 | 	byte	$46, $52, $45, $51, $46, $52, $45, $51, $46, $52, $45, $51, $46, $52, $45, $51
00c08     46 52 45 51 
00c0c     46 52 45 51 
00c10     46 52 45 51 
00c14     46 52 45 51 | 	byte	$46, $52, $45, $51, $46, $52, $45, $51, $46, $52, $45, $51, $46, $52, $45, $51
00c18     46 52 45 51 
00c1c     46 52 45 51 
00c20     46 52 45 51 
00c24     46 52 45 51 | 	byte	$46, $52, $45, $51, $46, $52, $45, $51, $46, $52, $45, $51, $46, $52, $45, $51
00c28     46 52 45 51 
00c2c     46 52 45 51 
00c30     46 52 45 51 
00c34     46 52 45 51 | 	byte	$46, $52, $45, $51, $46, $52, $45, $51, $46, $52, $45, $51, $46, $52, $45, $51
00c38     46 52 45 51 
00c3c     46 52 45 51 
00c40     46 52 45 51 
00c44     46 52 45 51 | 	byte	$46, $52, $45, $51, $46, $52, $45, $51, $46, $52, $45, $51, $46, $52, $45, $51
00c48     46 52 45 51 
00c4c     46 52 45 51 
00c50     46 52 45 51 
00c54     46 52 45 51 | 	byte	$46, $52, $45, $51, $46, $52, $45, $51, $46, $52, $45, $51, $46, $52, $45, $51
00c58     46 52 45 51 
00c5c     46 52 45 51 
00c60     46 52 45 51 
00c64     46 52 45 51 | 	byte	$46, $52, $45, $51, $46, $52, $45, $51, $46, $52, $45, $51, $46, $52, $45, $51
00c68     46 52 45 51 
00c6c     46 52 45 51 
00c70     46 52 45 51 
00c74     46 52 45 51 | 	byte	$46, $52, $45, $51, $46, $52, $45, $51, $46, $52, $45, $51, $46, $52, $45, $51
00c78     46 52 45 51 
00c7c     46 52 45 51 
00c80     46 52 45 51 
00c84     46 52 45 51 | 	byte	$46, $52, $45, $51, $46, $52, $45, $51, $46, $52, $45, $51, $46, $52, $45, $51
00c88     46 52 45 51 
00c8c     46 52 45 51 
00c90     46 52 45 51 
00c94     46 52 45 51 | 	byte	$46, $52, $45, $51, $46, $52, $45, $51, $46, $52, $45, $51, $46, $52, $45, $51
00c98     46 52 45 51 
00c9c     46 52 45 51 
00ca0     46 52 45 51 
00ca4     46 52 45 51 | 	byte	$46, $52, $45, $51, $46, $52, $45, $51, $46, $52, $45, $51, $46, $52, $45, $51
00ca8     46 52 45 51 
00cac     46 52 45 51 
00cb0     46 52 45 51 
00cb4     46 52 45 51 | 	byte	$46, $52, $45, $51, $46, $52, $45, $51, $46, $52, $45, $51, $46, $52, $45, $51
00cb8     46 52 45 51 
00cbc     46 52 45 51 
00cc0     46 52 45 51 
00cc4     46 52 45 51 | 	byte	$46, $52, $45, $51, $46, $52, $45, $51, $46, $52, $45, $51, $46, $52, $45, $51
00cc8     46 52 45 51 
00ccc     46 52 45 51 
00cd0     46 52 45 51 
00cd4     46 52 45 51 | 	byte	$46, $52, $45, $51, $46, $52, $45, $51, $46, $52, $45, $51, $46, $52, $45, $51
00cd8     46 52 45 51 
00cdc     46 52 45 51 
00ce0     46 52 45 51 
00ce4     46 52 45 51 | 	byte	$46, $52, $45, $51, $46, $52, $45, $51, $46, $52, $45, $51, $46, $52, $45, $51
00ce8     46 52 45 51 
00cec     46 52 45 51 
00cf0     46 52 45 51 
00cf4     46 52 45 51 | 	byte	$46, $52, $45, $51, $46, $52, $45, $51, $46, $52, $45, $51, $46, $52, $45, $51
00cf8     46 52 45 51 
00cfc     46 52 45 51 
00d00     46 52 45 51 
00d04     46 52 45 51 | 	byte	$46, $52, $45, $51, $46, $52, $45, $51, $46, $52, $45, $51, $46, $52, $45, $51
00d08     46 52 45 51 
00d0c     46 52 45 51 
00d10     46 52 45 51 
00d14     46 52 45 51 | 	byte	$46, $52, $45, $51, $46, $52, $45, $51, $46, $52, $45, $51, $46, $52, $45, $51
00d18     46 52 45 51 
00d1c     46 52 45 51 
00d20     46 52 45 51 
00d24     46 52 45 51 | 	byte	$46, $52, $45, $51, $46, $52, $45, $51, $46, $52, $45, $51, $46, $52, $45, $51
00d28     46 52 45 51 
00d2c     46 52 45 51 
00d30     46 52 45 51 
00d34     46 52 45 51 | 	byte	$46, $52, $45, $51, $46, $52, $45, $51, $46, $52, $45, $51, $46, $52, $45, $51
00d38     46 52 45 51 
00d3c     46 52 45 51 
00d40     46 52 45 51 
00d44     46 52 45 51 | 	byte	$46, $52, $45, $51, $46, $52, $45, $51, $46, $52, $45, $51, $46, $52, $45, $51
00d48     46 52 45 51 
00d4c     46 52 45 51 
00d50     46 52 45 51 
00d54     46 52 45 51 | 	byte	$46, $52, $45, $51, $46, $52, $45, $51, $46, $52, $45, $51, $46, $52, $45, $51
00d58     46 52 45 51 
00d5c     46 52 45 51 
00d60     46 52 45 51 
00d64     46 52 45 51 | 	byte	$46, $52, $45, $51, $46, $52, $45, $51, $46, $52, $45, $51, $46, $52, $45, $51
00d68     46 52 45 51 
00d6c     46 52 45 51 
00d70     46 52 45 51 
00d74     46 52 45 51 | 	byte	$46, $52, $45, $51, $46, $52, $45, $51, $46, $52, $45, $51, $46, $52, $45, $51
00d78     46 52 45 51 
00d7c     46 52 45 51 
00d80     46 52 45 51 
00d84     46 52 45 51 | 	byte	$46, $52, $45, $51, $46, $52, $45, $51, $46, $52, $45, $51, $46, $52, $45, $51
00d88     46 52 45 51 
00d8c     46 52 45 51 
00d90     46 52 45 51 
00d94     46 52 45 51 | 	byte	$46, $52, $45, $51, $46, $52, $45, $51, $46, $52, $45, $51, $46, $52, $45, $51
00d98     46 52 45 51 
00d9c     46 52 45 51 
00da0     46 52 45 51 
00da4     46 52 45 51 | 	byte	$46, $52, $45, $51, $46, $52, $45, $51, $46, $52, $45, $51, $46, $52, $45, $51
00da8     46 52 45 51 
00dac     46 52 45 51 
00db0     46 52 45 51 
00db4     46 52 45 51 | 	byte	$46, $52, $45, $51, $46, $52, $45, $51, $46, $52, $45, $51, $46, $52, $45, $51
00db8     46 52 45 51 
00dbc     46 52 45 51 
00dc0     46 52 45 51 
00dc4     46 52 45 51 | 	byte	$46, $52, $45, $51, $46, $52, $45, $51, $46, $52, $45, $51, $46, $52, $45, $51
00dc8     46 52 45 51 
00dcc     46 52 45 51 
00dd0     46 52 45 51 
00dd4     46 52 45 51 | 	byte	$46, $52, $45, $51, $46, $52, $45, $51, $46, $52, $45, $51, $46, $52, $45, $51
00dd8     46 52 45 51 
00ddc     46 52 45 51 
00de0     46 52 45 51 
00de4     46 52 45 51 | 	byte	$46, $52, $45, $51, $46, $52, $45, $51, $46, $52, $45, $51, $46, $52, $45, $51
00de8     46 52 45 51 
00dec     46 52 45 51 
00df0     46 52 45 51 
00df4     46 52 45 51 | 	byte	$46, $52, $45, $51, $46, $52, $45, $51, $46, $52, $45, $51, $46, $52, $45, $51
00df8     46 52 45 51 
00dfc     46 52 45 51 
00e00     46 52 45 51 
00e04     46 52 45 51 | 	byte	$46, $52, $45, $51, $46, $52, $45, $51, $46, $52, $45, $51, $46, $52, $45, $51
00e08     46 52 45 51 
00e0c     46 52 45 51 
00e10     46 52 45 51 
00e14     46 52 45 51 | 	byte	$46, $52, $45, $51, $46, $52, $45, $51, $46, $52, $45, $51, $46, $52, $45, $51
00e18     46 52 45 51 
00e1c     46 52 45 51 
00e20     46 52 45 51 
00e24     46 52 45 51 | 	byte	$46, $52, $45, $51, $46, $52, $45, $51, $46, $52, $45, $51, $46, $52, $45, $51
00e28     46 52 45 51 
00e2c     46 52 45 51 
00e30     46 52 45 51 
00e34     46 52 45 51 | 	byte	$46, $52, $45, $51, $46, $52, $45, $51, $46, $52, $45, $51, $46, $52, $45, $51
00e38     46 52 45 51 
00e3c     46 52 45 51 
00e40     46 52 45 51 
00e44     46 52 45 51 | 	byte	$46, $52, $45, $51, $46, $52, $45, $51, $46, $52, $45, $51, $46, $52, $45, $51
00e48     46 52 45 51 
00e4c     46 52 45 51 
00e50     46 52 45 51 
00e54     46 52 45 51 | 	byte	$46, $52, $45, $51, $46, $52, $45, $51, $46, $52, $45, $51, $46, $52, $45, $51
00e58     46 52 45 51 
00e5c     46 52 45 51 
00e60     46 52 45 51 
00e64     46 52 45 51 | 	byte	$46, $52, $45, $51, $46, $52, $45, $51, $46, $52, $45, $51, $46, $52, $45, $51
00e68     46 52 45 51 
00e6c     46 52 45 51 
00e70     46 52 45 51 
00e74     46 52 45 51 | 	byte	$46, $52, $45, $51, $46, $52, $45, $51, $46, $52, $45, $51, $46, $52, $45, $51
00e78     46 52 45 51 
00e7c     46 52 45 51 
00e80     46 52 45 51 
00e84     46 52 45 51 | 	byte	$46, $52, $45, $51, $46, $52, $45, $51, $46, $52, $45, $51, $46, $52, $45, $51
00e88     46 52 45 51 
00e8c     46 52 45 51 
00e90     46 52 45 51 
00e94     46 52 45 51 | 	byte	$46, $52, $45, $51, $46, $52, $45, $51, $46, $52, $45, $51, $46, $52, $45, $51
00e98     46 52 45 51 
00e9c     46 52 45 51 
00ea0     46 52 45 51 
00ea4     46 52 45 51 | 	byte	$46, $52, $45, $51, $46, $52, $45, $51, $46, $52, $45, $51, $46, $52, $45, $51
00ea8     46 52 45 51 
00eac     46 52 45 51 
00eb0     46 52 45 51 
00eb4     46 52 45 51 | 	byte	$46, $52, $45, $51, $46, $52, $45, $51, $46, $52, $45, $51, $46, $52, $45, $51
00eb8     46 52 45 51 
00ebc     46 52 45 51 
00ec0     46 52 45 51 
00ec4     46 52 45 51 | 	byte	$46, $52, $45, $51, $46, $52, $45, $51, $46, $52, $45, $51, $46, $52, $45, $51
00ec8     46 52 45 51 
00ecc     46 52 45 51 
00ed0     46 52 45 51 
00ed4     46 52 45 51 | 	byte	$46, $52, $45, $51, $46, $52, $45, $51, $46, $52, $45, $51, $46, $52, $45, $51
00ed8     46 52 45 51 
00edc     46 52 45 51 
00ee0     46 52 45 51 
00ee4     46 52 45 51 | 	byte	$46, $52, $45, $51, $46, $52, $45, $51, $46, $52, $45, $51, $46, $52, $45, $51
00ee8     46 52 45 51 
00eec     46 52 45 51 
00ef0     46 52 45 51 
00ef4     46 52 45 51 | 	byte	$46, $52, $45, $51, $46, $52, $45, $51, $46, $52, $45, $51, $46, $52, $45, $51
00ef8     46 52 45 51 
00efc     46 52 45 51 
00f00     46 52 45 51 
00f04     46 52 45 51 | 	byte	$46, $52, $45, $51, $46, $52, $45, $51, $46, $52, $45, $51, $46, $52, $45, $51
00f08     46 52 45 51 
00f0c     46 52 45 51 
00f10     46 52 45 51 
00f14     46 52 45 51 | 	byte	$46, $52, $45, $51, $46, $52, $45, $51, $46, $52, $45, $51, $46, $52, $45, $51
00f18     46 52 45 51 
00f1c     46 52 45 51 
00f20     46 52 45 51 
00f24     46 52 45 51 | 	byte	$46, $52, $45, $51, $46, $52, $45, $51, $46, $52, $45, $51, $46, $52, $45, $51
00f28     46 52 45 51 
00f2c     46 52 45 51 
00f30     46 52 45 51 
00f34     46 52 45 51 | 	byte	$46, $52, $45, $51, $46, $52, $45, $51, $46, $52, $45, $51, $46, $52, $45, $51
00f38     46 52 45 51 
00f3c     46 52 45 51 
00f40     46 52 45 51 
00f44     46 52 45 51 | 	byte	$46, $52, $45, $51, $46, $52, $45, $51, $46, $52, $45, $51, $46, $52, $45, $51
00f48     46 52 45 51 
00f4c     46 52 45 51 
00f50     46 52 45 51 
00f54     46 52 45 51 | 	byte	$46, $52, $45, $51, $46, $52, $45, $51, $46, $52, $45, $51, $46, $52, $45, $51
00f58     46 52 45 51 
00f5c     46 52 45 51 
00f60     46 52 45 51 
00f64     46 52 45 51 | 	byte	$46, $52, $45, $51, $46, $52, $45, $51, $46, $52, $45, $51, $46, $52, $45, $51
00f68     46 52 45 51 
00f6c     46 52 45 51 
00f70     46 52 45 51 
00f74     46 52 45 51 | 	byte	$46, $52, $45, $51, $46, $52, $45, $51, $46, $52, $45, $51, $46, $52, $45, $51
00f78     46 52 45 51 
00f7c     46 52 45 51 
00f80     46 52 45 51 
00f84     46 52 45 51 | 	byte	$46, $52, $45, $51, $46, $52, $45, $51, $46, $52, $45, $51, $46, $52, $45, $51
00f88     46 52 45 51 
00f8c     46 52 45 51 
00f90     46 52 45 51 
00f94     46 52 45 51 | 	byte	$46, $52, $45, $51, $46, $52, $45, $51, $46, $52, $45, $51, $46, $52, $45, $51
00f98     46 52 45 51 
00f9c     46 52 45 51 
00fa0     46 52 45 51 
00fa4     46 52 45 51 | 	byte	$46, $52, $45, $51, $46, $52, $45, $51, $46, $52, $45, $51, $46, $52, $45, $51
00fa8     46 52 45 51 
00fac     46 52 45 51 
00fb0     46 52 45 51 
00fb4     46 52 45 51 | 	byte	$46, $52, $45, $51, $46, $52, $45, $51, $46, $52, $45, $51, $46, $52, $45, $51
00fb8     46 52 45 51 
00fbc     46 52 45 51 
00fc0     46 52 45 51 
00fc4     46 52 45 51 | 	byte	$46, $52, $45, $51, $46, $52, $45, $51, $46, $52, $45, $51, $46, $52, $45, $51
00fc8     46 52 45 51 
00fcc     46 52 45 51 
00fd0     46 52 45 51 
00fd4     46 52 45 51 | 	byte	$46, $52, $45, $51, $46, $52, $45, $51, $46, $52, $45, $51, $46, $52, $45, $51
00fd8     46 52 45 51 
00fdc     46 52 45 51 
00fe0     46 52 45 51 
00fe4     46 52 45 51 | 	byte	$46, $52, $45, $51, $46, $52, $45, $51, $46, $52, $45, $51, $46, $52, $45, $51
00fe8     46 52 45 51 
00fec     46 52 45 51 
00ff0     46 52 45 51 
00ff4     46 52 45 51 | 	byte	$46, $52, $45, $51, $46, $52, $45, $51, $46, $52, $45, $51, $46, $52, $45, $51
00ff8     46 52 45 51 
00ffc     46 52 45 51 
01000     46 52 45 51 
01004     46 52 45 51 | 	byte	$46, $52, $45, $51, $46, $52, $45, $51, $46, $52, $45, $51, $46, $52, $45, $51
01008     46 52 45 51 
0100c     46 52 45 51 
01010     46 52 45 51 
01014     46 52 45 51 | 	byte	$46, $52, $45, $51, $46, $52, $45, $51, $46, $52, $45, $51, $46, $52, $45, $51
01018     46 52 45 51 
0101c     46 52 45 51 
01020     46 52 45 51 
01024     46 52 45 51 | 	byte	$46, $52, $45, $51, $46, $52, $45, $51, $46, $52, $45, $51, $46, $52, $45, $51
01028     46 52 45 51 
0102c     46 52 45 51 
01030     46 52 45 51 
01034     46 52 45 51 | 	byte	$46, $52, $45, $51, $46, $52, $45, $51, $46, $52, $45, $51, $46, $52, $45, $51
01038     46 52 45 51 
0103c     46 52 45 51 
01040     46 52 45 51 
01044     46 52 45 51 | 	byte	$46, $52, $45, $51, $46, $52, $45, $51, $46, $52, $45, $51, $46, $52, $45, $51
01048     46 52 45 51 
0104c     46 52 45 51 
01050     46 52 45 51 
01054     46 52 45 51 | 	byte	$46, $52, $45, $51, $46, $52, $45, $51, $46, $52, $45, $51, $46, $52, $45, $51
01058     46 52 45 51 
0105c     46 52 45 51 
01060     46 52 45 51 
01064     46 52 45 51 | 	byte	$46, $52, $45, $51, $46, $52, $45, $51, $46, $52, $45, $51, $46, $52, $45, $51
01068     46 52 45 51 
0106c     46 52 45 51 
01070     46 52 45 51 
01074     46 52 45 51 | 	byte	$46, $52, $45, $51, $46, $52, $45, $51, $46, $52, $45, $51, $46, $52, $45, $51
01078     46 52 45 51 
0107c     46 52 45 51 
01080     46 52 45 51 
01084     46 52 45 51 | 	byte	$46, $52, $45, $51, $46, $52, $45, $51, $46, $52, $45, $51, $46, $52, $45, $51
01088     46 52 45 51 
0108c     46 52 45 51 
01090     46 52 45 51 
01094     46 52 45 51 | 	byte	$46, $52, $45, $51, $46, $52, $45, $51, $46, $52, $45, $51, $46, $52, $45, $51
01098     46 52 45 51 
0109c     46 52 45 51 
010a0     46 52 45 51 
010a4     46 52 45 51 | 	byte	$46, $52, $45, $51, $46, $52, $45, $51, $46, $52, $45, $51, $46, $52, $45, $51
010a8     46 52 45 51 
010ac     46 52 45 51 
010b0     46 52 45 51 
010b4     46 52 45 51 | 	byte	$46, $52, $45, $51, $46, $52, $45, $51, $46, $52, $45, $51, $46, $52, $45, $51
010b8     46 52 45 51 
010bc     46 52 45 51 
010c0     46 52 45 51 
010c4     46 52 45 51 | 	byte	$46, $52, $45, $51, $46, $52, $45, $51, $46, $52, $45, $51, $46, $52, $45, $51
010c8     46 52 45 51 
010cc     46 52 45 51 
010d0     46 52 45 51 
010d4     46 52 45 51 | 	byte	$46, $52, $45, $51, $46, $52, $45, $51, $46, $52, $45, $51, $46, $52, $45, $51
010d8     46 52 45 51 
010dc     46 52 45 51 
010e0     46 52 45 51 
010e4     46 52 45 51 | 	byte	$46, $52, $45, $51, $46, $52, $45, $51, $46, $52, $45, $51, $46, $52, $45, $51
010e8     46 52 45 51 
010ec     46 52 45 51 
010f0     46 52 45 51 
010f4     46 52 45 51 | 	byte	$46, $52, $45, $51, $46, $52, $45, $51, $46, $52, $45, $51, $46, $52, $45, $51
010f8     46 52 45 51 
010fc     46 52 45 51 
01100     46 52 45 51 
01104     46 52 45 51 | 	byte	$46, $52, $45, $51, $46, $52, $45, $51, $46, $52, $45, $51, $46, $52, $45, $51
01108     46 52 45 51 
0110c     46 52 45 51 
01110     46 52 45 51 
01114     46 52 45 51 | 	byte	$46, $52, $45, $51, $46, $52, $45, $51, $46, $52, $45, $51, $46, $52, $45, $51
01118     46 52 45 51 
0111c     46 52 45 51 
01120     46 52 45 51 
01124     46 52 45 51 | 	byte	$46, $52, $45, $51, $46, $52, $45, $51, $46, $52, $45, $51, $46, $52, $45, $51
01128     46 52 45 51 
0112c     46 52 45 51 
01130     46 52 45 51 
01134     46 52 45 51 | 	byte	$46, $52, $45, $51, $46, $52, $45, $51, $46, $52, $45, $51, $46, $52, $45, $51
01138     46 52 45 51 
0113c     46 52 45 51 
01140     46 52 45 51 
01144     46 52 45 51 | 	byte	$46, $52, $45, $51, $46, $52, $45, $51, $46, $52, $45, $51, $46, $52, $45, $51
01148     46 52 45 51 
0114c     46 52 45 51 
01150     46 52 45 51 
01154     46 52 45 51 | 	byte	$46, $52, $45, $51, $46, $52, $45, $51, $46, $52, $45, $51, $46, $52, $45, $51
01158     46 52 45 51 
0115c     46 52 45 51 
01160     46 52 45 51 
01164     46 52 45 51 | 	byte	$46, $52, $45, $51, $46, $52, $45, $51, $46, $52, $45, $51, $46, $52, $45, $51
01168     46 52 45 51 
0116c     46 52 45 51 
01170     46 52 45 51 
01174     46 52 45 51 | 	byte	$46, $52, $45, $51, $46, $52, $45, $51, $46, $52, $45, $51, $46, $52, $45, $51
01178     46 52 45 51 
0117c     46 52 45 51 
01180     46 52 45 51 
01184     46 52 45 51 | 	byte	$46, $52, $45, $51, $46, $52, $45, $51, $46, $52, $45, $51, $46, $52, $45, $51
01188     46 52 45 51 
0118c     46 52 45 51 
01190     46 52 45 51 
01194     46 52 45 51 | 	byte	$46, $52, $45, $51, $46, $52, $45, $51, $46, $52, $45, $51, $46, $52, $45, $51
01198     46 52 45 51 
0119c     46 52 45 51 
011a0     46 52 45 51 
011a4     46 52 45 51 | 	byte	$46, $52, $45, $51, $46, $52, $45, $51, $46, $52, $45, $51, $46, $52, $45, $51
011a8     46 52 45 51 
011ac     46 52 45 51 
011b0     46 52 45 51 
011b4     46 52 45 51 | 	byte	$46, $52, $45, $51, $46, $52, $45, $51, $46, $52, $45, $51, $46, $52, $45, $51
011b8     46 52 45 51 
011bc     46 52 45 51 
011c0     46 52 45 51 
011c4     46 52 45 51 | 	byte	$46, $52, $45, $51, $46, $52, $45, $51, $46, $52, $45, $51, $46, $52, $45, $51
011c8     46 52 45 51 
011cc     46 52 45 51 
011d0     46 52 45 51 
011d4     46 52 45 51 | 	byte	$46, $52, $45, $51, $46, $52, $45, $51, $46, $52, $45, $51, $46, $52, $45, $51
011d8     46 52 45 51 
011dc     46 52 45 51 
011e0     46 52 45 51 
011e4     46 52 45 51 | 	byte	$46, $52, $45, $51, $46, $52, $45, $51, $46, $52, $45, $51, $46, $52, $45, $51
011e8     46 52 45 51 
011ec     46 52 45 51 
011f0     46 52 45 51 
011f4     46 52 45 51 | 	byte	$46, $52, $45, $51, $46, $52, $45, $51, $46, $52, $45, $51, $46, $52, $45, $51
011f8     46 52 45 51 
011fc     46 52 45 51 
01200     46 52 45 51 
01204     46 52 45 51 | 	byte	$46, $52, $45, $51, $46, $52, $45, $51, $46, $52, $45, $51, $46, $52, $45, $51
01208     46 52 45 51 
0120c     46 52 45 51 
01210     46 52 45 51 
01214     46 52 45 51 | 	byte	$46, $52, $45, $51, $46, $52, $45, $51, $46, $52, $45, $51, $46, $52, $45, $51
01218     46 52 45 51 
0121c     46 52 45 51 
01220     46 52 45 51 
01224     46 52 45 51 | 	byte	$46, $52, $45, $51, $46, $52, $45, $51, $46, $52, $45, $51, $46, $52, $45, $51
01228     46 52 45 51 
0122c     46 52 45 51 
01230     46 52 45 51 
01234     46 52 45 51 | 	byte	$46, $52, $45, $51, $46, $52, $45, $51, $46, $52, $45, $51, $46, $52, $45, $51
01238     46 52 45 51 
0123c     46 52 45 51 
01240     46 52 45 51 
01244     46 52 45 51 | 	byte	$46, $52, $45, $51, $46, $52, $45, $51, $46, $52, $45, $51, $46, $52, $45, $51
01248     46 52 45 51 
0124c     46 52 45 51 
01250     46 52 45 51 
01254     46 52 45 51 | 	byte	$46, $52, $45, $51, $46, $52, $45, $51, $46, $52, $45, $51, $46, $52, $45, $51
01258     46 52 45 51 
0125c     46 52 45 51 
01260     46 52 45 51 
01264     46 52 45 51 | 	byte	$46, $52, $45, $51, $46, $52, $45, $51, $46, $52, $45, $51, $46, $52, $45, $51
01268     46 52 45 51 
0126c     46 52 45 51 
01270     46 52 45 51 
01274     46 52 45 51 | 	byte	$46, $52, $45, $51, $46, $52, $45, $51, $46, $52, $45, $51, $46, $52, $45, $51
01278     46 52 45 51 
0127c     46 52 45 51 
01280     46 52 45 51 
01284     46 52 45 51 | 	byte	$46, $52, $45, $51, $46, $52, $45, $51, $46, $52, $45, $51, $46, $52, $45, $51
01288     46 52 45 51 
0128c     46 52 45 51 
01290     46 52 45 51 
01294     46 52 45 51 | 	byte	$46, $52, $45, $51, $46, $52, $45, $51, $46, $52, $45, $51, $46, $52, $45, $51
01298     46 52 45 51 
0129c     46 52 45 51 
012a0     46 52 45 51 
012a4     46 52 45 51 | 	byte	$46, $52, $45, $51, $46, $52, $45, $51, $46, $52, $45, $51, $46, $52, $45, $51
012a8     46 52 45 51 
012ac     46 52 45 51 
012b0     46 52 45 51 
012b4     46 52 45 51 | 	byte	$46, $52, $45, $51, $46, $52, $45, $51, $46, $52, $45, $51, $46, $52, $45, $51
012b8     46 52 45 51 
012bc     46 52 45 51 
012c0     46 52 45 51 
012c4     46 52 45 51 | 	byte	$46, $52, $45, $51, $46, $52, $45, $51, $46, $52, $45, $51, $46, $52, $45, $51
012c8     46 52 45 51 
012cc     46 52 45 51 
012d0     46 52 45 51 
012d4     46 52 45 51 | 	byte	$46, $52, $45, $51, $46, $52, $45, $51, $46, $52, $45, $51, $46, $52, $45, $51
012d8     46 52 45 51 
012dc     46 52 45 51 
012e0     46 52 45 51 
012e4     46 52 45 51 | 	byte	$46, $52, $45, $51, $46, $52, $45, $51, $46, $52, $45, $51, $46, $52, $45, $51
012e8     46 52 45 51 
012ec     46 52 45 51 
012f0     46 52 45 51 
012f4     46 52 45 51 | 	byte	$46, $52, $45, $51, $46, $52, $45, $51, $46, $52, $45, $51, $46, $52, $45, $51
012f8     46 52 45 51 
012fc     46 52 45 51 
01300     46 52 45 51 
01304     46 52 45 51 | 	byte	$46, $52, $45, $51, $46, $52, $45, $51, $46, $52, $45, $51, $46, $52, $45, $51
01308     46 52 45 51 
0130c     46 52 45 51 
01310     46 52 45 51 
01314     46 52 45 51 | 	byte	$46, $52, $45, $51, $46, $52, $45, $51, $46, $52, $45, $51, $46, $52, $45, $51
01318     46 52 45 51 
0131c     46 52 45 51 
01320     46 52 45 51 
01324     46 52 45 51 | 	byte	$46, $52, $45, $51, $46, $52, $45, $51, $46, $52, $45, $51, $46, $52, $45, $51
01328     46 52 45 51 
0132c     46 52 45 51 
01330     46 52 45 51 
01334     46 52 45 51 | 	byte	$46, $52, $45, $51, $46, $52, $45, $51, $46, $52, $45, $51, $46, $52, $45, $51
01338     46 52 45 51 
0133c     46 52 45 51 
01340     46 52 45 51 
01344     46 52 45 51 | 	byte	$46, $52, $45, $51, $46, $52, $45, $51, $46, $52, $45, $51, $46, $52, $45, $51
01348     46 52 45 51 
0134c     46 52 45 51 
01350     46 52 45 51 
01354     46 52 45 51 | 	byte	$46, $52, $45, $51, $46, $52, $45, $51, $46, $52, $45, $51, $46, $52, $45, $51
01358     46 52 45 51 
0135c     46 52 45 51 
01360     46 52 45 51 
01364     46 52 45 51 | 	byte	$46, $52, $45, $51, $46, $52, $45, $51, $46, $52, $45, $51, $46, $52, $45, $51
01368     46 52 45 51 
0136c     46 52 45 51 
01370     46 52 45 51 
01374     46 52 45 51 | 	byte	$46, $52, $45, $51, $46, $52, $45, $51, $46, $52, $45, $51, $46, $52, $45, $51
01378     46 52 45 51 
0137c     46 52 45 51 
01380     46 52 45 51 
01384     46 52 45 51 | 	byte	$46, $52, $45, $51, $46, $52, $45, $51, $46, $52, $45, $51, $46, $52, $45, $51
01388     46 52 45 51 
0138c     46 52 45 51 
01390     46 52 45 51 
01394     46 52 45 51 | 	byte	$46, $52, $45, $51, $46, $52, $45, $51, $46, $52, $45, $51, $46, $52, $45, $51
01398     46 52 45 51 
0139c     46 52 45 51 
013a0     46 52 45 51 
013a4     46 52 45 51 | 	byte	$46, $52, $45, $51, $46, $52, $45, $51, $46, $52, $45, $51, $46, $52, $45, $51
013a8     46 52 45 51 
013ac     46 52 45 51 
013b0     46 52 45 51 
013b4     46 52 45 51 | 	byte	$46, $52, $45, $51, $46, $52, $45, $51, $46, $52, $45, $51, $46, $52, $45, $51
013b8     46 52 45 51 
013bc     46 52 45 51 
013c0     46 52 45 51 
013c4     46 52 45 51 | 	byte	$46, $52, $45, $51, $46, $52, $45, $51, $46, $52, $45, $51, $46, $52, $45, $51
013c8     46 52 45 51 
013cc     46 52 45 51 
013d0     46 52 45 51 
013d4     46 52 45 51 | 	byte	$46, $52, $45, $51, $46, $52, $45, $51, $46, $52, $45, $51, $46, $52, $45, $51
013d8     46 52 45 51 
013dc     46 52 45 51 
013e0     46 52 45 51 
013e4     46 52 45 51 | 	byte	$46, $52, $45, $51, $46, $52, $45, $51, $46, $52, $45, $51, $46, $52, $45, $51
013e8     46 52 45 51 
013ec     46 52 45 51 
013f0     46 52 45 51 
013f4     46 52 45 51 | 	byte	$46, $52, $45, $51, $46, $52, $45, $51, $46, $52, $45, $51, $46, $52, $45, $51
013f8     46 52 45 51 
013fc     46 52 45 51 
01400     46 52 45 51 
01404     46 52 45 51 | 	byte	$46, $52, $45, $51, $46, $52, $45, $51, $46, $52, $45, $51, $46, $52, $45, $51
01408     46 52 45 51 
0140c     46 52 45 51 
01410     46 52 45 51 
01414     46 52 45 51 | 	byte	$46, $52, $45, $51, $46, $52, $45, $51, $46, $52, $45, $51, $46, $52, $45, $51
01418     46 52 45 51 
0141c     46 52 45 51 
01420     46 52 45 51 
01424     46 52 45 51 | 	byte	$46, $52, $45, $51, $46, $52, $45, $51, $46, $52, $45, $51, $46, $52, $45, $51
01428     46 52 45 51 
0142c     46 52 45 51 
01430     46 52 45 51 
01434     46 52 45 51 | 	byte	$46, $52, $45, $51, $46, $52, $45, $51, $46, $52, $45, $51, $46, $52, $45, $51
01438     46 52 45 51 
0143c     46 52 45 51 
01440     46 52 45 51 
01444     46 52 45 51 | 	byte	$46, $52, $45, $51, $46, $52, $45, $51, $46, $52, $45, $51, $46, $52, $45, $51
01448     46 52 45 51 
0144c     46 52 45 51 
01450     46 52 45 51 
01454     46 52 45 51 | 	byte	$46, $52, $45, $51, $46, $52, $45, $51, $46, $52, $45, $51, $46, $52, $45, $51
01458     00 00 00 00 
0145c     00 00 00 00 | panningLut       word  0[NR_CHANNELS]
01460                 | 
01460                 | 'instrPanningLut  word  32768[NR_SAMPLES]
01460                 | 
01460     00 00 00 00 
01464     18 00 00 00 
01468     31 00 00 00 
0146c     4A 00 00 00 | vibratoWaveform  long  0,    24,   49,   74,   97,   120,  141,  161
01470     61 00 00 00 
01474     78 00 00 00 
01478     8D 00 00 00 
0147c     A1 00 00 00 | 	byte	$61, $00, $00, $00, $78, $00, $00, $00, $8d, $00, $00, $00, $a1, $00, $00, $00
01480     B4 00 00 00 
01484     C5 00 00 00 
01488     D4 00 00 00 
0148c     E0 00 00 00 |                  long  180,  197,  212,  224,  235,  244,  250,  253
01490     EB 00 00 00 
01494     F4 00 00 00 
01498     FA 00 00 00 
0149c     FD 00 00 00 | 	byte	$eb, $00, $00, $00, $f4, $00, $00, $00, $fa, $00, $00, $00, $fd, $00, $00, $00
014a0     FF 00 00 00 
014a4     FD 00 00 00 
014a8     FA 00 00 00 
014ac     F4 00 00 00 |                  long  255,  253,  250,  244,  235,  224,  212,  197
014b0     EB 00 00 00 
014b4     E0 00 00 00 
014b8     D4 00 00 00 
014bc     C5 00 00 00 | 	byte	$eb, $00, $00, $00, $e0, $00, $00, $00, $d4, $00, $00, $00, $c5, $00, $00, $00
014c0     B4 00 00 00 
014c4     A1 00 00 00 
014c8     8D 00 00 00 
014cc     78 00 00 00 |                  long  180,  161,  141,  120,  97,   74,   49,   24
014d0     61 00 00 00 
014d4     4A 00 00 00 
014d8     31 00 00 00 
014dc     18 00 00 00 | 	byte	$61, $00, $00, $00, $4a, $00, $00, $00, $31, $00, $00, $00, $18, $00, $00, $00
014e0     00 00 00 00 
014e4     E8 FF FF FF 
014e8     CF FF FF FF 
014ec     B6 FF FF FF |                  long  0,   -24,  -49,  -74,  -97,  -120, -141, -161
014f0     9F FF FF FF 
014f4     88 FF FF FF 
014f8     73 FF FF FF 
014fc     5F FF FF FF | 	byte	$9f, $ff, $ff, $ff, $88, $ff, $ff, $ff, $73, $ff, $ff, $ff, $5f, $ff, $ff, $ff
01500     4C FF FF FF 
01504     3B FF FF FF 
01508     2C FF FF FF 
0150c     20 FF FF FF |                  long -180, -197, -212, -224, -235, -244, -250, -253
01510     15 FF FF FF 
01514     0C FF FF FF 
01518     06 FF FF FF 
0151c     03 FF FF FF | 	byte	$15, $ff, $ff, $ff, $0c, $ff, $ff, $ff, $06, $ff, $ff, $ff, $03, $ff, $ff, $ff
01520     01 FF FF FF 
01524     03 FF FF FF 
01528     06 FF FF FF 
0152c     0C FF FF FF |                  long -255, -253, -250, -244, -235, -224, -212, -197
01530     15 FF FF FF 
01534     20 FF FF FF 
01538     2C FF FF FF 
0153c     3B FF FF FF | 	byte	$15, $ff, $ff, $ff, $20, $ff, $ff, $ff, $2c, $ff, $ff, $ff, $3b, $ff, $ff, $ff
01540     4C FF FF FF 
01544     5F FF FF FF 
01548     73 FF FF FF 
0154c     88 FF FF FF |                  long -180, -161, -141, -120, -97,  -74,  -49,  -24
01550     9F FF FF FF 
01554     B6 FF FF FF 
01558     CF FF FF FF 
0155c     E8 FF FF FF | 	byte	$9f, $ff, $ff, $ff, $b6, $ff, $ff, $ff, $cf, $ff, $ff, $ff, $e8, $ff, $ff, $ff
01560                 | 
01560     58 03 28 03 
01564     FA 02 D0 02 
01568     A6 02 80 02 
0156c     5C 02 3A 02 | periodTable      word  856 , 808 , 762 , 720 , 678 , 640 , 604 , 570 , 538 , 508 , 480 , 453 ' C1
01570     1A 02 FC 01 
01574     E0 01 C5 01 | 	byte	$1a, $02, $fc, $01, $e0, $01, $c5, $01
01578     AC 01 94 01 
0157c     7D 01 68 01 
01580     53 01 40 01 
01584     2E 01 1D 01 |                  word  428 , 404 , 381 , 360 , 339 , 320 , 302 , 285 , 269 , 254 , 240 , 226 ' C2
01588     0D 01 FE 00 
0158c     F0 00 E2 00 | 	byte	$0d, $01, $fe, $00, $f0, $00, $e2, $00
01590     D6 00 CA 00 
01594     BE 00 B4 00 
01598     AA 00 A0 00 
0159c     97 00 8F 00 |                  word  214 , 202 , 190 , 180 , 170 , 160 , 151 , 143 , 135 , 127 , 120 , 113 ' C3
015a0     87 00 7F 00 
015a4     78 00 71 00 | 	byte	$87, $00, $7f, $00, $78, $00, $71, $00
015a8     52 03 22 03 
015ac     F5 02 CB 02 
015b0     A2 02 7D 02 
015b4     59 02 37 02 |                  word  850 , 802 , 757 , 715 , 674 , 637 , 601 , 567 , 535 , 505 , 477 , 450
015b8     17 02 F9 01 
015bc     DD 01 C2 01 | 	byte	$17, $02, $f9, $01, $dd, $01, $c2, $01
015c0     A9 01 91 01 
015c4     7B 01 65 01 
015c8     51 01 3E 01 
015cc     2C 01 1C 01 |                  word  425 , 401 , 379 , 357 , 337 , 318 , 300 , 284 , 268 , 253 , 239 , 225
015d0     0C 01 FD 00 
015d4     EF 00 E1 00 | 	byte	$0c, $01, $fd, $00, $ef, $00, $e1, $00
015d8     D5 00 C9 00 
015dc     BD 00 B3 00 
015e0     A9 00 9F 00 
015e4     96 00 8E 00 |                  word  213 , 201 , 189 , 179 , 169 , 159 , 150 , 142 , 134 , 126 , 119 , 113
015e8     86 00 7E 00 
015ec     77 00 71 00 | 	byte	$86, $00, $7e, $00, $77, $00, $71, $00
015f0     4C 03 1C 03 
015f4     F0 02 C5 02 
015f8     9E 02 78 02 
015fc     55 02 33 02 |                  word  844 , 796 , 752 , 709 , 670 , 632 , 597 , 563 , 532 , 502 , 474 , 447
01600     14 02 F6 01 
01604     DA 01 BF 01 | 	byte	$14, $02, $f6, $01, $da, $01, $bf, $01
01608     A6 01 8E 01 
0160c     78 01 63 01 
01610     4F 01 3C 01 
01614     2A 01 1A 01 |                  word  422 , 398 , 376 , 355 , 335 , 316 , 298 , 282 , 266 , 251 , 237 , 224
01618     0A 01 FB 00 
0161c     ED 00 E0 00 | 	byte	$0a, $01, $fb, $00, $ed, $00, $e0, $00
01620     D3 00 C7 00 
01624     BC 00 B1 00 
01628     A7 00 9E 00 
0162c     95 00 8D 00 |                  word  211 , 199 , 188 , 177 , 167 , 158 , 149 , 141 , 133 , 125 , 118 , 112
01630     85 00 7D 00 
01634     76 00 70 00 | 	byte	$85, $00, $7d, $00, $76, $00, $70, $00
01638     46 03 17 03 
0163c     EA 02 C0 02 
01640     99 02 74 02 
01644     50 02 2F 02 |                  word  838 , 791 , 746 , 704 , 665 , 628 , 592 , 559 , 528 , 498 , 470 , 444
01648     10 02 F2 01 
0164c     D6 01 BC 01 | 	byte	$10, $02, $f2, $01, $d6, $01, $bc, $01
01650     A3 01 8B 01 
01654     75 01 60 01 
01658     4C 01 3A 01 
0165c     28 01 18 01 |                  word  419 , 395 , 373 , 352 , 332 , 314 , 296 , 280 , 264 , 249 , 235 , 222
01660     08 01 F9 00 
01664     EB 00 DE 00 | 	byte	$08, $01, $f9, $00, $eb, $00, $de, $00
01668     D1 00 C6 00 
0166c     BB 00 B0 00 
01670     A6 00 9D 00 
01674     94 00 8C 00 |                  word  209 , 198 , 187 , 176 , 166 , 157 , 148 , 140 , 132 , 125 , 118 , 111
01678     84 00 7D 00 
0167c     76 00 6F 00 | 	byte	$84, $00, $7d, $00, $76, $00, $6f, $00
01680     40 03 11 03 
01684     E5 02 BB 02 
01688     94 02 6F 02 
0168c     4C 02 2B 02 |                  word  832 , 785 , 741 , 699 , 660 , 623 , 588 , 555 , 524 , 495 , 467 , 441
01690     0C 02 EF 01 
01694     D3 01 B9 01 | 	byte	$0c, $02, $ef, $01, $d3, $01, $b9, $01
01698     A0 01 88 01 
0169c     72 01 5E 01 
016a0     4A 01 38 01 
016a4     26 01 16 01 |                  word  416 , 392 , 370 , 350 , 330 , 312 , 294 , 278 , 262 , 247 , 233 , 220
016a8     06 01 F7 00 
016ac     E9 00 DC 00 | 	byte	$06, $01, $f7, $00, $e9, $00, $dc, $00
016b0     D0 00 C4 00 
016b4     B9 00 AF 00 
016b8     A5 00 9C 00 
016bc     93 00 8B 00 |                  word  208 , 196 , 185 , 175 , 165 , 156 , 147 , 139 , 131 , 124 , 117 , 110
016c0     83 00 7C 00 
016c4     75 00 6E 00 | 	byte	$83, $00, $7c, $00, $75, $00, $6e, $00
016c8     3A 03 0B 03 
016cc     E0 02 B6 02 
016d0     8F 02 6B 02 
016d4     48 02 27 02 |                  word  826 , 779 , 736 , 694 , 655 , 619 , 584 , 551 , 520 , 491 , 463 , 437
016d8     08 02 EB 01 
016dc     CF 01 B5 01 | 	byte	$08, $02, $eb, $01, $cf, $01, $b5, $01
016e0     9D 01 86 01 
016e4     70 01 5B 01 
016e8     48 01 35 01 
016ec     24 01 14 01 |                  word  413 , 390 , 368 , 347 , 328 , 309 , 292 , 276 , 260 , 245 , 232 , 219
016f0     04 01 F5 00 
016f4     E8 00 DB 00 | 	byte	$04, $01, $f5, $00, $e8, $00, $db, $00
016f8     CE 00 C3 00 
016fc     B8 00 AE 00 
01700     A4 00 9B 00 
01704     92 00 8A 00 |                  word  206 , 195 , 184 , 174 , 164 , 155 , 146 , 138 , 130 , 123 , 116 , 109
01708     82 00 7B 00 
0170c     74 00 6D 00 | 	byte	$82, $00, $7b, $00, $74, $00, $6d, $00
01710     34 03 06 03 
01714     DA 02 B1 02 
01718     8B 02 66 02 
0171c     44 02 23 02 |                  word  820 , 774 , 730 , 689 , 651 , 614 , 580 , 547 , 516 , 487 , 460 , 434
01720     04 02 E7 01 
01724     CC 01 B2 01 | 	byte	$04, $02, $e7, $01, $cc, $01, $b2, $01
01728     9A 01 83 01 
0172c     6D 01 59 01 
01730     45 01 33 01 
01734     22 01 12 01 |                  word  410 , 387 , 365 , 345 , 325 , 307 , 290 , 274 , 258 , 244 , 230 , 217
01738     02 01 F4 00 
0173c     E6 00 D9 00 | 	byte	$02, $01, $f4, $00, $e6, $00, $d9, $00
01740     CD 00 C1 00 
01744     B7 00 AC 00 
01748     A3 00 9A 00 
0174c     91 00 89 00 |                  word  205 , 193 , 183 , 172 , 163 , 154 , 145 , 137 , 129 , 122 , 115 , 109
01750     81 00 7A 00 
01754     73 00 6D 00 | 	byte	$81, $00, $7a, $00, $73, $00, $6d, $00
01758     2E 03 00 03 
0175c     D5 02 AC 02 
01760     86 02 62 02 
01764     3F 02 1F 02 |                  word  814 , 768 , 725 , 684 , 646 , 610 , 575 , 543 , 513 , 484 , 457 , 431
01768     01 02 E4 01 
0176c     C9 01 AF 01 | 	byte	$01, $02, $e4, $01, $c9, $01, $af, $01
01770     97 01 80 01 
01774     6B 01 56 01 
01778     43 01 31 01 
0177c     20 01 10 01 |                  word  407 , 384 , 363 , 342 , 323 , 305 , 288 , 272 , 256 , 242 , 228 , 216
01780     00 01 F2 00 
01784     E4 00 D8 00 | 	byte	$00, $01, $f2, $00, $e4, $00, $d8, $00
01788     CC 00 C0 00 
0178c     B5 00 AB 00 
01790     A1 00 98 00 
01794     90 00 88 00 |                  word  204 , 192 , 181 , 171 , 161 , 152 , 144 , 136 , 128 , 121 , 114 , 108
01798     80 00 79 00 
0179c     72 00 6C 00 | 	byte	$80, $00, $79, $00, $72, $00, $6c, $00
017a0     8B 03 58 03 
017a4     28 03 FA 02 
017a8     D0 02 A6 02 
017ac     80 02 5C 02 |                  word  907 , 856 , 808 , 762 , 720 , 678 , 640 , 604 , 570 , 538 , 508 , 480
017b0     3A 02 1A 02 
017b4     FC 01 E0 01 | 	byte	$3a, $02, $1a, $02, $fc, $01, $e0, $01
017b8     C5 01 AC 01 
017bc     94 01 7D 01 
017c0     68 01 53 01 
017c4     40 01 2E 01 |                  word  453 , 428 , 404 , 381 , 360 , 339 , 320 , 302 , 285 , 269 , 254 , 240
017c8     1D 01 0D 01 
017cc     FE 00 F0 00 | 	byte	$1d, $01, $0d, $01, $fe, $00, $f0, $00
017d0     E2 00 D6 00 
017d4     CA 00 BE 00 
017d8     B4 00 AA 00 
017dc     A0 00 97 00 |                  word  226 , 214 , 202 , 190 , 180 , 170 , 160 , 151 , 143 , 135 , 127 , 120
017e0     8F 00 87 00 
017e4     7F 00 78 00 | 	byte	$8f, $00, $87, $00, $7f, $00, $78, $00
017e8     84 03 52 03 
017ec     22 03 F5 02 
017f0     CB 02 A3 02 
017f4     7C 02 59 02 |                  word  900 , 850 , 802 , 757 , 715 , 675 , 636 , 601 , 567 , 535 , 505 , 477
017f8     37 02 17 02 
017fc     F9 01 DD 01 | 	byte	$37, $02, $17, $02, $f9, $01, $dd, $01
01800     C2 01 A9 01 
01804     91 01 7B 01 
01808     65 01 51 01 
0180c     3E 01 2C 01 |                  word  450 , 425 , 401 , 379 , 357 , 337 , 318 , 300 , 284 , 268 , 253 , 238
01810     1C 01 0C 01 
01814     FD 00 EE 00 | 	byte	$1c, $01, $0c, $01, $fd, $00, $ee, $00
01818     E1 00 D4 00 
0181c     C8 00 BD 00 
01820     B3 00 A9 00 
01824     9F 00 96 00 |                  word  225 , 212 , 200 , 189 , 179 , 169 , 159 , 150 , 142 , 134 , 126 , 119
01828     8E 00 86 00 
0182c     7E 00 77 00 | 	byte	$8e, $00, $86, $00, $7e, $00, $77, $00
01830     7E 03 4C 03 
01834     1C 03 F0 02 
01838     C5 02 9E 02 
0183c     78 02 55 02 |                  word  894 , 844 , 796 , 752 , 709 , 670 , 632 , 597 , 563 , 532 , 502 , 474
01840     33 02 14 02 
01844     F6 01 DA 01 | 	byte	$33, $02, $14, $02, $f6, $01, $da, $01
01848     BF 01 A6 01 
0184c     8E 01 78 01 
01850     63 01 4F 01 
01854     3C 01 2A 01 |                  word  447 , 422 , 398 , 376 , 355 , 335 , 316 , 298 , 282 , 266 , 251 , 237
01858     1A 01 0A 01 
0185c     FB 00 ED 00 | 	byte	$1a, $01, $0a, $01, $fb, $00, $ed, $00
01860     DF 00 D3 00 
01864     C7 00 BC 00 
01868     B1 00 A7 00 
0186c     9E 00 95 00 |                  word  223 , 211 , 199 , 188 , 177 , 167 , 158 , 149 , 141 , 133 , 125 , 118
01870     8D 00 85 00 
01874     7D 00 76 00 | 	byte	$8d, $00, $85, $00, $7d, $00, $76, $00
01878     77 03 46 03 
0187c     17 03 EA 02 
01880     C0 02 99 02 
01884     74 02 50 02 |                  word  887 , 838 , 791 , 746 , 704 , 665 , 628 , 592 , 559 , 528 , 498 , 470
01888     2F 02 10 02 
0188c     F2 01 D6 01 | 	byte	$2f, $02, $10, $02, $f2, $01, $d6, $01
01890     BC 01 A3 01 
01894     8B 01 75 01 
01898     60 01 4C 01 
0189c     3A 01 28 01 |                  word  444 , 419 , 395 , 373 , 352 , 332 , 314 , 296 , 280 , 264 , 249 , 235
018a0     18 01 08 01 
018a4     F9 00 EB 00 | 	byte	$18, $01, $08, $01, $f9, $00, $eb, $00
018a8     DE 00 D1 00 
018ac     C6 00 BB 00 
018b0     B0 00 A6 00 
018b4     9D 00 94 00 |                  word  222 , 209 , 198 , 187 , 176 , 166 , 157 , 148 , 140 , 132 , 125 , 118
018b8     8C 00 84 00 
018bc     7D 00 76 00 | 	byte	$8c, $00, $84, $00, $7d, $00, $76, $00
018c0     71 03 40 03 
018c4     11 03 E5 02 
018c8     BB 02 94 02 
018cc     6F 02 4C 02 |                  word  881 , 832 , 785 , 741 , 699 , 660 , 623 , 588 , 555 , 524 , 494 , 467
018d0     2B 02 0C 02 
018d4     EE 01 D3 01 | 	byte	$2b, $02, $0c, $02, $ee, $01, $d3, $01
018d8     B9 01 A0 01 
018dc     88 01 72 01 
018e0     5E 01 4A 01 
018e4     38 01 26 01 |                  word  441 , 416 , 392 , 370 , 350 , 330 , 312 , 294 , 278 , 262 , 247 , 233
018e8     16 01 06 01 
018ec     F7 00 E9 00 | 	byte	$16, $01, $06, $01, $f7, $00, $e9, $00
018f0     DC 00 D0 00 
018f4     C4 00 B9 00 
018f8     AF 00 A5 00 
018fc     9C 00 93 00 |                  word  220 , 208 , 196 , 185 , 175 , 165 , 156 , 147 , 139 , 131 , 123 , 117
01900     8B 00 83 00 
01904     7B 00 75 00 | 	byte	$8b, $00, $83, $00, $7b, $00, $75, $00
01908     6B 03 3A 03 
0190c     0B 03 E0 02 
01910     B6 02 8F 02 
01914     6B 02 48 02 |                  word  875 , 826 , 779 , 736 , 694 , 655 , 619 , 584 , 551 , 520 , 491 , 463
01918     27 02 08 02 
0191c     EB 01 CF 01 | 	byte	$27, $02, $08, $02, $eb, $01, $cf, $01
01920     B5 01 9D 01 
01924     86 01 70 01 
01928     5B 01 48 01 
0192c     35 01 24 01 |                  word  437 , 413 , 390 , 368 , 347 , 328 , 309 , 292 , 276 , 260 , 245 , 232
01930     14 01 04 01 
01934     F5 00 E8 00 | 	byte	$14, $01, $04, $01, $f5, $00, $e8, $00
01938     DB 00 CE 00 
0193c     C3 00 B8 00 
01940     AE 00 A4 00 
01944     9B 00 92 00 |                  word  219 , 206 , 195 , 184 , 174 , 164 , 155 , 146 , 138 , 130 , 123 , 116
01948     8A 00 82 00 
0194c     7B 00 74 00 | 	byte	$8a, $00, $82, $00, $7b, $00, $74, $00
01950     64 03 34 03 
01954     06 03 DA 02 
01958     B1 02 8B 02 
0195c     66 02 44 02 |                  word  868 , 820 , 774 , 730 , 689 , 651 , 614 , 580 , 547 , 516 , 487 , 460
01960     23 02 04 02 
01964     E7 01 CC 01 | 	byte	$23, $02, $04, $02, $e7, $01, $cc, $01
01968     B2 01 9A 01 
0196c     83 01 6D 01 
01970     59 01 45 01 
01974     33 01 22 01 |                  word  434 , 410 , 387 , 365 , 345 , 325 , 307 , 290 , 274 , 258 , 244 , 230
01978     12 01 02 01 
0197c     F4 00 E6 00 | 	byte	$12, $01, $02, $01, $f4, $00, $e6, $00
01980     D9 00 CD 00 
01984     C1 00 B7 00 
01988     AC 00 A3 00 
0198c     9A 00 91 00 |                  word  217 , 205 , 193 , 183 , 172 , 163 , 154 , 145 , 137 , 129 , 122 , 115
01990     89 00 81 00 
01994     7A 00 73 00 | 	byte	$89, $00, $81, $00, $7a, $00, $73, $00
01998     5E 03 2E 03 
0199c     00 03 D5 02 
019a0     AC 02 86 02 
019a4     62 02 3F 02 |                  word  862 , 814 , 768 , 725 , 684 , 646 , 610 , 575 , 543 , 513 , 484 , 457
019a8     1F 02 01 02 
019ac     E4 01 C9 01 | 	byte	$1f, $02, $01, $02, $e4, $01, $c9, $01
019b0     AF 01 97 01 
019b4     80 01 6B 01 
019b8     56 01 43 01 
019bc     31 01 20 01 |                  word  431 , 407 , 384 , 363 , 342 , 323 , 305 , 288 , 272 , 256 , 242 , 228
019c0     10 01 00 01 
019c4     F2 00 E4 00 | 	byte	$10, $01, $00, $01, $f2, $00, $e4, $00
019c8     D8 00 CB 00 
019cc     C0 00 B5 00 
019d0     AB 00 A1 00 
019d4     98 00 90 00 |                  word  216 , 203 , 192 , 181 , 171 , 161 , 152 , 144 , 136 , 128 , 121 , 114
019d8     88 00 80 00 
019dc     79 00 72 00 | 	byte	$88, $00, $80, $00, $79, $00, $72, $00
019e0                 | objmem
019e0     00 00 00 00 | 	long	0[1]
019e4 0df             | 	org	COG_BSS_START
019e4 0df             | _var01
019e4 0df             | 	res	1
019e4 0e0             | _var02
019e4 0e0             | 	res	1
019e4 0e1             | arg01
019e4 0e1             | 	res	1
019e4 0e2             | arg02
019e4 0e2             | 	res	1
019e4 0e3             | arg03
019e4 0e3             | 	res	1
019e4 0e4             | arg04
019e4 0e4             | 	res	1
019e4 0e5             | arg05
019e4 0e5             | 	res	1
019e4 0e6             | local01
019e4 0e6             | 	res	1
019e4 0e7             | local02
019e4 0e7             | 	res	1
019e4 0e8             | local03
019e4 0e8             | 	res	1
019e4 0e9             | local04
019e4 0e9             | 	res	1
019e4 0ea             | local05
019e4 0ea             | 	res	1
019e4 0eb             | local06
019e4 0eb             | 	res	1
019e4 0ec             | local07
019e4 0ec             | 	res	1
019e4 0ed             | local08
019e4 0ed             | 	res	1
019e4 0ee             | local09
019e4 0ee             | 	res	1
019e4 0ef             | muldiva_
019e4 0ef             | 	res	1
019e4 0f0             | muldivb_
019e4 0f0             | 	res	1
019e4 0f1             | 	fit	480
019e4 0f1             | 
