00000                 | 
00000                 | #line 1 "D:/programowanie/20211226-P2-retromachine/Propeller/audio004.p2asm"
00000                 | con
00000                 | 	left = 14
00000                 | '     right=15
00000                 | 	right = 15
00000                 | ' 
00000                 | '     freql=440
00000                 | 	freql = 440
00000                 | '     freqr=440
00000                 | 	freqr = 440
00000                 | ' 
00000                 | ' c4=262
00000                 | 	c4 = 262
00000                 | ' d4=294
00000                 | 	d4 = 294
00000                 | ' e4=330
00000                 | 	e4 = 330
00000                 | ' f4=349
00000                 | 	f4 = 349
00000                 | ' g4=392
00000                 | 	g4 = 392
00000                 | ' a4=440
00000                 | 	a4 = 440
00000                 | ' h4=494
00000                 | 	h4 = 494
00000                 | 	_clkfreq = 319220550
00000                 | dat
00000 000 00 00 00 00 | 	nop
00004 001 01 EC 63 FD | 	cogid	pa
00008 002 02 00 00 FF 
0000c 003 04 EC E7 FC | 	coginit	pa,##$404
00010                 | 	orgh	$10
00010     00 00 00 00 | 	long	0	'reserved
00014     00 00 00 00 | 	long	0 ' clock frequency: will default to 319215798
00018     00 00 00 00 | 	long	0 ' clock mode: will default to $1cb2dfb
0001c     00 00 00 00 
      ...             
003f8     00 00 00 00 
003fc     00 00 00 00 | 	orgh	$400
00400     00 E6 04 06 |  _ret_	mov	result1, #0
00404 000             | 	org	0
00404 000             | entry
00404 000 00 F0 0F F2 | 	cmp	ptra, #0 wz
00408 001 8C 00 90 5D |  if_ne	jmp	#spininit
0040c 002 72 F0 03 F6 | 	mov	ptra, ptr_stackspace_
00410 003 14 EC 0F FB | 	rdlong	pa, #20 wz
00414 004 6C 00 90 5D |  if_ne	jmp	#skip_clock_set_
00418 005 00 00 64 FD | 	hubset	#0
0041c 006 96 E5 80 FF 
00420 007 00 F0 67 FD | 	hubset	##30092792
00424 008 86 01 80 FF 
00428 009 1F 80 66 FD | 	waitx	##200000
0042c 00a 96 E5 00 FF 
00430 00b FB ED 07 F6 | 	mov	pa, ##30092795
00434 00c 00 EC 63 FD | 	hubset	pa
00438 00d 18 EC 67 FC | 	wrlong	pa, #24
0043c 00e 6C 83 89 FF 
00440 00f 14 6C 6D FC | 	wrlong	##319215798, #20
00444 010 3C 00 90 FD | 	jmp	#skip_clock_set_
00448 011 00 00 00 00 
      ...             
0047c 01e 00 00 00 00 
00480 01f 00 00 00 00 | 	orgf	32
00484 020             | skip_clock_set_
00484 020 D4 05 A0 FD | 	call	#_test
00488 021             | cogexit
00488 021 38 01 80 FF 
0048c 022 1F 00 66 FD | 	waitx	##160000
00490 023 01 EE 60 FD | 	cogid	arg01
00494 024 03 EE 60 FD | 	cogstop	arg01
00498 025             | spininit
00498 025 00 DF 04 FB | 	rdlong	objptr, ptra
0049c 026 04 F0 07 F1 | 	add	ptra, #4
004a0 027 00 E7 04 FB | 	rdlong	result1, ptra
004a4 028 04 F0 07 F1 | 	add	ptra, #4
004a8 029 00 EF 04 FB | 	rdlong	arg01, ptra
004ac 02a 04 F0 07 F1 | 	add	ptra, #4
004b0 02b 00 F1 04 FB | 	rdlong	arg02, ptra
004b4 02c 04 F0 07 F1 | 	add	ptra, #4
004b8 02d 00 F3 04 FB | 	rdlong	arg03, ptra
004bc 02e 04 F0 07 F1 | 	add	ptra, #4
004c0 02f 00 F5 04 FB | 	rdlong	arg04, ptra
004c4 030 10 F0 87 F1 | 	sub	ptra, #16
004c8 031 2D E6 60 FD | 	call	result1
004cc 032 B8 FF 9F FD | 	jmp	#cogexit
004d0 033             | builtin_bytefill_
004d0 033 01 F2 54 F0 |         shr	arg03, #1 wc
004d4 034 77 F0 40 CC |  if_c   wrbyte	arg02, arg01
004d8 035 01 EE 04 C1 |  if_c   add	arg01, #1
004dc 036 00 F0 FC F9 |         movbyts	arg02, #0
004e0 037             | builtin_wordfill_
004e0 037 01 F2 54 F0 |         shr	arg03, #1 wc
004e4 038 77 F0 50 CC |  if_c   wrword	arg02, arg01
004e8 039 02 EE 04 C1 |  if_c   add	arg01, #2
004ec 03a 78 F0 28 F9 |         setword	arg02, arg02, #1
004f0 03b             | builtin_longfill_
004f0 03b 77 00 88 FC |         wrfast	#0,arg01
004f4 03c 00 F2 0C F2 |         cmp	arg03, #0 wz
004f8 03d 79 02 D8 5C |  if_nz  rep	#1, arg03
004fc 03e 17 F0 60 5D |  if_nz  wflong	arg02
00500 03f 2D 00 64 FD |         ret
00504 040             | COUNT_
00504 040 00 00 00 00 |     long 0
00508 041             | RETADDR_
00508 041 00 00 00 00 |     long 0
0050c 042             | fp
0050c 042 00 00 00 00 |     long 0
00510 043             | pushregs_
00510 043 2B EC 63 FD |     pop  pa
00514 044 2B 82 60 FD |     pop  RETADDR_
00518 045 04 80 94 FB |     tjz  COUNT_, #pushregs_done_
0051c 046 01 80 84 F1 |     sub  COUNT_, #1
00520 047 28 80 60 FD |     setq COUNT_
00524 048 00 F7 64 FC |     wrlong local01, ptra
00528 049 01 80 04 F1 |     add  COUNT_, #1
0052c 04a             | pushregs_done_
0052c 04a 02 80 64 F0 |     shl  COUNT_, #2
00530 04b 40 F0 03 F1 |     add  ptra, COUNT_
00534 04c 02 80 44 F0 |     shr  COUNT_, #2
00538 04d 28 04 64 FD |     setq #2 ' push 3 registers starting at COUNT_
0053c 04e 00 81 64 FC |     wrlong COUNT_, ptra
00540 04f 0C F0 07 F1 |     add    ptra, #12
00544 050 F8 85 00 F6 |     mov    fp, ptra
00548 051 2C EC 63 FD |     jmp  pa
0054c 052             |  popregs_
0054c 052 2B EC 63 FD |     pop    pa
00550 053 0C F0 87 F1 |     sub    ptra, #12
00554 054 28 04 64 FD |     setq   #2
00558 055 00 81 04 FB |     rdlong COUNT_, ptra
0055c 056 06 80 94 FB |     tjz    COUNT_, #popregs__ret
00560 057 02 80 64 F0 |     shl    COUNT_, #2
00564 058 40 F0 83 F1 |     sub    ptra, COUNT_
00568 059 02 80 44 F0 |     shr    COUNT_, #2
0056c 05a 01 80 84 F1 |     sub    COUNT_, #1
00570 05b 28 80 60 FD |     setq   COUNT_
00574 05c 00 F7 04 FB |     rdlong local01, ptra
00578 05d             | popregs__ret
00578 05d 2A 82 60 FD |     push   RETADDR_
0057c 05e 2C EC 63 FD |     jmp    pa
00580 05f             | 
00580 05f             | unsdivide_
00580 05f 28 00 64 FD |        setq    #0
00584 060 83 04 11 FD |        qdiv    muldiva_, muldivb_
00588 061 18 06 61 FD |        getqx   muldivb_
0058c 062 19 04 61 0D |  _ret_ getqy   muldiva_
00590 063             | 
00590 063             | divide_
00590 063 82 04 51 F6 |        abs     muldiva_,muldiva_     wc       'abs(x)
00594 064 03 DC 84 F5 |        muxc    itmp2_,#%11                    'store sign of x
00598 065 83 06 59 F6 |        abs     muldivb_,muldivb_     wcz      'abs(y)
0059c 066 02 DC 64 C5 |  if_c  xor     itmp2_,#%10                    'store sign of y
005a0 067 2D 00 64 AD |  if_z  ret
005a4 068 D8 FF BF FD |        call    #unsdivide_
005a8 069 01 DC D4 F7 |        test    itmp2_,#1        wc       'restore sign, remainder
005ac 06a 82 04 81 F6 |        negc    muldiva_,muldiva_ 
005b0 06b 02 DC D4 F7 |        test    itmp2_,#%10      wc       'restore sign, division result
005b4 06c 83 06 81 06 |  _ret_ negc    muldivb_,muldivb_
005b8 06d             | 
005b8 06d             | itmp1_
005b8 06d 00 00 00 00 | 	long	0
005bc 06e             | itmp2_
005bc 06e 00 00 00 00 | 	long	0
005c0 06f             | objptr
005c0 06f A4 8B 00 00 | 	long	@objmem
005c4 070             | ptr___system__dat__
005c4 070 8C 8B 00 00 | 	long	@__system__dat_
005c8 071             | ptr__dat__
005c8 071 04 0D 00 00 | 	long	@_dat_
005cc 072             | ptr_stackspace_
005cc 072 C4 8C 00 00 | 	long	@stackspace
005d0 073             | result1
005d0 073 00 00 00 00 | 	long	0
005d4 074             | COG_BSS_START
005d4 074             | 	fit	480
005d4                 | 	orgh
005d4                 | hubentry
005d4                 | 
005d4                 | ' 
005d4                 | ' 
005d4                 | ' 
005d4                 | ' 
005d4                 | ' pub test
005d4                 | _test
005d4     02 80 04 F6 | 	mov	COUNT_, #2
005d8     43 00 A0 FD | 	call	#pushregs_
005dc                 | ' 
005dc                 | ' start()
005dc     38 04 B0 FD | 	call	#_start
005e0                 | ' repeat
005e0                 | LR__0001
005e0                 | '   waitms(5000)
005e0     09 00 00 FF 
005e4     88 F7 04 F6 | 	mov	local01, ##5000
005e8     7B EE 00 F6 | 	mov	arg01, local01
005ec     04 06 B0 FD | 	call	#__system___waitms
005f0     EC FF 9F FD | 	jmp	#LR__0001
005f4                 | ' waitms(5000)
005f4     09 00 00 FF 
005f8     88 F7 04 F6 | 	mov	local01, ##5000
005fc     7B EE 00 F6 | 	mov	arg01, local01
00600     F0 05 B0 FD | 	call	#__system___waitms
00604                 | ' waitms(5000)
00604     09 00 00 FF 
00608     88 F7 04 F6 | 	mov	local01, ##5000
0060c     7B EE 00 F6 | 	mov	arg01, local01
00610     E0 05 B0 FD | 	call	#__system___waitms
00614                 | ' waitms(5000)
00614     09 00 00 FF 
00618     88 F7 04 F6 | 	mov	local01, ##5000
0061c     7B EE 00 F6 | 	mov	arg01, local01
00620     D0 05 B0 FD | 	call	#__system___waitms
00624                 | ' waitms(5000)
00624     09 00 00 FF 
00628     88 F7 04 F6 | 	mov	local01, ##5000
0062c     7B EE 00 F6 | 	mov	arg01, local01
00630     C0 05 B0 FD | 	call	#__system___waitms
00634                 | ' 
00634                 | ' samplestart:=@synvox+16
00634     09 00 00 FF 
00638     B0 E3 04 F1 | 	add	ptr__dat__, ##5040
0063c     71 F8 00 F6 | 	mov	local02, ptr__dat__
00640     09 00 00 FF 
00644     B0 E3 84 F1 | 	sub	ptr__dat__, ##5040
00648     7C F6 00 F6 | 	mov	local01, local02
0064c     10 F6 04 F1 | 	add	local01, #16
00650     6F F6 60 FC | 	wrlong	local01, objptr
00654                 | ' sampletype:=1
00654     01 F6 04 F6 | 	mov	local01, #1
00658     04 DE 04 F1 | 	add	objptr, #4
0065c     6F F6 60 FC | 	wrlong	local01, objptr
00660     04 DE 84 F1 | 	sub	objptr, #4
00664                 | ' loopstart:=27299
00664     35 00 00 FF 
00668     A3 F6 04 F6 | 	mov	local01, ##27299
0066c     08 DE 04 F1 | 	add	objptr, #8
00670     6F F6 60 FC | 	wrlong	local01, objptr
00674     08 DE 84 F1 | 	sub	objptr, #8
00678                 | ' loopend:=27300
00678     35 00 00 FF 
0067c     A4 F6 04 F6 | 	mov	local01, ##27300
00680     0C DE 04 F1 | 	add	objptr, #12
00684     6F F6 60 FC | 	wrlong	local01, objptr
00688     0C DE 84 F1 | 	sub	objptr, #12
0068c                 | ' volume:=16384
0068c     20 00 00 FF 
00690     00 F6 04 F6 | 	mov	local01, ##16384
00694     10 DE 04 F1 | 	add	objptr, #16
00698     6F F6 60 FC | 	wrlong	local01, objptr
0069c     10 DE 84 F1 | 	sub	objptr, #16
006a0                 | ' pan:=8192
006a0     10 00 00 FF 
006a4     00 F6 04 F6 | 	mov	local01, ##8192
006a8     14 DE 04 F1 | 	add	objptr, #20
006ac     6F F6 60 FC | 	wrlong	local01, objptr
006b0     14 DE 84 F1 | 	sub	objptr, #20
006b4                 | ' synthfreq:=300
006b4     2C F7 04 F6 | 	mov	local01, #300
006b8     18 DE 04 F1 | 	add	objptr, #24
006bc     6F F6 60 FC | 	wrlong	local01, objptr
006c0     18 DE 84 F1 | 	sub	objptr, #24
006c4                 | ' skip:=1
006c4     01 F6 04 F6 | 	mov	local01, #1
006c8     1C DE 04 F1 | 	add	objptr, #28
006cc     6F F6 60 FC | 	wrlong	local01, objptr
006d0     1C DE 84 F1 | 	sub	objptr, #28
006d4                 | ' cmd:=0
006d4     00 F6 04 F6 | 	mov	local01, #0
006d8     20 DE 04 F1 | 	add	objptr, #32
006dc     6F F6 60 FC | 	wrlong	local01, objptr
006e0     20 DE 84 F1 | 	sub	objptr, #32
006e4                 | ' waitus(10)
006e4     0A F6 04 F6 | 	mov	local01, #10
006e8     7B EE 00 F6 | 	mov	arg01, local01
006ec     A8 05 B0 FD | 	call	#__system___waitus
006f0                 | ' cmd:=1
006f0     01 F6 04 F6 | 	mov	local01, #1
006f4     20 DE 04 F1 | 	add	objptr, #32
006f8     6F F6 60 FC | 	wrlong	local01, objptr
006fc     20 DE 84 F1 | 	sub	objptr, #32
00700                 | ' 
00700                 | ' 
00700                 | ' waitms(5000)
00700     09 00 00 FF 
00704     88 F7 04 F6 | 	mov	local01, ##5000
00708     7B EE 00 F6 | 	mov	arg01, local01
0070c     E4 04 B0 FD | 	call	#__system___waitms
00710                 | ' repeat
00710                 | LR__0002
00710                 | '  play(c4)
00710     06 F7 04 F6 | 	mov	local01, #262
00714     7B EE 00 F6 | 	mov	arg01, local01
00718     BC 01 B0 FD | 	call	#_play
0071c                 | '  waitms(500)
0071c     F4 F7 04 F6 | 	mov	local01, #500
00720     7B EE 00 F6 | 	mov	arg01, local01
00724     CC 04 B0 FD | 	call	#__system___waitms
00728                 | '  play(d4)
00728     26 F7 04 F6 | 	mov	local01, #294
0072c     7B EE 00 F6 | 	mov	arg01, local01
00730     A4 01 B0 FD | 	call	#_play
00734                 | '  waitms(500)
00734     F4 F7 04 F6 | 	mov	local01, #500
00738     7B EE 00 F6 | 	mov	arg01, local01
0073c     B4 04 B0 FD | 	call	#__system___waitms
00740                 | '  play(e4)
00740     4A F7 04 F6 | 	mov	local01, #330
00744     7B EE 00 F6 | 	mov	arg01, local01
00748     8C 01 B0 FD | 	call	#_play
0074c                 | '  waitms(500)
0074c     F4 F7 04 F6 | 	mov	local01, #500
00750     7B EE 00 F6 | 	mov	arg01, local01
00754     9C 04 B0 FD | 	call	#__system___waitms
00758                 | '  play(f4)
00758     5D F7 04 F6 | 	mov	local01, #349
0075c     7B EE 00 F6 | 	mov	arg01, local01
00760     74 01 B0 FD | 	call	#_play
00764                 | '  waitms(500)
00764     F4 F7 04 F6 | 	mov	local01, #500
00768     7B EE 00 F6 | 	mov	arg01, local01
0076c     84 04 B0 FD | 	call	#__system___waitms
00770                 | '  play(g4)
00770     88 F7 04 F6 | 	mov	local01, #392
00774     7B EE 00 F6 | 	mov	arg01, local01
00778     5C 01 B0 FD | 	call	#_play
0077c                 | '  waitms(500)
0077c     F4 F7 04 F6 | 	mov	local01, #500
00780     7B EE 00 F6 | 	mov	arg01, local01
00784     6C 04 B0 FD | 	call	#__system___waitms
00788                 | '  play(a4)
00788     B8 F7 04 F6 | 	mov	local01, #440
0078c     7B EE 00 F6 | 	mov	arg01, local01
00790     44 01 B0 FD | 	call	#_play
00794                 | '  waitms(500)
00794     F4 F7 04 F6 | 	mov	local01, #500
00798     7B EE 00 F6 | 	mov	arg01, local01
0079c     54 04 B0 FD | 	call	#__system___waitms
007a0                 | '  play(h4)
007a0     EE F7 04 F6 | 	mov	local01, #494
007a4     7B EE 00 F6 | 	mov	arg01, local01
007a8     2C 01 B0 FD | 	call	#_play
007ac                 | '  waitms(500)
007ac     F4 F7 04 F6 | 	mov	local01, #500
007b0     7B EE 00 F6 | 	mov	arg01, local01
007b4     3C 04 B0 FD | 	call	#__system___waitms
007b8                 | '  play(2*c4)
007b8     01 00 00 FF 
007bc     0C F6 04 F6 | 	mov	local01, ##524
007c0     7B EE 00 F6 | 	mov	arg01, local01
007c4     10 01 B0 FD | 	call	#_play
007c8                 | '  waitms(500)
007c8     F4 F7 04 F6 | 	mov	local01, #500
007cc     7B EE 00 F6 | 	mov	arg01, local01
007d0     20 04 B0 FD | 	call	#__system___waitms
007d4                 | '  play(5)
007d4     05 F6 04 F6 | 	mov	local01, #5
007d8     7B EE 00 F6 | 	mov	arg01, local01
007dc     F8 00 B0 FD | 	call	#_play
007e0                 | '  waitms(500)
007e0     F4 F7 04 F6 | 	mov	local01, #500
007e4     7B EE 00 F6 | 	mov	arg01, local01
007e8     08 04 B0 FD | 	call	#__system___waitms
007ec                 | '  play(2*c4)
007ec     01 00 00 FF 
007f0     0C F6 04 F6 | 	mov	local01, ##524
007f4     7B EE 00 F6 | 	mov	arg01, local01
007f8     DC 00 B0 FD | 	call	#_play
007fc                 | '  waitms(500)
007fc     F4 F7 04 F6 | 	mov	local01, #500
00800     7B EE 00 F6 | 	mov	arg01, local01
00804     EC 03 B0 FD | 	call	#__system___waitms
00808                 | '  play(h4)
00808     EE F7 04 F6 | 	mov	local01, #494
0080c     7B EE 00 F6 | 	mov	arg01, local01
00810     C4 00 B0 FD | 	call	#_play
00814                 | '  waitms(500)
00814     F4 F7 04 F6 | 	mov	local01, #500
00818     7B EE 00 F6 | 	mov	arg01, local01
0081c     D4 03 B0 FD | 	call	#__system___waitms
00820                 | '  play(a4)
00820     B8 F7 04 F6 | 	mov	local01, #440
00824     7B EE 00 F6 | 	mov	arg01, local01
00828     AC 00 B0 FD | 	call	#_play
0082c                 | '  waitms(500)
0082c     F4 F7 04 F6 | 	mov	local01, #500
00830     7B EE 00 F6 | 	mov	arg01, local01
00834     BC 03 B0 FD | 	call	#__system___waitms
00838                 | '  play(g4)
00838     88 F7 04 F6 | 	mov	local01, #392
0083c     7B EE 00 F6 | 	mov	arg01, local01
00840     94 00 B0 FD | 	call	#_play
00844                 | '  waitms(500)
00844     F4 F7 04 F6 | 	mov	local01, #500
00848     7B EE 00 F6 | 	mov	arg01, local01
0084c     A4 03 B0 FD | 	call	#__system___waitms
00850                 | '  play(f4)
00850     5D F7 04 F6 | 	mov	local01, #349
00854     7B EE 00 F6 | 	mov	arg01, local01
00858     7C 00 B0 FD | 	call	#_play
0085c                 | '  waitms(500)
0085c     F4 F7 04 F6 | 	mov	local01, #500
00860     7B EE 00 F6 | 	mov	arg01, local01
00864     8C 03 B0 FD | 	call	#__system___waitms
00868                 | '  play(e4)
00868     4A F7 04 F6 | 	mov	local01, #330
0086c     7B EE 00 F6 | 	mov	arg01, local01
00870     64 00 B0 FD | 	call	#_play
00874                 | '  waitms(500)
00874     F4 F7 04 F6 | 	mov	local01, #500
00878     7B EE 00 F6 | 	mov	arg01, local01
0087c     74 03 B0 FD | 	call	#__system___waitms
00880                 | '  play(d4)
00880     26 F7 04 F6 | 	mov	local01, #294
00884     7B EE 00 F6 | 	mov	arg01, local01
00888     4C 00 B0 FD | 	call	#_play
0088c                 | '  waitms(500)
0088c     F4 F7 04 F6 | 	mov	local01, #500
00890     7B EE 00 F6 | 	mov	arg01, local01
00894     5C 03 B0 FD | 	call	#__system___waitms
00898                 | '  play(c4)
00898     06 F7 04 F6 | 	mov	local01, #262
0089c     7B EE 00 F6 | 	mov	arg01, local01
008a0     34 00 B0 FD | 	call	#_play
008a4                 | '  waitms(500)
008a4     F4 F7 04 F6 | 	mov	local01, #500
008a8     7B EE 00 F6 | 	mov	arg01, local01
008ac     44 03 B0 FD | 	call	#__system___waitms
008b0                 | '  play(5)
008b0     05 F6 04 F6 | 	mov	local01, #5
008b4     7B EE 00 F6 | 	mov	arg01, local01
008b8     1C 00 B0 FD | 	call	#_play
008bc                 | '  waitms(500)
008bc     F4 F7 04 F6 | 	mov	local01, #500
008c0     7B EE 00 F6 | 	mov	arg01, local01
008c4     2C 03 B0 FD | 	call	#__system___waitms
008c8     44 FE 9F FD | 	jmp	#LR__0002
008cc     42 F0 03 F6 | 	mov	ptra, fp
008d0     52 00 A0 FD | 	call	#popregs_
008d4                 | _test_ret
008d4     2D 00 64 FD | 	ret
008d8                 | 
008d8                 | ' 
008d8                 | ' pub play(ff) |ilss,ss,ssf
008d8                 | _play
008d8     07 80 04 F6 | 	mov	COUNT_, #7
008dc     43 00 A0 FD | 	call	#pushregs_
008e0     77 F6 00 F6 | 	mov	local01, arg01
008e4                 | ' 
008e4                 | ' 'keep ssf over 50
008e4                 | ' 
008e4                 | ' ilss:=20000/ff
008e4     27 00 00 FF 
008e8     20 04 05 F6 | 	mov	muldiva_, ##20000
008ec     7B 06 01 F6 | 	mov	muldivb_, local01
008f0     63 00 A0 FD | 	call	#divide_
008f4     83 F8 00 F6 | 	mov	local02, muldivb_
008f8     7C FA 00 F6 | 	mov	local03, local02
008fc                 | ' ss:=2*(1024/ilss)
008fc     02 00 00 FF 
00900     00 04 05 F6 | 	mov	muldiva_, ##1024
00904     7D 06 01 F6 | 	mov	muldivb_, local03
00908     63 00 A0 FD | 	call	#divide_
0090c     83 F8 00 F6 | 	mov	local02, muldivb_
00910     7C FC 00 F6 | 	mov	local04, local02
00914     01 FC 64 F0 | 	shl	local04, #1
00918     7E FE 00 F6 | 	mov	local05, local04
0091c                 | ' if ss<2
0091c     02 FE 5C F2 | 	cmps	local05, #2 wcz
00920     04 00 90 3D |  if_ae	jmp	#LR__0003
00924                 | '   ss:=2
00924     02 FE 04 F6 | 	mov	local05, #2
00928                 | LR__0003
00928                 | ' ssf:=(ss*3568945)/(ff*2048)
00928     3A 1B 00 FF 
0092c     31 FF 04 FD | 	qmul	local05, ##3568945
00930     18 F8 60 FD | 	getqx	local02
00934     7B FC 00 F6 | 	mov	local04, local01
00938     0B FC 64 F0 | 	shl	local04, #11
0093c     7C 04 01 F6 | 	mov	muldiva_, local02
00940     7E 06 01 F6 | 	mov	muldivb_, local04
00944     63 00 A0 FD | 	call	#divide_
00948     83 00 01 F6 | 	mov	local06, muldivb_
0094c     80 02 01 F6 | 	mov	local07, local06
00950                 | ' 'debug(udec(ssf))
00950                 | ' 'debug(udec(ilss))
00950                 | ' 'debug(udec(ss))
00950                 | ' 
00950                 | ' samplestart:=@sinewave+16
00950     01 00 00 FF 
00954     90 E3 04 F1 | 	add	ptr__dat__, ##912
00958     71 FC 00 F6 | 	mov	local04, ptr__dat__
0095c     01 00 00 FF 
00960     90 E3 84 F1 | 	sub	ptr__dat__, ##912
00964     7E F8 00 F6 | 	mov	local02, local04
00968     10 F8 04 F1 | 	add	local02, #16
0096c     6F F8 60 FC | 	wrlong	local02, objptr
00970                 | ' sampletype:=0
00970     00 F8 04 F6 | 	mov	local02, #0
00974     04 DE 04 F1 | 	add	objptr, #4
00978     6F F8 60 FC | 	wrlong	local02, objptr
0097c     04 DE 84 F1 | 	sub	objptr, #4
00980                 | ' loopstart:=0
00980     00 F8 04 F6 | 	mov	local02, #0
00984     08 DE 04 F1 | 	add	objptr, #8
00988     6F F8 60 FC | 	wrlong	local02, objptr
0098c     08 DE 84 F1 | 	sub	objptr, #8
00990                 | ' loopend:=2048
00990     04 00 00 FF 
00994     00 F8 04 F6 | 	mov	local02, ##2048
00998     0C DE 04 F1 | 	add	objptr, #12
0099c     6F F8 60 FC | 	wrlong	local02, objptr
009a0     0C DE 84 F1 | 	sub	objptr, #12
009a4                 | ' volume:=16384
009a4     20 00 00 FF 
009a8     00 F8 04 F6 | 	mov	local02, ##16384
009ac     10 DE 04 F1 | 	add	objptr, #16
009b0     6F F8 60 FC | 	wrlong	local02, objptr
009b4     10 DE 84 F1 | 	sub	objptr, #16
009b8                 | ' pan:=0
009b8     00 F8 04 F6 | 	mov	local02, #0
009bc     14 DE 04 F1 | 	add	objptr, #20
009c0     6F F8 60 FC | 	wrlong	local02, objptr
009c4     14 DE 84 F1 | 	sub	objptr, #20
009c8                 | ' synthfreq:= ssf
009c8     18 DE 04 F1 | 	add	objptr, #24
009cc     6F 02 61 FC | 	wrlong	local07, objptr
009d0     18 DE 84 F1 | 	sub	objptr, #24
009d4                 | ' skip:= ss
009d4     1C DE 04 F1 | 	add	objptr, #28
009d8     6F FE 60 FC | 	wrlong	local05, objptr
009dc     1C DE 84 F1 | 	sub	objptr, #28
009e0                 | ' 
009e0                 | ' cmd:=0
009e0     00 F8 04 F6 | 	mov	local02, #0
009e4     20 DE 04 F1 | 	add	objptr, #32
009e8     6F F8 60 FC | 	wrlong	local02, objptr
009ec     20 DE 84 F1 | 	sub	objptr, #32
009f0                 | ' waitus(10)
009f0     0A F8 04 F6 | 	mov	local02, #10
009f4     7C EE 00 F6 | 	mov	arg01, local02
009f8     9C 02 B0 FD | 	call	#__system___waitus
009fc                 | ' cmd:=1
009fc     01 F8 04 F6 | 	mov	local02, #1
00a00     20 DE 04 F1 | 	add	objptr, #32
00a04     6F F8 60 FC | 	wrlong	local02, objptr
00a08     20 DE 84 F1 | 	sub	objptr, #32
00a0c     42 F0 03 F6 | 	mov	ptra, fp
00a10     52 00 A0 FD | 	call	#popregs_
00a14                 | _play_ret
00a14     2D 00 64 FD | 	ret
00a18                 | 
00a18                 | ' 
00a18                 | ' pub start()
00a18                 | _start
00a18     06 80 04 F6 | 	mov	COUNT_, #6
00a1c     43 00 A0 FD | 	call	#pushregs_
00a20                 | ' 
00a20                 | ' 
00a20                 | ' samplestart:=@sinewave
00a20     01 00 00 FF 
00a24     90 E3 04 F1 | 	add	ptr__dat__, ##912
00a28     71 F6 00 F6 | 	mov	local01, ptr__dat__
00a2c     01 00 00 FF 
00a30     90 E3 84 F1 | 	sub	ptr__dat__, ##912
00a34     6F F6 60 FC | 	wrlong	local01, objptr
00a38                 | ' sampletype:=0
00a38     00 F6 04 F6 | 	mov	local01, #0
00a3c     04 DE 04 F1 | 	add	objptr, #4
00a40     6F F6 60 FC | 	wrlong	local01, objptr
00a44     04 DE 84 F1 | 	sub	objptr, #4
00a48                 | ' loopstart:=16
00a48     10 F6 04 F6 | 	mov	local01, #16
00a4c     08 DE 04 F1 | 	add	objptr, #8
00a50     6F F6 60 FC | 	wrlong	local01, objptr
00a54     08 DE 84 F1 | 	sub	objptr, #8
00a58                 | ' loopend:=2048
00a58     04 00 00 FF 
00a5c     00 F6 04 F6 | 	mov	local01, ##2048
00a60     0C DE 04 F1 | 	add	objptr, #12
00a64     6F F6 60 FC | 	wrlong	local01, objptr
00a68     0C DE 84 F1 | 	sub	objptr, #12
00a6c                 | ' volume:=16384
00a6c     20 00 00 FF 
00a70     00 F6 04 F6 | 	mov	local01, ##16384
00a74     10 DE 04 F1 | 	add	objptr, #16
00a78     6F F6 60 FC | 	wrlong	local01, objptr
00a7c     10 DE 84 F1 | 	sub	objptr, #16
00a80                 | ' pan:=16384
00a80     20 00 00 FF 
00a84     00 F6 04 F6 | 	mov	local01, ##16384
00a88     14 DE 04 F1 | 	add	objptr, #20
00a8c     6F F6 60 FC | 	wrlong	local01, objptr
00a90     14 DE 84 F1 | 	sub	objptr, #20
00a94                 | ' synthfreq:=12
00a94     0C F6 04 F6 | 	mov	local01, #12
00a98     18 DE 04 F1 | 	add	objptr, #24
00a9c     6F F6 60 FC | 	wrlong	local01, objptr
00aa0     18 DE 84 F1 | 	sub	objptr, #24
00aa4                 | ' skip:=2
00aa4     02 F6 04 F6 | 	mov	local01, #2
00aa8     1C DE 04 F1 | 	add	objptr, #28
00aac     6F F6 60 FC | 	wrlong	local01, objptr
00ab0     1C DE 84 F1 | 	sub	objptr, #28
00ab4                 | ' cmd:=0
00ab4     00 F6 04 F6 | 	mov	local01, #0
00ab8     20 DE 04 F1 | 	add	objptr, #32
00abc     6F F6 60 FC | 	wrlong	local01, objptr
00ac0     20 DE 84 F1 | 	sub	objptr, #32
00ac4                 | ' 
00ac4                 | ' samplestart2:=@sinewave
00ac4     01 00 00 FF 
00ac8     90 E3 04 F1 | 	add	ptr__dat__, ##912
00acc     71 F6 00 F6 | 	mov	local01, ptr__dat__
00ad0     01 00 00 FF 
00ad4     90 E3 84 F1 | 	sub	ptr__dat__, ##912
00ad8     24 DE 04 F1 | 	add	objptr, #36
00adc     6F F6 60 FC | 	wrlong	local01, objptr
00ae0     24 DE 84 F1 | 	sub	objptr, #36
00ae4                 | ' sampletype2:=0
00ae4     00 F6 04 F6 | 	mov	local01, #0
00ae8     28 DE 04 F1 | 	add	objptr, #40
00aec     6F F6 60 FC | 	wrlong	local01, objptr
00af0     28 DE 84 F1 | 	sub	objptr, #40
00af4                 | ' loopstart2:=16
00af4     10 F6 04 F6 | 	mov	local01, #16
00af8     2C DE 04 F1 | 	add	objptr, #44
00afc     6F F6 60 FC | 	wrlong	local01, objptr
00b00     2C DE 84 F1 | 	sub	objptr, #44
00b04                 | ' loopend2:=2048
00b04     04 00 00 FF 
00b08     00 F6 04 F6 | 	mov	local01, ##2048
00b0c     30 DE 04 F1 | 	add	objptr, #48
00b10     6F F6 60 FC | 	wrlong	local01, objptr
00b14     30 DE 84 F1 | 	sub	objptr, #48
00b18                 | ' volume2:=16384
00b18     20 00 00 FF 
00b1c     00 F6 04 F6 | 	mov	local01, ##16384
00b20     34 DE 04 F1 | 	add	objptr, #52
00b24     6F F6 60 FC | 	wrlong	local01, objptr
00b28     34 DE 84 F1 | 	sub	objptr, #52
00b2c                 | ' pan2:=0
00b2c     00 F6 04 F6 | 	mov	local01, #0
00b30     38 DE 04 F1 | 	add	objptr, #56
00b34     6F F6 60 FC | 	wrlong	local01, objptr
00b38     38 DE 84 F1 | 	sub	objptr, #56
00b3c                 | ' synthfreq2:=19
00b3c     13 F6 04 F6 | 	mov	local01, #19
00b40     3C DE 04 F1 | 	add	objptr, #60
00b44     6F F6 60 FC | 	wrlong	local01, objptr
00b48     3C DE 84 F1 | 	sub	objptr, #60
00b4c                 | ' skip2:=2
00b4c     02 F6 04 F6 | 	mov	local01, #2
00b50     40 DE 04 F1 | 	add	objptr, #64
00b54     6F F6 60 FC | 	wrlong	local01, objptr
00b58     40 DE 84 F1 | 	sub	objptr, #64
00b5c                 | ' cmd2:=0
00b5c     00 F6 04 F6 | 	mov	local01, #0
00b60     44 DE 04 F1 | 	add	objptr, #68
00b64     6F F6 60 FC | 	wrlong	local01, objptr
00b68     44 DE 84 F1 | 	sub	objptr, #68
00b6c                 | ' 
00b6c                 | ' coginit(16,@audio,@samplestart)
00b6c     10 F6 04 F6 | 	mov	local01, #16
00b70     71 F8 00 F6 | 	mov	local02, ptr__dat__
00b74     7C FA 00 F6 | 	mov	local03, local02
00b78     6F FC 00 F6 | 	mov	local04, objptr
00b7c     7E FE 00 F6 | 	mov	local05, local04
00b80     7B EE 00 F6 | 	mov	arg01, local01
00b84     7D F0 00 F6 | 	mov	arg02, local03
00b88     7F F2 00 F6 | 	mov	arg03, local05
00b8c     34 00 B0 FD | 	call	#__system___coginit
00b90     73 00 01 F6 | 	mov	local06, result1
00b94                 | ' 
00b94                 | ' cmd:=1
00b94     01 F6 04 F6 | 	mov	local01, #1
00b98     20 DE 04 F1 | 	add	objptr, #32
00b9c     6F F6 60 FC | 	wrlong	local01, objptr
00ba0     20 DE 84 F1 | 	sub	objptr, #32
00ba4                 | ' cmd2:=1
00ba4     01 F6 04 F6 | 	mov	local01, #1
00ba8     44 DE 04 F1 | 	add	objptr, #68
00bac     6F F6 60 FC | 	wrlong	local01, objptr
00bb0     44 DE 84 F1 | 	sub	objptr, #68
00bb4     42 F0 03 F6 | 	mov	ptra, fp
00bb8     52 00 A0 FD | 	call	#popregs_
00bbc                 | _start_ret
00bbc     2D 00 64 FD | 	ret
00bc0                 | hubexit
00bc0     21 00 80 FD | 	jmp	#cogexit
00bc4                 | 
00bc4                 | __system___coginit
00bc4     77 E8 00 F6 | 	mov	_var01, arg01
00bc8     78 EA 00 F6 | 	mov	_var02, arg02
00bcc     79 EC 00 F6 | 	mov	_var03, arg03
00bd0     28 EC 60 FD | 	setq	_var03
00bd4     75 E8 F0 FC | 	coginit	_var01, _var02 wc
00bd8     01 E8 64 C6 |  if_b	neg	_var01, #1
00bdc     74 E6 00 F6 | 	mov	result1, _var01
00be0     00 00 90 FD | 	jmp	#__system___coginit_ret
00be4                 | __system___coginit_ret
00be4     2D 00 64 FD | 	ret
00be8                 | 
00be8                 | __system___waitx
00be8     77 E8 00 F6 | 	mov	_var01, arg01
00bec     1F E8 60 FD | 	waitx	_var01
00bf0                 | __system___waitx_ret
00bf0     2D 00 64 FD | 	ret
00bf4                 | 
00bf4                 | __system___waitms
00bf4     06 80 04 F6 | 	mov	COUNT_, #6
00bf8     43 00 A0 FD | 	call	#pushregs_
00bfc     77 F6 00 F6 | 	mov	local01, arg01
00c00     14 F8 04 FB | 	rdlong	local02, #20
00c04                 | LR__0004
00c04     01 00 00 FF 
00c08     E8 F7 5C F2 | 	cmps	local01, ##1000 wcz
00c0c     20 00 90 ED |  if_be	jmp	#LR__0005
00c10     7C FA 00 F6 | 	mov	local03, local02
00c14     7D EE 00 F6 | 	mov	arg01, local03
00c18     CC FF BF FD | 	call	#__system___waitx
00c1c     7B FA 00 F6 | 	mov	local03, local01
00c20     01 00 00 FF 
00c24     E8 FB 84 F1 | 	sub	local03, ##1000
00c28     7D F6 00 F6 | 	mov	local01, local03
00c2c     D4 FF 9F FD | 	jmp	#LR__0004
00c30                 | LR__0005
00c30     0C E0 04 F1 | 	add	ptr___system__dat__, #12
00c34     70 FA 00 FB | 	rdlong	local03, ptr___system__dat__
00c38     0C E0 84 F1 | 	sub	ptr___system__dat__, #12
00c3c     7D FC 00 F6 | 	mov	local04, local03
00c40     00 FC 0C F2 | 	cmp	local04, #0 wz
00c44     28 00 90 5D |  if_ne	jmp	#LR__0006
00c48     7C 04 01 F6 | 	mov	muldiva_, local02
00c4c     01 00 00 FF 
00c50     E8 07 05 F6 | 	mov	muldivb_, ##1000
00c54     5F 00 A0 FD | 	call	#unsdivide_
00c58     83 FA 00 F6 | 	mov	local03, muldivb_
00c5c     7D FE 00 F6 | 	mov	local05, local03
00c60     7F FC 00 F6 | 	mov	local04, local05
00c64     0C E0 04 F1 | 	add	ptr___system__dat__, #12
00c68     70 FE 60 FC | 	wrlong	local05, ptr___system__dat__
00c6c     0C E0 84 F1 | 	sub	ptr___system__dat__, #12
00c70                 | LR__0006
00c70     00 F6 5C F2 | 	cmps	local01, #0 wcz
00c74     14 00 90 ED |  if_be	jmp	#LR__0007
00c78     7E F6 00 FD | 	qmul	local01, local04
00c7c     18 FA 60 FD | 	getqx	local03
00c80     7D 00 01 F6 | 	mov	local06, local03
00c84     80 EE 00 F6 | 	mov	arg01, local06
00c88     5C FF BF FD | 	call	#__system___waitx
00c8c                 | LR__0007
00c8c     42 F0 03 F6 | 	mov	ptra, fp
00c90     52 00 A0 FD | 	call	#popregs_
00c94                 | __system___waitms_ret
00c94     2D 00 64 FD | 	ret
00c98                 | 
00c98                 | __system___waitus
00c98     05 80 04 F6 | 	mov	COUNT_, #5
00c9c     43 00 A0 FD | 	call	#pushregs_
00ca0     77 F6 00 F6 | 	mov	local01, arg01
00ca4     10 E0 04 F1 | 	add	ptr___system__dat__, #16
00ca8     70 F8 00 FB | 	rdlong	local02, ptr___system__dat__
00cac     10 E0 84 F1 | 	sub	ptr___system__dat__, #16
00cb0     7C FA 00 F6 | 	mov	local03, local02
00cb4     00 FA 0C F2 | 	cmp	local03, #0 wz
00cb8     28 00 90 5D |  if_ne	jmp	#LR__0008
00cbc     14 04 05 FB | 	rdlong	muldiva_, #20
00cc0     A1 07 00 FF 
00cc4     40 06 05 F6 | 	mov	muldivb_, ##1000000
00cc8     5F 00 A0 FD | 	call	#unsdivide_
00ccc     83 F8 00 F6 | 	mov	local02, muldivb_
00cd0     7C FC 00 F6 | 	mov	local04, local02
00cd4     7E FA 00 F6 | 	mov	local03, local04
00cd8     10 E0 04 F1 | 	add	ptr___system__dat__, #16
00cdc     70 FC 60 FC | 	wrlong	local04, ptr___system__dat__
00ce0     10 E0 84 F1 | 	sub	ptr___system__dat__, #16
00ce4                 | LR__0008
00ce4     7D F6 00 FD | 	qmul	local01, local03
00ce8     18 F8 60 FD | 	getqx	local02
00cec     7C FE 00 F6 | 	mov	local05, local02
00cf0     7F EE 00 F6 | 	mov	arg01, local05
00cf4     F0 FE BF FD | 	call	#__system___waitx
00cf8     42 F0 03 F6 | 	mov	ptra, fp
00cfc     52 00 A0 FD | 	call	#popregs_
00d00                 | __system___waitus_ret
00d00     2D 00 64 FD | 	ret
00d04                 | 	alignl
00d04                 | _dat_
00d04                 | 
00d04                 | audio   org
00d04     41 70 64 FD | 		dirh #56
00d08     49 70 64 FD | 		outh #56
00d0c     28 10 64 FD |         setq #8
00d10     00 13 05 FB |         rdlong sstart,ptra
00d14                 |         
00d14     0E C2 05 FC |         wrpin   dac,#left
00d18     00 00 80 FF 
00d1c     0E B4 1C FC |         wxpin   ##90,#left
00d20                 | 
00d20     0F C2 05 FC |         wrpin   dac,#right
00d24     00 00 80 FF 
00d28     0F B4 1C FC |         wxpin   ##90,#right
00d2c                 | 
00d2c     41 9C 64 FD |         dirh    #left addpins 1
00d30                 | 
00d30     20 9C 64 FD |         setse1  #%001<<6 + left
00d34                 |         
00d34                 | '        mov start,ptra
00d34                 |  '       add start,#16
00d34                 |         
00d34     61 E8 07 F6 |         mov ijmp1,#isr1       
00d38     25 08 64 FD |         setint1 #4 
00d3c                 |         
00d3c     01 08 05 F6 |         mov time,#1
00d40                 | loop    
00d40                 | 
00d40                 | 'find nearest time
00d40                 | 'compute sample
00d40                 | 'put to lut sample, time
00d40                 | 'get new time for this channel
00d40                 | 'wait until free place in lut
00d40                 | 
00d40                 | 
00d40                 | 
00d40                 |          
00d40                 | 
00d40                 | 
00d40     28 10 64 FD |             setq #8
00d44     61 13 05 FB |             rdlong sstart,ptra++
00d48     28 10 64 FD |             setq #8
00d4c     61 25 05 FB |             rdlong sstart2,ptra++
00d50                 | '            setq #8
00d50                 | '            rdlong sstart3,ptra++
00d50                 | 
00d50     48 F0 87 F1 |             sub ptra,#9*4*2
00d54                 |  
00d54                 |    
00d54     00 22 0D F2 |             cmp acmd,#0 wz
00d58     00 E6 04 A6 |          if_e mov p1,#0
00d5c     00 34 0D F2 |            cmp acmd2,#0 wz
00d60     00 E8 04 A6 |          if_e mov p2,#0
00d64                 | '           cmp acmd3,#0 wz
00d64                 | '         if_e mov p3,#0
00d64                 | 
00d64                 |          
00d64     00 B6 05 F6 |            	mov cn,#0
00d68     D2 B8 01 F6 |            	mov ct,time1
00d6c     D3 B8 39 F3 |            	fle ct, time2 wcz
00d70     01 B6 05 C6 | 	if_c	mov cn,#1
00d74                 | '          fle ct,time3 wcz
00d74                 | '           if_c mov cn,#2
00d74                 | 
00d74                 |            
00d74                 |            
00d74                 | 'nov qq is the lowest time, cn is the channel           
00d74                 |              
00d74                 |           
00d74                 | 
00d74                 | '       if_e add time1,#$1FF     
00d74                 |             
00d74                 | 
00d74                 |  
00d74                 |            'time0 - last sample time
00d74                 |            
00d74                 |            ' find the nearest time of 8 channels
00d74                 |            '
00d74     80 02 01 F6 |          	mov qq,tail  ' this has to be set at the front
00d78     02 02 85 F1 |         	sub qq,#2
00d7c     FF 03 05 F5 |         	and qq,#511
00d80     7F 02 19 F2 |         	cmp qq,front wcz
00d84     B8 FF 9F AD | 	if_e    jmp #loop           ' buffer full          
00d88                 | 	
00d88                 | 	
00d88                 | 	
00d88     00 B6 0D F2 | 	         cmp cn, #0 wz
00d8c     08 00 90 AD |      if_z jmp #p201       
00d90     01 B6 0D F2 |          cmp cn, #1 wz
00d94     68 00 90 AD |       if_z jmp #p202       
00d98                 |             
00d98                 | 	
00d98                 | 	
00d98                 | 	
00d98                 | '----1	
00d98                 | 	
00d98                 |  
00d98                 | p201 		
00d98     90 E6 00 F1 |             add p1,askip
00d9c     8C E6 18 F2 |             cmp p1,lend wcz
00da0     8C E6 80 31 |     if_ge   sub p1,lend	        
00da4     8B E6 00 31 |     if_ge   add p1,lstart       
00da8                 | 
00da8     73 FA 00 F6 |             mov p12,p1
00dac     89 FA 00 F1 |             add p12,sstart
00db0     00 14 0D F2 |             cmp type,#0 wz
00db4                 |             
00db4     7D 04 C1 5A | 	if_nz	rdbyte spl,p12
00db8     80 04 85 51 | 	if_nz 	sub spl,#$80
00dbc     08 04 65 50 | 	if_nz	shl spl,#8
00dc0     7D 04 E1 AA | 	if_z 	rdword spl,p12
00dc4                 | 
00dc4                 | 
00dc4     8D 04 31 FA |          	scas spl,vol
00dc8     00 04 01 F6 |          	mov spl,0-0
00dcc                 |     	
00dcc     8E 04 31 FA | 	    	scas spl,apan
00dd0     00 BC 01 F6 | 	    	mov ls,0-0
00dd4     0F BC E5 F4 | 	    	bitnot ls,#15
00dd8                 | 
00dd8     20 00 00 FF 
00ddc     00 02 05 F6 | 	    	mov qq,##16384
00de0     8E 02 81 F1 | 	    	sub qq,apan
00de4     81 04 31 FA | 	    	scas spl,qq
00de8     00 BA 01 F6 | 	    	mov rs,0-0
00dec     0F BA E5 F4 | 	    	bitnot rs,#15
00df0     DE BA 29 F9 | 	    	setword rs,ls,#1
00df4                 | 
00df4                 |  '       	debug(udec(time1))
00df4     D2 A2 01 F6 | 	    	mov time0,time1    	
00df8     8F A4 01 F1 | 	        add time1,freq	    	
00dfc     68 00 90 FD | 	    	jmp #p101
00e00                 | 
00e00                 | ''=-------------2
00e00                 |  
00e00                 | p202 		
00e00                 | 
00e00                 |   	
00e00     99 E8 00 F1 |             add p2,askip2
00e04     95 E8 18 F2 |             cmp p2,lend2 wcz
00e08     95 E8 80 31 |     if_ge   sub p2,lend2	        
00e0c     94 E8 00 31 |     if_ge   add p2,lstart2       
00e10                 | 
00e10     74 FC 00 F6 |             mov p22,p2
00e14     92 FC 00 F1 |             add p22,sstart2
00e18     00 26 0D F2 |             cmp type2,#0 wz
00e1c                 |             
00e1c     7E 06 C1 5A | 	if_nz	rdbyte spl2,p22
00e20     80 06 85 51 | 	if_nz 	sub spl2,#$80
00e24     08 06 65 50 | 	if_nz	shl spl2,#8
00e28     7E 06 E1 AA | 	if_z 	rdword spl2,p22
00e2c                 | 
00e2c                 | 
00e2c     96 06 31 FA |          	scas spl2,vol2
00e30     00 04 01 F6 |          	mov spl,0-0
00e34                 |     	
00e34     97 06 31 FA | 	    	scas spl2,apan2
00e38     00 BC 01 F6 | 	    	mov ls,0-0
00e3c     0F BC E5 F4 | 	    	bitnot ls,#15
00e40                 | 
00e40     20 00 00 FF 
00e44     00 02 05 F6 | 	    	mov qq,##16384
00e48     97 02 81 F1 | 	    	sub qq,apan2
00e4c     81 06 31 FA | 	    	scas spl2,qq
00e50     00 BA 01 F6 | 	    	mov rs,0-0
00e54     0F C0 E5 F4 | 	    	bitnot rs2,#15
00e58     DF C0 29 F9 | 	    	setword rs2,ls2,#1
00e5c                 | 	
00e5c     D3 A2 01 F6 | 		   	mov time0,time2
00e60     98 A6 01 F1 |     	    add time2,freq2
00e64                 |  '       	debug(udec(time1))
00e64     00 00 90 FD |     	jmp #p101
00e68                 | 
00e68                 | p101      
00e68                 |      '       cmp oldt0,time0 wz
00e68                 |   ' if_z		sub front,#2
00e68                 |   ' if_z     and front,#511     
00e68                 |   
00e68                 |   
00e68                 |  '           debug(udec(cn))
00e68                 |  '          debug(udec(front))
00e68                 |  '          debug(udec(time0))
00e68                 |  '          debug(udec(rs))
00e68                 |  '          debug(udec(counter))
00e68                 |  
00e68     E0 BA 01 F1 |  			add rs,rs2
00e6c     7F BA 31 FC |             wrlut rs,front
00e70     01 FE 04 F1 |             add front,#1
00e74     7F A2 31 FC |             wrlut time0,front
00e78                 | 
00e78     01 FE 04 F1 |             add front,#1
00e7c     FF FF 04 F5 |             and front,#511
00e80     D1 B4 01 F6 |             mov oldt0,time0
00e84     B8 FE 9F FD |             jmp     #loop          'loop
00e88                 | 
00e88                 | '--------------------------------------------------------------------------
00e88                 | '--- Interrupt. Output the sample, get the next one
00e88                 | 
00e88     49 70 64 FD | isr1       	outh #56
00e8c     0E 0C 25 FC |             wypin lsample,#left  '2        
00e90     0F 0E 25 FC | 		    wypin rsample,#right '4
00e94                 | 
00e94     01 0A 05 F1 | 			add counter,#1        '6
00e98     84 0A 19 F2 | 			cmp counter,time wcz  '8
00e9c     F5 FF 3B EB | 	if_le	reti1			      'if too early for the next sample, do nothing '10
00ea0                 | 		
00ea0     7F 00 19 F2 |             cmp tail,front wcz    'if the buffer is empty, do nothing '12
00ea4     F5 FF 3B AB | 	if_e	reti1                 '14
00ea8                 | 
00ea8     80 0C A1 FA |             rdlut lsample,tail    '17
00eac     86 0E 39 F9 |             getword rsample,lsample,#1 '19
00eb0     86 0C 31 F9 |             getword lsample,lsample,#0 '21
00eb4     01 00 05 F1 |             add tail, #1                '23
00eb8     80 08 A1 FA |             rdlut time,tail             '26
00ebc     01 00 05 F1 |             add tail,#1                 '28
00ec0     FF 01 05 F5 |             and tail,#511               '30
00ec4     48 70 64 FD |             outl #56
00ec8     F5 FF 3B FB |             reti1                       '34
00ecc                 | 
00ecc                 | '---------------------------------------------------------------------------
00ecc                 |         
00ecc     00 00 00 00 | x       long    0
00ed0                 | 
00ed0     00 00 00 00 | p1      long    0
00ed4     00 00 00 00 | p2      long    0
00ed8     00 00 00 00 | p3	long 0
00edc     00 00 00 00 | p4 long 0
00ee0                 | 
00ee0     00 00 00 00 | p5 long 0
00ee4     00 00 00 00 | p6 long 0
00ee8     00 00 00 00 | p7 long 0
00eec     00 00 00 00 | p8 long 0
00ef0                 | 
00ef0                 | 
00ef0     01 00 00 00 | f1  long 1
00ef4     00 00 00 00 | f2 long 0
00ef8     00 00 00 00 | p12 long 0
00efc     00 00 00 00 | p22 long 0
00f00     00 00 00 00 | front long 0
00f04     00 00 00 00 | tail long 0
00f08     00 00 00 00 | qq long 0
00f0c     00 00 00 00 | spl long 0
00f10     00 00 00 00 | spl2 long 0
00f14     00 00 00 00 | time long 0
00f18     00 00 F7 FF | counter long $FFF70000
00f1c                 | 
00f1c     00 00 00 00 | lsample long 0
00f20     00 00 00 00 | rsample long 0
00f24     00 00 00 00 | amp     long    0
00f28                 | 
00f28     00 00 00 00 | sstart long 0
00f2c     00 00 00 00 | type	long 0
00f30     00 00 00 00 | lstart	long 0
00f34     00 00 00 00 | lend     long 0                'loopstart==loopend=no loop
00f38     00 40 00 00 | vol      long 16384
00f3c     00 80 00 00 | apan			long 32768
00f40     C8 00 00 00 | freq	long 200
00f44     02 00 00 00 | askip		long 2
00f48     00 00 00 00 | acmd			long 0
00f4c                 | 
00f4c     00 00 00 00 | sstart2 long 0
00f50     00 00 00 00 | type2	long 0
00f54     00 00 00 00 | lstart2	long 0
00f58     00 00 00 00 | lend2     long 0                'loopstart==loopend=no loop
00f5c     00 40 00 00 | vol2      long 16384
00f60     00 80 00 00 | apan2			long 32768
00f64     C8 00 00 00 | freq2	long 200
00f68     02 00 00 00 | askip2		long 2
00f6c     00 00 00 00 | acmd2			long 0
00f70                 | 
00f70     00 00 00 00 | sstart3 long 0
00f74     00 00 00 00 | type3	long 0
00f78     00 00 00 00 | lstart3	long 0
00f7c     00 00 00 00 | lend3     long 0                'loopstart==loopend=no loop
00f80     00 40 00 00 | vol3      long 16384
00f84     00 80 00 00 | apan3			long 32768
00f88     C8 00 00 00 | freq3	long 200
00f8c     02 00 00 00 | askip3		long 2
00f90     00 00 00 00 | acmd3			long 0
00f94                 | 
00f94     00 00 00 00 | sstart4 long 0
00f98     00 00 00 00 | type4	long 0
00f9c     00 00 00 00 | lstart4	long 0
00fa0     00 00 00 00 | lend4     long 0                'loopstart==loopend=no loop
00fa4     00 40 00 00 | vol4      long 16384
00fa8     00 80 00 00 | apan4			long 32768
00fac     C8 00 00 00 | freq4	long 200
00fb0     02 00 00 00 | askip4		long 2
00fb4     00 00 00 00 | acmd4			long 0
00fb8                 | 
00fb8     00 00 00 00 | sstart5 long 0
00fbc     00 00 00 00 | type5	long 0
00fc0     00 00 00 00 | lstart5	long 0
00fc4     00 00 00 00 | lend5     long 0                'loopstart==loopend=no loop
00fc8     00 40 00 00 | vol5      long 16384
00fcc     00 80 00 00 | apan5			long 32768
00fd0     C8 00 00 00 | freq5	long 200
00fd4     02 00 00 00 | askip5		long 2
00fd8     00 00 00 00 | acmd5			long 0
00fdc                 | 
00fdc     00 00 00 00 | sstart6 long 0
00fe0     00 00 00 00 | type6	long 0
00fe4     00 00 00 00 | lstart6	long 0
00fe8     00 00 00 00 | lend6   long 0                'loopstart==loopend=no loop
00fec     00 40 00 00 | vol6     long 16384
00ff0     00 80 00 00 | apan6			long 32768
00ff4     C8 00 00 00 | freq6	long 200
00ff8     02 00 00 00 | askip6		long 2
00ffc     00 00 00 00 | acmd6			long 0
01000                 | 
01000     00 00 00 00 | sstart7 long 0
01004     00 00 00 00 | type7	long 0
01008     00 00 00 00 | lstart7	long 0
0100c     00 00 00 00 | lend7     long 0                'loopstart==loopend=no loop
01010     00 40 00 00 | vol7      long 16384
01014     00 80 00 00 | apan7			long 32768
01018     C8 00 00 00 | freq7	long 200
0101c     02 00 00 00 | askip7		long 2
01020     00 00 00 00 | acmd7			long 0
01024                 | 
01024     00 00 00 00 | sstart8 long 0
01028     00 00 00 00 | type8	long 0
0102c     00 00 00 00 | lstart8	long 0
01030     00 00 00 00 | lend8     long 0                'loopstart==loopend=no loop
01034     00 40 00 00 | vol8      long 16384
01038     00 80 00 00 | apan8			long 32768
0103c     C8 00 00 00 | freq8	long 200
01040     02 00 00 00 | askip8		long 2
01044     00 00 00 00 | acmd8			long 0
01048                 | 
01048     00 00 00 00 | time0 long 0
0104c     01 00 00 00 | time1 long 1
01050     02 00 00 00 | time2 long 2
01054     03 00 00 00 | time3 long 3
01058     04 00 00 00 | time4 long 4
0105c     05 00 00 00 | time5 long 5
01060     06 00 00 00 | time6 long 6
01064     07 00 00 00 | time7 long 7
01068     08 00 00 00 | time8 long 8
0106c     00 00 00 00 | oldt0 long 0
01070     00 00 00 00 | cn long 0
01074     00 00 00 00 | ct long 0
01078                 | 
01078     00 00 00 00 | rs long 0
0107c     00 00 00 00 | ls long 0
01080     00 00 00 00 | ls2 long 0
01084     00 00 00 00 | rs2 long 0
01088                 | 
01088                 | 
01088                 | 
01088     44 00 17 00 | dac    long    %10111_00000000_01_00010_0      'random dither (noisier, needs no period)
0108c     00 00 00 00 
01090     00 00 00 00 | null  long 0,0
01094     73 32 00 04 
01098     00 00 10 00 
0109c     00 00 00 00 
010a0     00 00 00 00 | sinewave file "C:\s\sinus.s2"
010a4     00 00 C9 00 
010a8     92 01 5B 02 
010ac     24 03 ED 03 
010b0     B6 04 7F 05 | 	byte	$00, $00, $c9, $00, $92, $01, $5b, $02, $24, $03, $ed, $03, $b6, $04, $7f, $05
010b4     48 06 11 07 
010b8     D9 07 A2 08 
010bc     6A 09 33 0A 
010c0     FB 0A C4 0B | 	byte	$48, $06, $11, $07, $d9, $07, $a2, $08, $6a, $09, $33, $0a, $fb, $0a, $c4, $0b
010c4     8C 0C 54 0D 
010c8     1C 0E E3 0E 
010cc     AB 0F 72 10 
010d0     3A 11 01 12 | 	byte	$8c, $0c, $54, $0d, $1c, $0e, $e3, $0e, $ab, $0f, $72, $10, $3a, $11, $01, $12
010d4     C8 12 8F 13 
010d8     55 14 1C 15 
010dc     E2 15 A8 16 
010e0     6E 17 33 18 | 	byte	$c8, $12, $8f, $13, $55, $14, $1c, $15, $e2, $15, $a8, $16, $6e, $17, $33, $18
010e4     F9 18 BE 19 
010e8     82 1A 47 1B 
010ec     0B 1C CF 1C 
010f0     93 1D 57 1E | 	byte	$f9, $18, $be, $19, $82, $1a, $47, $1b, $0b, $1c, $cf, $1c, $93, $1d, $57, $1e
010f4     1A 1F DD 1F 
010f8     9F 20 61 21 
010fc     23 22 E5 22 
01100     A6 23 67 24 | 	byte	$1a, $1f, $dd, $1f, $9f, $20, $61, $21, $23, $22, $e5, $22, $a6, $23, $67, $24
01104     28 25 E8 25 
01108     A8 26 67 27 
0110c     26 28 E5 28 
01110     A3 29 61 2A | 	byte	$28, $25, $e8, $25, $a8, $26, $67, $27, $26, $28, $e5, $28, $a3, $29, $61, $2a
01114     1F 2B DC 2B 
01118     99 2C 55 2D 
0111c     11 2E CC 2E 
01120     87 2F 41 30 | 	byte	$1f, $2b, $dc, $2b, $99, $2c, $55, $2d, $11, $2e, $cc, $2e, $87, $2f, $41, $30
01124     FB 30 B5 31 
01128     6E 32 26 33 
0112c     DF 33 96 34 
01130     4D 35 04 36 | 	byte	$fb, $30, $b5, $31, $6e, $32, $26, $33, $df, $33, $96, $34, $4d, $35, $04, $36
01134     BA 36 6F 37 
01138     24 38 D9 38 
0113c     8C 39 40 3A 
01140     F2 3A A5 3B | 	byte	$ba, $36, $6f, $37, $24, $38, $d9, $38, $8c, $39, $40, $3a, $f2, $3a, $a5, $3b
01144     56 3C 07 3D 
01148     B8 3D 68 3E 
0114c     17 3F C5 3F 
01150     73 40 21 41 | 	byte	$56, $3c, $07, $3d, $b8, $3d, $68, $3e, $17, $3f, $c5, $3f, $73, $40, $21, $41
01154     CE 41 7A 42 
01158     25 43 D0 43 
0115c     7A 44 24 45 
01160     CD 45 75 46 | 	byte	$ce, $41, $7a, $42, $25, $43, $d0, $43, $7a, $44, $24, $45, $cd, $45, $75, $46
01164     1C 47 C3 47 
01168     69 48 0F 49 
0116c     B4 49 58 4A 
01170     FB 4A 9D 4B | 	byte	$1c, $47, $c3, $47, $69, $48, $0f, $49, $b4, $49, $58, $4a, $fb, $4a, $9d, $4b
01174     3F 4C E0 4C 
01178     81 4D 20 4E 
0117c     BF 4E 5D 4F 
01180     FB 4F 97 50 | 	byte	$3f, $4c, $e0, $4c, $81, $4d, $20, $4e, $bf, $4e, $5d, $4f, $fb, $4f, $97, $50
01184     33 51 CE 51 
01188     68 52 02 53 
0118c     9B 53 32 54 
01190     C9 54 60 55 | 	byte	$33, $51, $ce, $51, $68, $52, $02, $53, $9b, $53, $32, $54, $c9, $54, $60, $55
01194     F5 55 8A 56 
01198     1D 57 B0 57 
0119c     42 58 D3 58 
011a0     64 59 F3 59 | 	byte	$f5, $55, $8a, $56, $1d, $57, $b0, $57, $42, $58, $d3, $58, $64, $59, $f3, $59
011a4     82 5A 0F 5B 
011a8     9C 5B 28 5C 
011ac     B3 5C 3E 5D 
011b0     C7 5D 4F 5E | 	byte	$82, $5a, $0f, $5b, $9c, $5b, $28, $5c, $b3, $5c, $3e, $5d, $c7, $5d, $4f, $5e
011b4     D7 5E 5D 5F 
011b8     E3 5F 68 60 
011bc     EB 60 6E 61 
011c0     F0 61 71 62 | 	byte	$d7, $5e, $5d, $5f, $e3, $5f, $68, $60, $eb, $60, $6e, $61, $f0, $61, $71, $62
011c4     F1 62 70 63 
011c8     EE 63 6C 64 
011cc     E8 64 63 65 
011d0     DD 65 56 66 | 	byte	$f1, $62, $70, $63, $ee, $63, $6c, $64, $e8, $64, $63, $65, $dd, $65, $56, $66
011d4     CF 66 46 67 
011d8     BC 67 32 68 
011dc     A6 68 19 69 
011e0     8B 69 FD 69 | 	byte	$cf, $66, $46, $67, $bc, $67, $32, $68, $a6, $68, $19, $69, $8b, $69, $fd, $69
011e4     6D 6A DC 6A 
011e8     4A 6B B7 6B 
011ec     23 6C 8E 6C 
011f0     F8 6C 61 6D | 	byte	$6d, $6a, $dc, $6a, $4a, $6b, $b7, $6b, $23, $6c, $8e, $6c, $f8, $6c, $61, $6d
011f4     C9 6D 30 6E 
011f8     96 6E FB 6E 
011fc     5E 6F C1 6F 
01200     22 70 83 70 | 	byte	$c9, $6d, $30, $6e, $96, $6e, $fb, $6e, $5e, $6f, $c1, $6f, $22, $70, $83, $70
01204     E2 70 40 71 
01208     9D 71 F9 71 
0120c     54 72 AE 72 
01210     07 73 5E 73 | 	byte	$e2, $70, $40, $71, $9d, $71, $f9, $71, $54, $72, $ae, $72, $07, $73, $5e, $73
01214     B5 73 0A 74 
01218     5F 74 B2 74 
0121c     04 75 55 75 
01220     A5 75 F3 75 | 	byte	$b5, $73, $0a, $74, $5f, $74, $b2, $74, $04, $75, $55, $75, $a5, $75, $f3, $75
01224     41 76 8D 76 
01228     D8 76 22 77 
0122c     6B 77 B3 77 
01230     FA 77 3F 78 | 	byte	$41, $76, $8d, $76, $d8, $76, $22, $77, $6b, $77, $b3, $77, $fa, $77, $3f, $78
01234     84 78 C7 78 
01238     09 79 4A 79 
0123c     89 79 C8 79 
01240     05 7A 41 7A | 	byte	$84, $78, $c7, $78, $09, $79, $4a, $79, $89, $79, $c8, $79, $05, $7a, $41, $7a
01244     7C 7A B6 7A 
01248     EE 7A 26 7B 
0124c     5C 7B 91 7B 
01250     C5 7B F8 7B | 	byte	$7c, $7a, $b6, $7a, $ee, $7a, $26, $7b, $5c, $7b, $91, $7b, $c5, $7b, $f8, $7b
01254     29 7C 59 7C 
01258     88 7C B6 7C 
0125c     E3 7C 0E 7D 
01260     39 7D 62 7D | 	byte	$29, $7c, $59, $7c, $88, $7c, $b6, $7c, $e3, $7c, $0e, $7d, $39, $7d, $62, $7d
01264     89 7D B0 7D 
01268     D5 7D FA 7D 
0126c     1D 7E 3E 7E 
01270     5F 7E 7E 7E | 	byte	$89, $7d, $b0, $7d, $d5, $7d, $fa, $7d, $1d, $7e, $3e, $7e, $5f, $7e, $7e, $7e
01274     9C 7E B9 7E 
01278     D5 7E EF 7E 
0127c     09 7F 21 7F 
01280     37 7F 4D 7F | 	byte	$9c, $7e, $b9, $7e, $d5, $7e, $ef, $7e, $09, $7f, $21, $7f, $37, $7f, $4d, $7f
01284     61 7F 74 7F 
01288     86 7F 97 7F 
0128c     A6 7F B4 7F 
01290     C1 7F CD 7F | 	byte	$61, $7f, $74, $7f, $86, $7f, $97, $7f, $a6, $7f, $b4, $7f, $c1, $7f, $cd, $7f
01294     D8 7F E1 7F 
01298     E9 7F F0 7F 
0129c     F5 7F F9 7F 
012a0     FD 7F FE 7F | 	byte	$d8, $7f, $e1, $7f, $e9, $7f, $f0, $7f, $f5, $7f, $f9, $7f, $fd, $7f, $fe, $7f
012a4     FF 7F FE 7F 
012a8     FD 7F F9 7F 
012ac     F5 7F F0 7F 
012b0     E9 7F E1 7F | 	byte	$ff, $7f, $fe, $7f, $fd, $7f, $f9, $7f, $f5, $7f, $f0, $7f, $e9, $7f, $e1, $7f
012b4     D8 7F CD 7F 
012b8     C1 7F B4 7F 
012bc     A6 7F 97 7F 
012c0     86 7F 74 7F | 	byte	$d8, $7f, $cd, $7f, $c1, $7f, $b4, $7f, $a6, $7f, $97, $7f, $86, $7f, $74, $7f
012c4     61 7F 4D 7F 
012c8     37 7F 21 7F 
012cc     09 7F EF 7E 
012d0     D5 7E B9 7E | 	byte	$61, $7f, $4d, $7f, $37, $7f, $21, $7f, $09, $7f, $ef, $7e, $d5, $7e, $b9, $7e
012d4     9C 7E 7E 7E 
012d8     5F 7E 3E 7E 
012dc     1D 7E FA 7D 
012e0     D5 7D B0 7D | 	byte	$9c, $7e, $7e, $7e, $5f, $7e, $3e, $7e, $1d, $7e, $fa, $7d, $d5, $7d, $b0, $7d
012e4     89 7D 62 7D 
012e8     39 7D 0E 7D 
012ec     E3 7C B6 7C 
012f0     88 7C 59 7C | 	byte	$89, $7d, $62, $7d, $39, $7d, $0e, $7d, $e3, $7c, $b6, $7c, $88, $7c, $59, $7c
012f4     29 7C F8 7B 
012f8     C5 7B 91 7B 
012fc     5C 7B 26 7B 
01300     EE 7A B6 7A | 	byte	$29, $7c, $f8, $7b, $c5, $7b, $91, $7b, $5c, $7b, $26, $7b, $ee, $7a, $b6, $7a
01304     7C 7A 41 7A 
01308     05 7A C8 79 
0130c     89 79 4A 79 
01310     09 79 C7 78 | 	byte	$7c, $7a, $41, $7a, $05, $7a, $c8, $79, $89, $79, $4a, $79, $09, $79, $c7, $78
01314     84 78 3F 78 
01318     FA 77 B3 77 
0131c     6B 77 22 77 
01320     D8 76 8D 76 | 	byte	$84, $78, $3f, $78, $fa, $77, $b3, $77, $6b, $77, $22, $77, $d8, $76, $8d, $76
01324     41 76 F3 75 
01328     A5 75 55 75 
0132c     04 75 B2 74 
01330     5F 74 0A 74 | 	byte	$41, $76, $f3, $75, $a5, $75, $55, $75, $04, $75, $b2, $74, $5f, $74, $0a, $74
01334     B5 73 5E 73 
01338     07 73 AE 72 
0133c     54 72 F9 71 
01340     9D 71 40 71 | 	byte	$b5, $73, $5e, $73, $07, $73, $ae, $72, $54, $72, $f9, $71, $9d, $71, $40, $71
01344     E2 70 83 70 
01348     22 70 C1 6F 
0134c     5E 6F FB 6E 
01350     96 6E 30 6E | 	byte	$e2, $70, $83, $70, $22, $70, $c1, $6f, $5e, $6f, $fb, $6e, $96, $6e, $30, $6e
01354     C9 6D 61 6D 
01358     F8 6C 8E 6C 
0135c     23 6C B7 6B 
01360     4A 6B DC 6A | 	byte	$c9, $6d, $61, $6d, $f8, $6c, $8e, $6c, $23, $6c, $b7, $6b, $4a, $6b, $dc, $6a
01364     6D 6A FD 69 
01368     8B 69 19 69 
0136c     A6 68 32 68 
01370     BC 67 46 67 | 	byte	$6d, $6a, $fd, $69, $8b, $69, $19, $69, $a6, $68, $32, $68, $bc, $67, $46, $67
01374     CF 66 56 66 
01378     DD 65 63 65 
0137c     E8 64 6C 64 
01380     EE 63 70 63 | 	byte	$cf, $66, $56, $66, $dd, $65, $63, $65, $e8, $64, $6c, $64, $ee, $63, $70, $63
01384     F1 62 71 62 
01388     F0 61 6E 61 
0138c     EB 60 68 60 
01390     E3 5F 5D 5F | 	byte	$f1, $62, $71, $62, $f0, $61, $6e, $61, $eb, $60, $68, $60, $e3, $5f, $5d, $5f
01394     D7 5E 4F 5E 
01398     C7 5D 3E 5D 
0139c     B3 5C 28 5C 
013a0     9C 5B 0F 5B | 	byte	$d7, $5e, $4f, $5e, $c7, $5d, $3e, $5d, $b3, $5c, $28, $5c, $9c, $5b, $0f, $5b
013a4     82 5A F3 59 
013a8     64 59 D3 58 
013ac     42 58 B0 57 
013b0     1D 57 8A 56 | 	byte	$82, $5a, $f3, $59, $64, $59, $d3, $58, $42, $58, $b0, $57, $1d, $57, $8a, $56
013b4     F5 55 60 55 
013b8     C9 54 32 54 
013bc     9B 53 02 53 
013c0     68 52 CE 51 | 	byte	$f5, $55, $60, $55, $c9, $54, $32, $54, $9b, $53, $02, $53, $68, $52, $ce, $51
013c4     33 51 97 50 
013c8     FB 4F 5D 4F 
013cc     BF 4E 20 4E 
013d0     81 4D E0 4C | 	byte	$33, $51, $97, $50, $fb, $4f, $5d, $4f, $bf, $4e, $20, $4e, $81, $4d, $e0, $4c
013d4     3F 4C 9D 4B 
013d8     FB 4A 58 4A 
013dc     B4 49 0F 49 
013e0     69 48 C3 47 | 	byte	$3f, $4c, $9d, $4b, $fb, $4a, $58, $4a, $b4, $49, $0f, $49, $69, $48, $c3, $47
013e4     1C 47 75 46 
013e8     CD 45 24 45 
013ec     7A 44 D0 43 
013f0     25 43 7A 42 | 	byte	$1c, $47, $75, $46, $cd, $45, $24, $45, $7a, $44, $d0, $43, $25, $43, $7a, $42
013f4     CE 41 21 41 
013f8     73 40 C5 3F 
013fc     17 3F 68 3E 
01400     B8 3D 07 3D | 	byte	$ce, $41, $21, $41, $73, $40, $c5, $3f, $17, $3f, $68, $3e, $b8, $3d, $07, $3d
01404     56 3C A5 3B 
01408     F2 3A 40 3A 
0140c     8C 39 D9 38 
01410     24 38 6F 37 | 	byte	$56, $3c, $a5, $3b, $f2, $3a, $40, $3a, $8c, $39, $d9, $38, $24, $38, $6f, $37
01414     BA 36 04 36 
01418     4D 35 96 34 
0141c     DF 33 26 33 
01420     6E 32 B5 31 | 	byte	$ba, $36, $04, $36, $4d, $35, $96, $34, $df, $33, $26, $33, $6e, $32, $b5, $31
01424     FB 30 41 30 
01428     87 2F CC 2E 
0142c     11 2E 55 2D 
01430     99 2C DC 2B | 	byte	$fb, $30, $41, $30, $87, $2f, $cc, $2e, $11, $2e, $55, $2d, $99, $2c, $dc, $2b
01434     1F 2B 61 2A 
01438     A3 29 E5 28 
0143c     26 28 67 27 
01440     A8 26 E8 25 | 	byte	$1f, $2b, $61, $2a, $a3, $29, $e5, $28, $26, $28, $67, $27, $a8, $26, $e8, $25
01444     28 25 67 24 
01448     A6 23 E5 22 
0144c     23 22 61 21 
01450     9F 20 DD 1F | 	byte	$28, $25, $67, $24, $a6, $23, $e5, $22, $23, $22, $61, $21, $9f, $20, $dd, $1f
01454     1A 1F 57 1E 
01458     93 1D CF 1C 
0145c     0B 1C 47 1B 
01460     82 1A BE 19 | 	byte	$1a, $1f, $57, $1e, $93, $1d, $cf, $1c, $0b, $1c, $47, $1b, $82, $1a, $be, $19
01464     F9 18 33 18 
01468     6E 17 A8 16 
0146c     E2 15 1C 15 
01470     55 14 8F 13 | 	byte	$f9, $18, $33, $18, $6e, $17, $a8, $16, $e2, $15, $1c, $15, $55, $14, $8f, $13
01474     C8 12 01 12 
01478     3A 11 72 10 
0147c     AB 0F E3 0E 
01480     1C 0E 54 0D | 	byte	$c8, $12, $01, $12, $3a, $11, $72, $10, $ab, $0f, $e3, $0e, $1c, $0e, $54, $0d
01484     8C 0C C4 0B 
01488     FB 0A 33 0A 
0148c     6A 09 A2 08 
01490     D9 07 11 07 | 	byte	$8c, $0c, $c4, $0b, $fb, $0a, $33, $0a, $6a, $09, $a2, $08, $d9, $07, $11, $07
01494     48 06 7F 05 
01498     B6 04 ED 03 
0149c     24 03 5B 02 
014a0     92 01 C9 00 | 	byte	$48, $06, $7f, $05, $b6, $04, $ed, $03, $24, $03, $5b, $02, $92, $01, $c9, $00
014a4     00 00 37 FF 
014a8     6E FE A5 FD 
014ac     DC FC 13 FC 
014b0     4A FB 81 FA | 	byte	$00, $00, $37, $ff, $6e, $fe, $a5, $fd, $dc, $fc, $13, $fc, $4a, $fb, $81, $fa
014b4     B8 F9 EF F8 
014b8     27 F8 5E F7 
014bc     96 F6 CD F5 
014c0     05 F5 3C F4 | 	byte	$b8, $f9, $ef, $f8, $27, $f8, $5e, $f7, $96, $f6, $cd, $f5, $05, $f5, $3c, $f4
014c4     74 F3 AC F2 
014c8     E4 F1 1D F1 
014cc     55 F0 8E EF 
014d0     C6 EE FF ED | 	byte	$74, $f3, $ac, $f2, $e4, $f1, $1d, $f1, $55, $f0, $8e, $ef, $c6, $ee, $ff, $ed
014d4     38 ED 71 EC 
014d8     AB EB E4 EA 
014dc     1E EA 58 E9 
014e0     92 E8 CD E7 | 	byte	$38, $ed, $71, $ec, $ab, $eb, $e4, $ea, $1e, $ea, $58, $e9, $92, $e8, $cd, $e7
014e4     07 E7 42 E6 
014e8     7E E5 B9 E4 
014ec     F5 E3 31 E3 
014f0     6D E2 A9 E1 | 	byte	$07, $e7, $42, $e6, $7e, $e5, $b9, $e4, $f5, $e3, $31, $e3, $6d, $e2, $a9, $e1
014f4     E6 E0 23 E0 
014f8     61 DF 9F DE 
014fc     DD DD 1B DD 
01500     5A DC 99 DB | 	byte	$e6, $e0, $23, $e0, $61, $df, $9f, $de, $dd, $dd, $1b, $dd, $5a, $dc, $99, $db
01504     D8 DA 18 DA 
01508     58 D9 99 D8 
0150c     DA D7 1B D7 
01510     5D D6 9F D5 | 	byte	$d8, $da, $18, $da, $58, $d9, $99, $d8, $da, $d7, $1b, $d7, $5d, $d6, $9f, $d5
01514     E1 D4 24 D4 
01518     67 D3 AB D2 
0151c     EF D1 34 D1 
01520     79 D0 BF CF | 	byte	$e1, $d4, $24, $d4, $67, $d3, $ab, $d2, $ef, $d1, $34, $d1, $79, $d0, $bf, $cf
01524     05 CF 4B CE 
01528     92 CD DA CC 
0152c     21 CC 6A CB 
01530     B3 CA FC C9 | 	byte	$05, $cf, $4b, $ce, $92, $cd, $da, $cc, $21, $cc, $6a, $cb, $b3, $ca, $fc, $c9
01534     46 C9 91 C8 
01538     DC C7 27 C7 
0153c     74 C6 C0 C5 
01540     0E C5 5B C4 | 	byte	$46, $c9, $91, $c8, $dc, $c7, $27, $c7, $74, $c6, $c0, $c5, $0e, $c5, $5b, $c4
01544     AA C3 F9 C2 
01548     48 C2 98 C1 
0154c     E9 C0 3B C0 
01550     8D BF DF BE | 	byte	$aa, $c3, $f9, $c2, $48, $c2, $98, $c1, $e9, $c0, $3b, $c0, $8d, $bf, $df, $be
01554     32 BE 86 BD 
01558     DB BC 30 BC 
0155c     86 BB DC BA 
01560     33 BA 8B B9 | 	byte	$32, $be, $86, $bd, $db, $bc, $30, $bc, $86, $bb, $dc, $ba, $33, $ba, $8b, $b9
01564     E4 B8 3D B8 
01568     97 B7 F1 B6 
0156c     4C B6 A8 B5 
01570     05 B5 63 B4 | 	byte	$e4, $b8, $3d, $b8, $97, $b7, $f1, $b6, $4c, $b6, $a8, $b5, $05, $b5, $63, $b4
01574     C1 B3 20 B3 
01578     7F B2 E0 B1 
0157c     41 B1 A3 B0 
01580     05 B0 69 AF | 	byte	$c1, $b3, $20, $b3, $7f, $b2, $e0, $b1, $41, $b1, $a3, $b0, $05, $b0, $69, $af
01584     CD AE 32 AE 
01588     98 AD FE AC 
0158c     65 AC CE AB 
01590     37 AB A0 AA | 	byte	$cd, $ae, $32, $ae, $98, $ad, $fe, $ac, $65, $ac, $ce, $ab, $37, $ab, $a0, $aa
01594     0B AA 76 A9 
01598     E3 A8 50 A8 
0159c     BE A7 2D A7 
015a0     9C A6 0D A6 | 	byte	$0b, $aa, $76, $a9, $e3, $a8, $50, $a8, $be, $a7, $2d, $a7, $9c, $a6, $0d, $a6
015a4     7E A5 F1 A4 
015a8     64 A4 D8 A3 
015ac     4D A3 C2 A2 
015b0     39 A2 B1 A1 | 	byte	$7e, $a5, $f1, $a4, $64, $a4, $d8, $a3, $4d, $a3, $c2, $a2, $39, $a2, $b1, $a1
015b4     29 A1 A3 A0 
015b8     1D A0 98 9F 
015bc     15 9F 92 9E 
015c0     10 9E 8F 9D | 	byte	$29, $a1, $a3, $a0, $1d, $a0, $98, $9f, $15, $9f, $92, $9e, $10, $9e, $8f, $9d
015c4     0F 9D 90 9C 
015c8     12 9C 94 9B 
015cc     18 9B 9D 9A 
015d0     23 9A AA 99 | 	byte	$0f, $9d, $90, $9c, $12, $9c, $94, $9b, $18, $9b, $9d, $9a, $23, $9a, $aa, $99
015d4     31 99 BA 98 
015d8     44 98 CE 97 
015dc     5A 97 E7 96 
015e0     75 96 03 96 | 	byte	$31, $99, $ba, $98, $44, $98, $ce, $97, $5a, $97, $e7, $96, $75, $96, $03, $96
015e4     93 95 24 95 
015e8     B6 94 49 94 
015ec     DD 93 72 93 
015f0     08 93 9F 92 | 	byte	$93, $95, $24, $95, $b6, $94, $49, $94, $dd, $93, $72, $93, $08, $93, $9f, $92
015f4     37 92 D0 91 
015f8     6A 91 05 91 
015fc     A2 90 3F 90 
01600     DE 8F 7D 8F | 	byte	$37, $92, $d0, $91, $6a, $91, $05, $91, $a2, $90, $3f, $90, $de, $8f, $7d, $8f
01604     1E 8F C0 8E 
01608     63 8E 07 8E 
0160c     AC 8D 52 8D 
01610     F9 8C A2 8C | 	byte	$1e, $8f, $c0, $8e, $63, $8e, $07, $8e, $ac, $8d, $52, $8d, $f9, $8c, $a2, $8c
01614     4B 8C F6 8B 
01618     A1 8B 4E 8B 
0161c     FC 8A AB 8A 
01620     5B 8A 0D 8A | 	byte	$4b, $8c, $f6, $8b, $a1, $8b, $4e, $8b, $fc, $8a, $ab, $8a, $5b, $8a, $0d, $8a
01624     BF 89 73 89 
01628     28 89 DE 88 
0162c     95 88 4D 88 
01630     06 88 C1 87 | 	byte	$bf, $89, $73, $89, $28, $89, $de, $88, $95, $88, $4d, $88, $06, $88, $c1, $87
01634     7C 87 39 87 
01638     F7 86 B6 86 
0163c     77 86 38 86 
01640     FB 85 BF 85 | 	byte	$7c, $87, $39, $87, $f7, $86, $b6, $86, $77, $86, $38, $86, $fb, $85, $bf, $85
01644     84 85 4A 85 
01648     12 85 DA 84 
0164c     A4 84 6F 84 
01650     3B 84 08 84 | 	byte	$84, $85, $4a, $85, $12, $85, $da, $84, $a4, $84, $6f, $84, $3b, $84, $08, $84
01654     D7 83 A7 83 
01658     78 83 4A 83 
0165c     1D 83 F2 82 
01660     C7 82 9E 82 | 	byte	$d7, $83, $a7, $83, $78, $83, $4a, $83, $1d, $83, $f2, $82, $c7, $82, $9e, $82
01664     77 82 50 82 
01668     2B 82 06 82 
0166c     E3 81 C2 81 
01670     A1 81 82 81 | 	byte	$77, $82, $50, $82, $2b, $82, $06, $82, $e3, $81, $c2, $81, $a1, $81, $82, $81
01674     64 81 47 81 
01678     2B 81 11 81 
0167c     F7 80 DF 80 
01680     C9 80 B3 80 | 	byte	$64, $81, $47, $81, $2b, $81, $11, $81, $f7, $80, $df, $80, $c9, $80, $b3, $80
01684     9F 80 8C 80 
01688     7A 80 69 80 
0168c     5A 80 4C 80 
01690     3F 80 33 80 | 	byte	$9f, $80, $8c, $80, $7a, $80, $69, $80, $5a, $80, $4c, $80, $3f, $80, $33, $80
01694     28 80 1F 80 
01698     17 80 10 80 
0169c     0B 80 07 80 
016a0     03 80 02 80 | 	byte	$28, $80, $1f, $80, $17, $80, $10, $80, $0b, $80, $07, $80, $03, $80, $02, $80
016a4     01 80 02 80 
016a8     03 80 07 80 
016ac     0B 80 10 80 
016b0     17 80 1F 80 | 	byte	$01, $80, $02, $80, $03, $80, $07, $80, $0b, $80, $10, $80, $17, $80, $1f, $80
016b4     28 80 33 80 
016b8     3F 80 4C 80 
016bc     5A 80 69 80 
016c0     7A 80 8C 80 | 	byte	$28, $80, $33, $80, $3f, $80, $4c, $80, $5a, $80, $69, $80, $7a, $80, $8c, $80
016c4     9F 80 B3 80 
016c8     C9 80 DF 80 
016cc     F7 80 11 81 
016d0     2B 81 47 81 | 	byte	$9f, $80, $b3, $80, $c9, $80, $df, $80, $f7, $80, $11, $81, $2b, $81, $47, $81
016d4     64 81 82 81 
016d8     A1 81 C2 81 
016dc     E3 81 06 82 
016e0     2B 82 50 82 | 	byte	$64, $81, $82, $81, $a1, $81, $c2, $81, $e3, $81, $06, $82, $2b, $82, $50, $82
016e4     77 82 9E 82 
016e8     C7 82 F2 82 
016ec     1D 83 4A 83 
016f0     78 83 A7 83 | 	byte	$77, $82, $9e, $82, $c7, $82, $f2, $82, $1d, $83, $4a, $83, $78, $83, $a7, $83
016f4     D7 83 08 84 
016f8     3B 84 6F 84 
016fc     A4 84 DA 84 
01700     12 85 4A 85 | 	byte	$d7, $83, $08, $84, $3b, $84, $6f, $84, $a4, $84, $da, $84, $12, $85, $4a, $85
01704     84 85 BF 85 
01708     FB 85 38 86 
0170c     77 86 B6 86 
01710     F7 86 39 87 | 	byte	$84, $85, $bf, $85, $fb, $85, $38, $86, $77, $86, $b6, $86, $f7, $86, $39, $87
01714     7C 87 C1 87 
01718     06 88 4D 88 
0171c     95 88 DE 88 
01720     28 89 73 89 | 	byte	$7c, $87, $c1, $87, $06, $88, $4d, $88, $95, $88, $de, $88, $28, $89, $73, $89
01724     BF 89 0D 8A 
01728     5B 8A AB 8A 
0172c     FC 8A 4E 8B 
01730     A1 8B F6 8B | 	byte	$bf, $89, $0d, $8a, $5b, $8a, $ab, $8a, $fc, $8a, $4e, $8b, $a1, $8b, $f6, $8b
01734     4B 8C A2 8C 
01738     F9 8C 52 8D 
0173c     AC 8D 07 8E 
01740     63 8E C0 8E | 	byte	$4b, $8c, $a2, $8c, $f9, $8c, $52, $8d, $ac, $8d, $07, $8e, $63, $8e, $c0, $8e
01744     1E 8F 7D 8F 
01748     DE 8F 3F 90 
0174c     A2 90 05 91 
01750     6A 91 D0 91 | 	byte	$1e, $8f, $7d, $8f, $de, $8f, $3f, $90, $a2, $90, $05, $91, $6a, $91, $d0, $91
01754     37 92 9F 92 
01758     08 93 72 93 
0175c     DD 93 49 94 
01760     B6 94 24 95 | 	byte	$37, $92, $9f, $92, $08, $93, $72, $93, $dd, $93, $49, $94, $b6, $94, $24, $95
01764     93 95 03 96 
01768     75 96 E7 96 
0176c     5A 97 CE 97 
01770     44 98 BA 98 | 	byte	$93, $95, $03, $96, $75, $96, $e7, $96, $5a, $97, $ce, $97, $44, $98, $ba, $98
01774     31 99 AA 99 
01778     23 9A 9D 9A 
0177c     18 9B 94 9B 
01780     12 9C 90 9C | 	byte	$31, $99, $aa, $99, $23, $9a, $9d, $9a, $18, $9b, $94, $9b, $12, $9c, $90, $9c
01784     0F 9D 8F 9D 
01788     10 9E 92 9E 
0178c     15 9F 98 9F 
01790     1D A0 A3 A0 | 	byte	$0f, $9d, $8f, $9d, $10, $9e, $92, $9e, $15, $9f, $98, $9f, $1d, $a0, $a3, $a0
01794     29 A1 B1 A1 
01798     39 A2 C2 A2 
0179c     4D A3 D8 A3 
017a0     64 A4 F1 A4 | 	byte	$29, $a1, $b1, $a1, $39, $a2, $c2, $a2, $4d, $a3, $d8, $a3, $64, $a4, $f1, $a4
017a4     7E A5 0D A6 
017a8     9C A6 2D A7 
017ac     BE A7 50 A8 
017b0     E3 A8 76 A9 | 	byte	$7e, $a5, $0d, $a6, $9c, $a6, $2d, $a7, $be, $a7, $50, $a8, $e3, $a8, $76, $a9
017b4     0B AA A0 AA 
017b8     37 AB CE AB 
017bc     65 AC FE AC 
017c0     98 AD 32 AE | 	byte	$0b, $aa, $a0, $aa, $37, $ab, $ce, $ab, $65, $ac, $fe, $ac, $98, $ad, $32, $ae
017c4     CD AE 69 AF 
017c8     05 B0 A3 B0 
017cc     41 B1 E0 B1 
017d0     7F B2 20 B3 | 	byte	$cd, $ae, $69, $af, $05, $b0, $a3, $b0, $41, $b1, $e0, $b1, $7f, $b2, $20, $b3
017d4     C1 B3 63 B4 
017d8     05 B5 A8 B5 
017dc     4C B6 F1 B6 
017e0     97 B7 3D B8 | 	byte	$c1, $b3, $63, $b4, $05, $b5, $a8, $b5, $4c, $b6, $f1, $b6, $97, $b7, $3d, $b8
017e4     E4 B8 8B B9 
017e8     33 BA DC BA 
017ec     86 BB 30 BC 
017f0     DB BC 86 BD | 	byte	$e4, $b8, $8b, $b9, $33, $ba, $dc, $ba, $86, $bb, $30, $bc, $db, $bc, $86, $bd
017f4     32 BE DF BE 
017f8     8D BF 3B C0 
017fc     E9 C0 98 C1 
01800     48 C2 F9 C2 | 	byte	$32, $be, $df, $be, $8d, $bf, $3b, $c0, $e9, $c0, $98, $c1, $48, $c2, $f9, $c2
01804     AA C3 5B C4 
01808     0E C5 C0 C5 
0180c     74 C6 27 C7 
01810     DC C7 91 C8 | 	byte	$aa, $c3, $5b, $c4, $0e, $c5, $c0, $c5, $74, $c6, $27, $c7, $dc, $c7, $91, $c8
01814     46 C9 FC C9 
01818     B3 CA 6A CB 
0181c     21 CC DA CC 
01820     92 CD 4B CE | 	byte	$46, $c9, $fc, $c9, $b3, $ca, $6a, $cb, $21, $cc, $da, $cc, $92, $cd, $4b, $ce
01824     05 CF BF CF 
01828     79 D0 34 D1 
0182c     EF D1 AB D2 
01830     67 D3 24 D4 | 	byte	$05, $cf, $bf, $cf, $79, $d0, $34, $d1, $ef, $d1, $ab, $d2, $67, $d3, $24, $d4
01834     E1 D4 9F D5 
01838     5D D6 1B D7 
0183c     DA D7 99 D8 
01840     58 D9 18 DA | 	byte	$e1, $d4, $9f, $d5, $5d, $d6, $1b, $d7, $da, $d7, $99, $d8, $58, $d9, $18, $da
01844     D8 DA 99 DB 
01848     5A DC 1B DD 
0184c     DD DD 9F DE 
01850     61 DF 23 E0 | 	byte	$d8, $da, $99, $db, $5a, $dc, $1b, $dd, $dd, $dd, $9f, $de, $61, $df, $23, $e0
01854     E6 E0 A9 E1 
01858     6D E2 31 E3 
0185c     F5 E3 B9 E4 
01860     7E E5 42 E6 | 	byte	$e6, $e0, $a9, $e1, $6d, $e2, $31, $e3, $f5, $e3, $b9, $e4, $7e, $e5, $42, $e6
01864     07 E7 CD E7 
01868     92 E8 58 E9 
0186c     1E EA E4 EA 
01870     AB EB 71 EC | 	byte	$07, $e7, $cd, $e7, $92, $e8, $58, $e9, $1e, $ea, $e4, $ea, $ab, $eb, $71, $ec
01874     38 ED FF ED 
01878     C6 EE 8E EF 
0187c     55 F0 1D F1 
01880     E4 F1 AC F2 | 	byte	$38, $ed, $ff, $ed, $c6, $ee, $8e, $ef, $55, $f0, $1d, $f1, $e4, $f1, $ac, $f2
01884     74 F3 3C F4 
01888     05 F5 CD F5 
0188c     96 F6 5E F7 
01890     27 F8 EF F8 | 	byte	$74, $f3, $3c, $f4, $05, $f5, $cd, $f5, $96, $f6, $5e, $f7, $27, $f8, $ef, $f8
01894     B8 F9 81 FA 
01898     4A FB 13 FC 
0189c     DC FC A5 FD 
018a0     6E FE 37 FF | 	byte	$b8, $f9, $81, $fa, $4a, $fb, $13, $fc, $dc, $fc, $a5, $fd, $6e, $fe, $37, $ff
018a4     73 32 00 04 
018a8     00 00 10 00 
018ac     00 00 00 00 
018b0     00 00 00 00 | zacke file "C:\s\zacke.s2"
018b4     00 00 8B 05 
018b8     14 0B 96 10 
018bc     10 16 7D 1B 
018c0     DD 20 2A 26 | 	byte	$00, $00, $8b, $05, $14, $0b, $96, $10, $10, $16, $7d, $1b, $dd, $20, $2a, $26
018c4     63 2B 86 30 
018c8     8F 35 7C 3A 
018cc     4A 3F F8 43 
018d0     82 48 E8 4C | 	byte	$63, $2b, $86, $30, $8f, $35, $7c, $3a, $4a, $3f, $f8, $43, $82, $48, $e8, $4c
018d4     27 51 3D 55 
018d8     28 59 E8 5C 
018dc     7A 60 DE 63 
018e0     12 67 16 6A | 	byte	$27, $51, $3d, $55, $28, $59, $e8, $5c, $7a, $60, $de, $63, $12, $67, $16, $6a
018e4     E8 6C 89 6F 
018e8     F7 71 32 74 
018ec     3B 76 12 78 
018f0     B6 79 27 7B | 	byte	$e8, $6c, $89, $6f, $f7, $71, $32, $74, $3b, $76, $12, $78, $b6, $79, $27, $7b
018f4     67 7C 76 7D 
018f8     55 7E 04 7F 
018fc     85 7F D8 7F 
01900     FF 7F FB 7F | 	byte	$67, $7c, $76, $7d, $55, $7e, $04, $7f, $85, $7f, $d8, $7f, $ff, $7f, $fb, $7f
01904     CE 7F 79 7F 
01908     FE 7E 5E 7E 
0190c     9C 7D B8 7C 
01910     B5 7B 94 7A | 	byte	$ce, $7f, $79, $7f, $fe, $7e, $5e, $7e, $9c, $7d, $b8, $7c, $b5, $7b, $94, $7a
01914     58 79 02 78 
01918     94 76 11 75 
0191c     7A 73 D0 71 
01920     17 70 50 6E | 	byte	$58, $79, $02, $78, $94, $76, $11, $75, $7a, $73, $d0, $71, $17, $70, $50, $6e
01924     7C 6C 9D 6A 
01928     B6 68 C8 66 
0192c     D4 64 DD 62 
01930     E3 60 E9 5E | 	byte	$7c, $6c, $9d, $6a, $b6, $68, $c8, $66, $d4, $64, $dd, $62, $e3, $60, $e9, $5e
01934     EF 5C F7 5A 
01938     02 59 12 57 
0193c     27 55 42 53 
01940     65 51 90 4F | 	byte	$ef, $5c, $f7, $5a, $02, $59, $12, $57, $27, $55, $42, $53, $65, $51, $90, $4f
01944     C4 4D 02 4C 
01948     4B 4A 9E 48 
0194c     FC 46 66 45 
01950     DC 43 5E 42 | 	byte	$c4, $4d, $02, $4c, $4b, $4a, $9e, $48, $fc, $46, $66, $45, $dc, $43, $5e, $42
01954     ED 40 88 3F 
01958     30 3E E4 3C 
0195c     A5 3B 72 3A 
01960     4B 39 30 38 | 	byte	$ed, $40, $88, $3f, $30, $3e, $e4, $3c, $a5, $3b, $72, $3a, $4b, $39, $30, $38
01964     21 37 1D 36 
01968     25 35 37 34 
0196c     53 33 7A 32 
01970     AB 31 E4 30 | 	byte	$21, $37, $1d, $36, $25, $35, $37, $34, $53, $33, $7a, $32, $ab, $31, $e4, $30
01974     27 30 72 2F 
01978     C5 2E 1F 2E 
0197c     81 2D E9 2C 
01980     58 2C CD 2B | 	byte	$27, $30, $72, $2f, $c5, $2e, $1f, $2e, $81, $2d, $e9, $2c, $58, $2c, $cd, $2b
01984     47 2B C6 2A 
01988     4A 2A D3 29 
0198c     5F 29 F0 28 
01990     84 28 1B 28 | 	byte	$47, $2b, $c6, $2a, $4a, $2a, $d3, $29, $5f, $29, $f0, $28, $84, $28, $1b, $28
01994     B5 27 52 27 
01998     F1 26 92 26 
0199c     36 26 DC 25 
019a0     83 25 2C 25 | 	byte	$b5, $27, $52, $27, $f1, $26, $92, $26, $36, $26, $dc, $25, $83, $25, $2c, $25
019a4     D7 24 83 24 
019a8     30 24 DE 23 
019ac     8E 23 3F 23 
019b0     F1 22 A4 22 | 	byte	$d7, $24, $83, $24, $30, $24, $de, $23, $8e, $23, $3f, $23, $f1, $22, $a4, $22
019b4     58 22 0D 22 
019b8     C3 21 7A 21 
019bc     32 21 EB 20 
019c0     A4 20 5F 20 | 	byte	$58, $22, $0d, $22, $c3, $21, $7a, $21, $32, $21, $eb, $20, $a4, $20, $5f, $20
019c4     1B 20 D7 1F 
019c8     94 1F 52 1F 
019cc     11 1F D1 1E 
019d0     92 1E 53 1E | 	byte	$1b, $20, $d7, $1f, $94, $1f, $52, $1f, $11, $1f, $d1, $1e, $92, $1e, $53, $1e
019d4     15 1E D8 1D 
019d8     9C 1D 60 1D 
019dc     25 1D EB 1C 
019e0     B1 1C 77 1C | 	byte	$15, $1e, $d8, $1d, $9c, $1d, $60, $1d, $25, $1d, $eb, $1c, $b1, $1c, $77, $1c
019e4     3F 1C 06 1C 
019e8     CE 1B 97 1B 
019ec     60 1B 29 1B 
019f0     F2 1A BC 1A | 	byte	$3f, $1c, $06, $1c, $ce, $1b, $97, $1b, $60, $1b, $29, $1b, $f2, $1a, $bc, $1a
019f4     86 1A 50 1A 
019f8     1A 1A E5 19 
019fc     B0 19 7A 19 
01a00     45 19 10 19 | 	byte	$86, $1a, $50, $1a, $1a, $1a, $e5, $19, $b0, $19, $7a, $19, $45, $19, $10, $19
01a04     DB 18 A7 18 
01a08     72 18 3E 18 
01a0c     0A 18 D6 17 
01a10     A2 17 6E 17 | 	byte	$db, $18, $a7, $18, $72, $18, $3e, $18, $0a, $18, $d6, $17, $a2, $17, $6e, $17
01a14     3B 17 08 17 
01a18     D6 16 A4 16 
01a1c     72 16 41 16 
01a20     11 16 E1 15 | 	byte	$3b, $17, $08, $17, $d6, $16, $a4, $16, $72, $16, $41, $16, $11, $16, $e1, $15
01a24     B2 15 83 15 
01a28     56 15 29 15 
01a2c     FD 14 D1 14 
01a30     A7 14 7E 14 | 	byte	$b2, $15, $83, $15, $56, $15, $29, $15, $fd, $14, $d1, $14, $a7, $14, $7e, $14
01a34     56 14 2E 14 
01a38     08 14 E3 13 
01a3c     BE 13 9B 13 
01a40     79 13 58 13 | 	byte	$56, $14, $2e, $14, $08, $14, $e3, $13, $be, $13, $9b, $13, $79, $13, $58, $13
01a44     38 13 19 13 
01a48     FB 12 DE 12 
01a4c     C2 12 A7 12 
01a50     8C 12 73 12 | 	byte	$38, $13, $19, $13, $fb, $12, $de, $12, $c2, $12, $a7, $12, $8c, $12, $73, $12
01a54     5A 12 42 12 
01a58     2B 12 14 12 
01a5c     FE 11 E8 11 
01a60     D2 11 BD 11 | 	byte	$5a, $12, $42, $12, $2b, $12, $14, $12, $fe, $11, $e8, $11, $d2, $11, $bd, $11
01a64     A8 11 94 11 
01a68     7F 11 6B 11 
01a6c     56 11 42 11 
01a70     2D 11 19 11 | 	byte	$a8, $11, $94, $11, $7f, $11, $6b, $11, $56, $11, $42, $11, $2d, $11, $19, $11
01a74     04 11 EE 10 
01a78     D9 10 C3 10 
01a7c     AD 10 96 10 
01a80     7F 10 68 10 | 	byte	$04, $11, $ee, $10, $d9, $10, $c3, $10, $ad, $10, $96, $10, $7f, $10, $68, $10
01a84     50 10 37 10 
01a88     1F 10 05 10 
01a8c     EC 0F D2 0F 
01a90     B7 0F 9C 0F | 	byte	$50, $10, $37, $10, $1f, $10, $05, $10, $ec, $0f, $d2, $0f, $b7, $0f, $9c, $0f
01a94     81 0F 66 0F 
01a98     4A 0F 2E 0F 
01a9c     12 0F F5 0E 
01aa0     D9 0E BD 0E | 	byte	$81, $0f, $66, $0f, $4a, $0f, $2e, $0f, $12, $0f, $f5, $0e, $d9, $0e, $bd, $0e
01aa4     A0 0E 84 0E 
01aa8     68 0E 4C 0E 
01aac     30 0E 14 0E 
01ab0     F9 0D DE 0D | 	byte	$a0, $0e, $84, $0e, $68, $0e, $4c, $0e, $30, $0e, $14, $0e, $f9, $0d, $de, $0d
01ab4     C4 0D AA 0D 
01ab8     90 0D 77 0D 
01abc     5E 0D 46 0D 
01ac0     2F 0D 18 0D | 	byte	$c4, $0d, $aa, $0d, $90, $0d, $77, $0d, $5e, $0d, $46, $0d, $2f, $0d, $18, $0d
01ac4     02 0D EC 0C 
01ac8     D7 0C C2 0C 
01acc     AE 0C 9A 0C 
01ad0     87 0C 75 0C | 	byte	$02, $0d, $ec, $0c, $d7, $0c, $c2, $0c, $ae, $0c, $9a, $0c, $87, $0c, $75, $0c
01ad4     63 0C 51 0C 
01ad8     40 0C 2F 0C 
01adc     1F 0C 0F 0C 
01ae0     FF 0B EF 0B | 	byte	$63, $0c, $51, $0c, $40, $0c, $2f, $0c, $1f, $0c, $0f, $0c, $ff, $0b, $ef, $0b
01ae4     DF 0B D0 0B 
01ae8     C0 0B B1 0B 
01aec     A2 0B 92 0B 
01af0     82 0B 73 0B | 	byte	$df, $0b, $d0, $0b, $c0, $0b, $b1, $0b, $a2, $0b, $92, $0b, $82, $0b, $73, $0b
01af4     63 0B 53 0B 
01af8     42 0B 32 0B 
01afc     21 0B 0F 0B 
01b00     FE 0A EC 0A | 	byte	$63, $0b, $53, $0b, $42, $0b, $32, $0b, $21, $0b, $0f, $0b, $fe, $0a, $ec, $0a
01b04     DA 0A C7 0A 
01b08     B4 0A A1 0A 
01b0c     8E 0A 7A 0A 
01b10     66 0A 51 0A | 	byte	$da, $0a, $c7, $0a, $b4, $0a, $a1, $0a, $8e, $0a, $7a, $0a, $66, $0a, $51, $0a
01b14     3D 0A 28 0A 
01b18     13 0A FF 09 
01b1c     EA 09 D5 09 
01b20     C0 09 AB 09 | 	byte	$3d, $0a, $28, $0a, $13, $0a, $ff, $09, $ea, $09, $d5, $09, $c0, $09, $ab, $09
01b24     96 09 81 09 
01b28     6D 09 59 09 
01b2c     45 09 31 09 
01b30     1E 09 0C 09 | 	byte	$96, $09, $81, $09, $6d, $09, $59, $09, $45, $09, $31, $09, $1e, $09, $0c, $09
01b34     F9 08 E8 08 
01b38     D6 08 C6 08 
01b3c     B5 08 A6 08 
01b40     97 08 88 08 | 	byte	$f9, $08, $e8, $08, $d6, $08, $c6, $08, $b5, $08, $a6, $08, $97, $08, $88, $08
01b44     7B 08 6D 08 
01b48     61 08 55 08 
01b4c     49 08 3E 08 
01b50     33 08 29 08 | 	byte	$7b, $08, $6d, $08, $61, $08, $55, $08, $49, $08, $3e, $08, $33, $08, $29, $08
01b54     20 08 17 08 
01b58     0E 08 05 08 
01b5c     FD 07 F5 07 
01b60     ED 07 E6 07 | 	byte	$20, $08, $17, $08, $0e, $08, $05, $08, $fd, $07, $f5, $07, $ed, $07, $e6, $07
01b64     DE 07 D6 07 
01b68     CF 07 C7 07 
01b6c     BF 07 B7 07 
01b70     AF 07 A6 07 | 	byte	$de, $07, $d6, $07, $cf, $07, $c7, $07, $bf, $07, $b7, $07, $af, $07, $a6, $07
01b74     9E 07 94 07 
01b78     8B 07 81 07 
01b7c     76 07 6B 07 
01b80     60 07 54 07 | 	byte	$9e, $07, $94, $07, $8b, $07, $81, $07, $76, $07, $6b, $07, $60, $07, $54, $07
01b84     47 07 3A 07 
01b88     2D 07 1F 07 
01b8c     11 07 02 07 
01b90     F2 06 E2 06 | 	byte	$47, $07, $3a, $07, $2d, $07, $1f, $07, $11, $07, $02, $07, $f2, $06, $e2, $06
01b94     D2 06 C1 06 
01b98     B0 06 9F 06 
01b9c     8E 06 7C 06 
01ba0     6A 06 58 06 | 	byte	$d2, $06, $c1, $06, $b0, $06, $9f, $06, $8e, $06, $7c, $06, $6a, $06, $58, $06
01ba4     46 06 34 06 
01ba8     23 06 11 06 
01bac     FF 05 EE 05 
01bb0     DD 05 CC 05 | 	byte	$46, $06, $34, $06, $23, $06, $11, $06, $ff, $05, $ee, $05, $dd, $05, $cc, $05
01bb4     BC 05 AC 05 
01bb8     9D 05 8E 05 
01bbc     7F 05 72 05 
01bc0     64 05 58 05 | 	byte	$bc, $05, $ac, $05, $9d, $05, $8e, $05, $7f, $05, $72, $05, $64, $05, $58, $05
01bc4     4C 05 40 05 
01bc8     35 05 2B 05 
01bcc     22 05 19 05 
01bd0     10 05 08 05 | 	byte	$4c, $05, $40, $05, $35, $05, $2b, $05, $22, $05, $19, $05, $10, $05, $08, $05
01bd4     01 05 FA 04 
01bd8     F4 04 EE 04 
01bdc     E8 04 E3 04 
01be0     DE 04 D9 04 | 	byte	$01, $05, $fa, $04, $f4, $04, $ee, $04, $e8, $04, $e3, $04, $de, $04, $d9, $04
01be4     D4 04 D0 04 
01be8     CB 04 C6 04 
01bec     C1 04 BC 04 
01bf0     B7 04 B2 04 | 	byte	$d4, $04, $d0, $04, $cb, $04, $c6, $04, $c1, $04, $bc, $04, $b7, $04, $b2, $04
01bf4     AC 04 A6 04 
01bf8     9F 04 98 04 
01bfc     90 04 87 04 
01c00     7E 04 75 04 | 	byte	$ac, $04, $a6, $04, $9f, $04, $98, $04, $90, $04, $87, $04, $7e, $04, $75, $04
01c04     6A 04 5F 04 
01c08     53 04 47 04 
01c0c     3A 04 2C 04 
01c10     1D 04 0D 04 | 	byte	$6a, $04, $5f, $04, $53, $04, $47, $04, $3a, $04, $2c, $04, $1d, $04, $0d, $04
01c14     FD 03 ED 03 
01c18     DB 03 C9 03 
01c1c     B7 03 A4 03 
01c20     90 03 7C 03 | 	byte	$fd, $03, $ed, $03, $db, $03, $c9, $03, $b7, $03, $a4, $03, $90, $03, $7c, $03
01c24     68 03 54 03 
01c28     3F 03 2A 03 
01c2c     16 03 01 03 
01c30     EC 02 D7 02 | 	byte	$68, $03, $54, $03, $3f, $03, $2a, $03, $16, $03, $01, $03, $ec, $02, $d7, $02
01c34     C3 02 AE 02 
01c38     9A 02 87 02 
01c3c     74 02 61 02 
01c40     4F 02 3D 02 | 	byte	$c3, $02, $ae, $02, $9a, $02, $87, $02, $74, $02, $61, $02, $4f, $02, $3d, $02
01c44     2D 02 1C 02 
01c48     0D 02 FE 01 
01c4c     F0 01 E3 01 
01c50     D6 01 CA 01 | 	byte	$2d, $02, $1c, $02, $0d, $02, $fe, $01, $f0, $01, $e3, $01, $d6, $01, $ca, $01
01c54     BF 01 B5 01 
01c58     AB 01 A2 01 
01c5c     9A 01 92 01 
01c60     8B 01 85 01 | 	byte	$bf, $01, $b5, $01, $ab, $01, $a2, $01, $9a, $01, $92, $01, $8b, $01, $85, $01
01c64     7F 01 7A 01 
01c68     75 01 70 01 
01c6c     6B 01 67 01 
01c70     63 01 5F 01 | 	byte	$7f, $01, $7a, $01, $75, $01, $70, $01, $6b, $01, $67, $01, $63, $01, $5f, $01
01c74     5B 01 57 01 
01c78     53 01 4F 01 
01c7c     4A 01 45 01 
01c80     40 01 3B 01 | 	byte	$5b, $01, $57, $01, $53, $01, $4f, $01, $4a, $01, $45, $01, $40, $01, $3b, $01
01c84     35 01 2E 01 
01c88     27 01 20 01 
01c8c     18 01 0F 01 
01c90     05 01 FB 00 | 	byte	$35, $01, $2e, $01, $27, $01, $20, $01, $18, $01, $0f, $01, $05, $01, $fb, $00
01c94     F1 00 E6 00 
01c98     DA 00 CD 00 
01c9c     C0 00 B2 00 
01ca0     A4 00 95 00 | 	byte	$f1, $00, $e6, $00, $da, $00, $cd, $00, $c0, $00, $b2, $00, $a4, $00, $95, $00
01ca4     86 00 76 00 
01ca8     66 00 56 00 
01cac     45 00 34 00 
01cb0     23 00 11 00 | 	byte	$86, $00, $76, $00, $66, $00, $56, $00, $45, $00, $34, $00, $23, $00, $11, $00
01cb4     00 00 EF FF 
01cb8     DD FF CC FF 
01cbc     BB FF AA FF 
01cc0     9A FF 8A FF | 	byte	$00, $00, $ef, $ff, $dd, $ff, $cc, $ff, $bb, $ff, $aa, $ff, $9a, $ff, $8a, $ff
01cc4     7A FF 6B FF 
01cc8     5C FF 4E FF 
01ccc     40 FF 33 FF 
01cd0     26 FF 1A FF | 	byte	$7a, $ff, $6b, $ff, $5c, $ff, $4e, $ff, $40, $ff, $33, $ff, $26, $ff, $1a, $ff
01cd4     0F FF 05 FF 
01cd8     FB FE F1 FE 
01cdc     E8 FE E0 FE 
01ce0     D9 FE D2 FE | 	byte	$0f, $ff, $05, $ff, $fb, $fe, $f1, $fe, $e8, $fe, $e0, $fe, $d9, $fe, $d2, $fe
01ce4     CB FE C5 FE 
01ce8     C0 FE BB FE 
01cec     B6 FE B1 FE 
01cf0     AD FE A9 FE | 	byte	$cb, $fe, $c5, $fe, $c0, $fe, $bb, $fe, $b6, $fe, $b1, $fe, $ad, $fe, $a9, $fe
01cf4     A5 FE A1 FE 
01cf8     9D FE 99 FE 
01cfc     95 FE 90 FE 
01d00     8B FE 86 FE | 	byte	$a5, $fe, $a1, $fe, $9d, $fe, $99, $fe, $95, $fe, $90, $fe, $8b, $fe, $86, $fe
01d04     81 FE 7B FE 
01d08     75 FE 6E FE 
01d0c     66 FE 5E FE 
01d10     55 FE 4B FE | 	byte	$81, $fe, $7b, $fe, $75, $fe, $6e, $fe, $66, $fe, $5e, $fe, $55, $fe, $4b, $fe
01d14     41 FE 36 FE 
01d18     2A FE 1D FE 
01d1c     10 FE 02 FE 
01d20     F3 FD E4 FD | 	byte	$41, $fe, $36, $fe, $2a, $fe, $1d, $fe, $10, $fe, $02, $fe, $f3, $fd, $e4, $fd
01d24     D3 FD C3 FD 
01d28     B1 FD 9F FD 
01d2c     8C FD 79 FD 
01d30     66 FD 52 FD | 	byte	$d3, $fd, $c3, $fd, $b1, $fd, $9f, $fd, $8c, $fd, $79, $fd, $66, $fd, $52, $fd
01d34     3D FD 29 FD 
01d38     14 FD FF FC 
01d3c     EA FC D6 FC 
01d40     C1 FC AC FC | 	byte	$3d, $fd, $29, $fd, $14, $fd, $ff, $fc, $ea, $fc, $d6, $fc, $c1, $fc, $ac, $fc
01d44     98 FC 84 FC 
01d48     70 FC 5C FC 
01d4c     49 FC 37 FC 
01d50     25 FC 13 FC | 	byte	$98, $fc, $84, $fc, $70, $fc, $5c, $fc, $49, $fc, $37, $fc, $25, $fc, $13, $fc
01d54     03 FC F3 FB 
01d58     E3 FB D4 FB 
01d5c     C6 FB B9 FB 
01d60     AD FB A1 FB | 	byte	$03, $fc, $f3, $fb, $e3, $fb, $d4, $fb, $c6, $fb, $b9, $fb, $ad, $fb, $a1, $fb
01d64     96 FB 8B FB 
01d68     82 FB 79 FB 
01d6c     70 FB 68 FB 
01d70     61 FB 5A FB | 	byte	$96, $fb, $8b, $fb, $82, $fb, $79, $fb, $70, $fb, $68, $fb, $61, $fb, $5a, $fb
01d74     54 FB 4E FB 
01d78     49 FB 44 FB 
01d7c     3F FB 3A FB 
01d80     35 FB 30 FB | 	byte	$54, $fb, $4e, $fb, $49, $fb, $44, $fb, $3f, $fb, $3a, $fb, $35, $fb, $30, $fb
01d84     2C FB 27 FB 
01d88     22 FB 1D FB 
01d8c     18 FB 12 FB 
01d90     0C FB 06 FB | 	byte	$2c, $fb, $27, $fb, $22, $fb, $1d, $fb, $18, $fb, $12, $fb, $0c, $fb, $06, $fb
01d94     FF FA F8 FA 
01d98     F0 FA E7 FA 
01d9c     DE FA D5 FA 
01da0     CB FA C0 FA | 	byte	$ff, $fa, $f8, $fa, $f0, $fa, $e7, $fa, $de, $fa, $d5, $fa, $cb, $fa, $c0, $fa
01da4     B4 FA A8 FA 
01da8     9C FA 8E FA 
01dac     81 FA 72 FA 
01db0     63 FA 54 FA | 	byte	$b4, $fa, $a8, $fa, $9c, $fa, $8e, $fa, $81, $fa, $72, $fa, $63, $fa, $54, $fa
01db4     44 FA 34 FA 
01db8     23 FA 12 FA 
01dbc     01 FA EF F9 
01dc0     DD F9 CC F9 | 	byte	$44, $fa, $34, $fa, $23, $fa, $12, $fa, $01, $fa, $ef, $f9, $dd, $f9, $cc, $f9
01dc4     BA F9 A8 F9 
01dc8     96 F9 84 F9 
01dcc     72 F9 61 F9 
01dd0     50 F9 3F F9 | 	byte	$ba, $f9, $a8, $f9, $96, $f9, $84, $f9, $72, $f9, $61, $f9, $50, $f9, $3f, $f9
01dd4     2E F9 1E F9 
01dd8     0E F9 FE F8 
01ddc     EF F8 E1 F8 
01de0     D3 F8 C6 F8 | 	byte	$2e, $f9, $1e, $f9, $0e, $f9, $fe, $f8, $ef, $f8, $e1, $f8, $d3, $f8, $c6, $f8
01de4     B9 F8 AC F8 
01de8     A0 F8 95 F8 
01dec     8A F8 7F F8 
01df0     75 F8 6C F8 | 	byte	$b9, $f8, $ac, $f8, $a0, $f8, $95, $f8, $8a, $f8, $7f, $f8, $75, $f8, $6c, $f8
01df4     62 F8 5A F8 
01df8     51 F8 49 F8 
01dfc     41 F8 39 F8 
01e00     31 F8 2A F8 | 	byte	$62, $f8, $5a, $f8, $51, $f8, $49, $f8, $41, $f8, $39, $f8, $31, $f8, $2a, $f8
01e04     22 F8 1A F8 
01e08     13 F8 0B F8 
01e0c     03 F8 FB F7 
01e10     F2 F7 E9 F7 | 	byte	$22, $f8, $1a, $f8, $13, $f8, $0b, $f8, $03, $f8, $fb, $f7, $f2, $f7, $e9, $f7
01e14     E0 F7 D7 F7 
01e18     CD F7 C2 F7 
01e1c     B7 F7 AB F7 
01e20     9F F7 93 F7 | 	byte	$e0, $f7, $d7, $f7, $cd, $f7, $c2, $f7, $b7, $f7, $ab, $f7, $9f, $f7, $93, $f7
01e24     85 F7 78 F7 
01e28     69 F7 5A F7 
01e2c     4B F7 3A F7 
01e30     2A F7 18 F7 | 	byte	$85, $f7, $78, $f7, $69, $f7, $5a, $f7, $4b, $f7, $3a, $f7, $2a, $f7, $18, $f7
01e34     07 F7 F4 F6 
01e38     E2 F6 CF F6 
01e3c     BB F6 A7 F6 
01e40     93 F6 7F F6 | 	byte	$07, $f7, $f4, $f6, $e2, $f6, $cf, $f6, $bb, $f6, $a7, $f6, $93, $f6, $7f, $f6
01e44     6A F6 55 F6 
01e48     40 F6 2B F6 
01e4c     16 F6 01 F6 
01e50     ED F5 D8 F5 | 	byte	$6a, $f6, $55, $f6, $40, $f6, $2b, $f6, $16, $f6, $01, $f6, $ed, $f5, $d8, $f5
01e54     C3 F5 AF F5 
01e58     9A F5 86 F5 
01e5c     72 F5 5F F5 
01e60     4C F5 39 F5 | 	byte	$c3, $f5, $af, $f5, $9a, $f5, $86, $f5, $72, $f5, $5f, $f5, $4c, $f5, $39, $f5
01e64     26 F5 14 F5 
01e68     02 F5 F1 F4 
01e6c     DF F4 CE F4 
01e70     BE F4 AD F4 | 	byte	$26, $f5, $14, $f5, $02, $f5, $f1, $f4, $df, $f4, $ce, $f4, $be, $f4, $ad, $f4
01e74     9D F4 8D F4 
01e78     7E F4 6E F4 
01e7c     5E F4 4F F4 
01e80     40 F4 30 F4 | 	byte	$9d, $f4, $8d, $f4, $7e, $f4, $6e, $f4, $5e, $f4, $4f, $f4, $40, $f4, $30, $f4
01e84     21 F4 11 F4 
01e88     01 F4 F1 F3 
01e8c     E1 F3 D1 F3 
01e90     C0 F3 AF F3 | 	byte	$21, $f4, $11, $f4, $01, $f4, $f1, $f3, $e1, $f3, $d1, $f3, $c0, $f3, $af, $f3
01e94     9D F3 8B F3 
01e98     79 F3 66 F3 
01e9c     52 F3 3E F3 
01ea0     29 F3 14 F3 | 	byte	$9d, $f3, $8b, $f3, $79, $f3, $66, $f3, $52, $f3, $3e, $f3, $29, $f3, $14, $f3
01ea4     FE F2 E8 F2 
01ea8     D1 F2 BA F2 
01eac     A2 F2 89 F2 
01eb0     70 F2 56 F2 | 	byte	$fe, $f2, $e8, $f2, $d1, $f2, $ba, $f2, $a2, $f2, $89, $f2, $70, $f2, $56, $f2
01eb4     3C F2 22 F2 
01eb8     07 F2 EC F1 
01ebc     D0 F1 B4 F1 
01ec0     98 F1 7C F1 | 	byte	$3c, $f2, $22, $f2, $07, $f2, $ec, $f1, $d0, $f1, $b4, $f1, $98, $f1, $7c, $f1
01ec4     60 F1 43 F1 
01ec8     27 F1 0B F1 
01ecc     EE F0 D2 F0 
01ed0     B6 F0 9A F0 | 	byte	$60, $f1, $43, $f1, $27, $f1, $0b, $f1, $ee, $f0, $d2, $f0, $b6, $f0, $9a, $f0
01ed4     7F F0 64 F0 
01ed8     49 F0 2E F0 
01edc     14 F0 FB EF 
01ee0     E1 EF C9 EF | 	byte	$7f, $f0, $64, $f0, $49, $f0, $2e, $f0, $14, $f0, $fb, $ef, $e1, $ef, $c9, $ef
01ee4     B0 EF 98 EF 
01ee8     81 EF 6A EF 
01eec     53 EF 3D EF 
01ef0     27 EF 12 EF | 	byte	$b0, $ef, $98, $ef, $81, $ef, $6a, $ef, $53, $ef, $3d, $ef, $27, $ef, $12, $ef
01ef4     FC EE E7 EE 
01ef8     D3 EE BE EE 
01efc     AA EE 95 EE 
01f00     81 EE 6C EE | 	byte	$fc, $ee, $e7, $ee, $d3, $ee, $be, $ee, $aa, $ee, $95, $ee, $81, $ee, $6c, $ee
01f04     58 EE 43 EE 
01f08     2E EE 18 EE 
01f0c     02 EE EC ED 
01f10     D5 ED BE ED | 	byte	$58, $ee, $43, $ee, $2e, $ee, $18, $ee, $02, $ee, $ec, $ed, $d5, $ed, $be, $ed
01f14     A6 ED 8D ED 
01f18     74 ED 59 ED 
01f1c     3E ED 22 ED 
01f20     05 ED E7 EC | 	byte	$a6, $ed, $8d, $ed, $74, $ed, $59, $ed, $3e, $ed, $22, $ed, $05, $ed, $e7, $ec
01f24     C8 EC A8 EC 
01f28     87 EC 65 EC 
01f2c     42 EC 1D EC 
01f30     F8 EB D2 EB | 	byte	$c8, $ec, $a8, $ec, $87, $ec, $65, $ec, $42, $ec, $1d, $ec, $f8, $eb, $d2, $eb
01f34     AA EB 82 EB 
01f38     59 EB 2F EB 
01f3c     03 EB D7 EA 
01f40     AA EA 7D EA | 	byte	$aa, $eb, $82, $eb, $59, $eb, $2f, $eb, $03, $eb, $d7, $ea, $aa, $ea, $7d, $ea
01f44     4E EA 1F EA 
01f48     EF E9 BF E9 
01f4c     8E E9 5C E9 
01f50     2A E9 F8 E8 | 	byte	$4e, $ea, $1f, $ea, $ef, $e9, $bf, $e9, $8e, $e9, $5c, $e9, $2a, $e9, $f8, $e8
01f54     C5 E8 92 E8 
01f58     5E E8 2A E8 
01f5c     F6 E7 C2 E7 
01f60     8E E7 59 E7 | 	byte	$c5, $e8, $92, $e8, $5e, $e8, $2a, $e8, $f6, $e7, $c2, $e7, $8e, $e7, $59, $e7
01f64     25 E7 F0 E6 
01f68     BB E6 86 E6 
01f6c     50 E6 1B E6 
01f70     E6 E5 B0 E5 | 	byte	$25, $e7, $f0, $e6, $bb, $e6, $86, $e6, $50, $e6, $1b, $e6, $e6, $e5, $b0, $e5
01f74     7A E5 44 E5 
01f78     0E E5 D7 E4 
01f7c     A0 E4 69 E4 
01f80     32 E4 FA E3 | 	byte	$7a, $e5, $44, $e5, $0e, $e5, $d7, $e4, $a0, $e4, $69, $e4, $32, $e4, $fa, $e3
01f84     C1 E3 89 E3 
01f88     4F E3 15 E3 
01f8c     DB E2 A0 E2 
01f90     64 E2 28 E2 | 	byte	$c1, $e3, $89, $e3, $4f, $e3, $15, $e3, $db, $e2, $a0, $e2, $64, $e2, $28, $e2
01f94     EB E1 AD E1 
01f98     6E E1 2F E1 
01f9c     EF E0 AE E0 
01fa0     6C E0 29 E0 | 	byte	$eb, $e1, $ad, $e1, $6e, $e1, $2f, $e1, $ef, $e0, $ae, $e0, $6c, $e0, $29, $e0
01fa4     E5 DF A1 DF 
01fa8     5C DF 15 DF 
01fac     CE DE 86 DE 
01fb0     3D DE F3 DD | 	byte	$e5, $df, $a1, $df, $5c, $df, $15, $df, $ce, $de, $86, $de, $3d, $de, $f3, $dd
01fb4     A8 DD 5C DD 
01fb8     0F DD C1 DC 
01fbc     72 DC 22 DC 
01fc0     D0 DB 7D DB | 	byte	$a8, $dd, $5c, $dd, $0f, $dd, $c1, $dc, $72, $dc, $22, $dc, $d0, $db, $7d, $db
01fc4     29 DB D4 DA 
01fc8     7D DA 24 DA 
01fcc     CA D9 6E D9 
01fd0     0F D9 AE D8 | 	byte	$29, $db, $d4, $da, $7d, $da, $24, $da, $ca, $d9, $6e, $d9, $0f, $d9, $ae, $d8
01fd4     4B D8 E5 D7 
01fd8     7C D7 10 D7 
01fdc     A1 D6 2D D6 
01fe0     B6 D5 3A D5 | 	byte	$4b, $d8, $e5, $d7, $7c, $d7, $10, $d7, $a1, $d6, $2d, $d6, $b6, $d5, $3a, $d5
01fe4     B9 D4 33 D4 
01fe8     A8 D3 17 D3 
01fec     7F D2 E1 D1 
01ff0     3B D1 8E D0 | 	byte	$b9, $d4, $33, $d4, $a8, $d3, $17, $d3, $7f, $d2, $e1, $d1, $3b, $d1, $8e, $d0
01ff4     D9 CF 1C CF 
01ff8     55 CE 86 CD 
01ffc     AD CC C9 CB 
02000     DB CA E3 C9 | 	byte	$d9, $cf, $1c, $cf, $55, $ce, $86, $cd, $ad, $cc, $c9, $cb, $db, $ca, $e3, $c9
02004     DF C8 D0 C7 
02008     B5 C6 8E C5 
0200c     5B C4 1C C3 
02010     D0 C1 78 C0 | 	byte	$df, $c8, $d0, $c7, $b5, $c6, $8e, $c5, $5b, $c4, $1c, $c3, $d0, $c1, $78, $c0
02014     13 BF A2 BD 
02018     24 BC 9A BA 
0201c     04 B9 62 B7 
02020     B5 B5 FE B3 | 	byte	$13, $bf, $a2, $bd, $24, $bc, $9a, $ba, $04, $b9, $62, $b7, $b5, $b5, $fe, $b3
02024     3C B2 70 B0 
02028     9B AE BE AC 
0202c     D9 AA EE A8 
02030     FE A6 09 A5 | 	byte	$3c, $b2, $70, $b0, $9b, $ae, $be, $ac, $d9, $aa, $ee, $a8, $fe, $a6, $09, $a5
02034     11 A3 17 A1 
02038     1D 9F 23 9D 
0203c     2C 9B 38 99 
02040     4A 97 63 95 | 	byte	$11, $a3, $17, $a1, $1d, $9f, $23, $9d, $2c, $9b, $38, $99, $4a, $97, $63, $95
02044     84 93 B0 91 
02048     E9 8F 30 8E 
0204c     86 8C EF 8A 
02050     6C 89 FE 87 | 	byte	$84, $93, $b0, $91, $e9, $8f, $30, $8e, $86, $8c, $ef, $8a, $6c, $89, $fe, $87
02054     A8 86 6C 85 
02058     4B 84 48 83 
0205c     64 82 A2 81 
02060     02 81 87 80 | 	byte	$a8, $86, $6c, $85, $4b, $84, $48, $83, $64, $82, $a2, $81, $02, $81, $87, $80
02064     32 80 05 80 
02068     01 80 28 80 
0206c     7B 80 FC 80 
02070     AB 81 8A 82 | 	byte	$32, $80, $05, $80, $01, $80, $28, $80, $7b, $80, $fc, $80, $ab, $81, $8a, $82
02074     99 83 D9 84 
02078     4A 86 EE 87 
0207c     C5 89 CE 8B 
02080     09 8E 77 90 | 	byte	$99, $83, $d9, $84, $4a, $86, $ee, $87, $c5, $89, $ce, $8b, $09, $8e, $77, $90
02084     18 93 EA 95 
02088     EE 98 22 9C 
0208c     86 9F 18 A3 
02090     D8 A6 C3 AA | 	byte	$18, $93, $ea, $95, $ee, $98, $22, $9c, $86, $9f, $18, $a3, $d8, $a6, $c3, $aa
02094     D9 AE 18 B3 
02098     7E B7 08 BC 
0209c     B6 C0 84 C5 
020a0     71 CA 7A CF | 	byte	$d9, $ae, $18, $b3, $7e, $b7, $08, $bc, $b6, $c0, $84, $c5, $71, $ca, $7a, $cf
020a4     9D D4 D6 D9 
020a8     23 DF 83 E4 
020ac     F0 E9 6A EF 
020b0     EC F4 75 FA | 	byte	$9d, $d4, $d6, $d9, $23, $df, $83, $e4, $f0, $e9, $6a, $ef, $ec, $f4, $75, $fa
020b4     60 5F 5E 5E 
020b8     5E 5F 61 64 
020bc     67 6A 6E 72 
020c0     77 7B 81 86 | synvox file "c:\xi\test.pcm"
020c4     8B 90 96 9B 
020c8     A0 A6 AB AF 
020cc     B3 B7 BA BC 
020d0     BD BE BE BD | 	byte	$8b, $90, $96, $9b, $a0, $a6, $ab, $af, $b3, $b7, $ba, $bc, $bd, $be, $be, $bd
020d4     BC B9 B7 B4 
020d8     B0 AC A8 A4 
020dc     A0 9C 98 95 
020e0     91 8E 8C 8A | 	byte	$bc, $b9, $b7, $b4, $b0, $ac, $a8, $a4, $a0, $9c, $98, $95, $91, $8e, $8c, $8a
020e4     88 87 86 86 
020e8     87 87 88 89 
020ec     8A 89 87 83 
020f0     7C 74 6A 5E | 	byte	$88, $87, $86, $86, $87, $87, $88, $89, $8a, $89, $87, $83, $7c, $74, $6a, $5e
020f4     51 44 37 2B 
020f8     20 17 0F 0B 
020fc     08 08 0B 10 
02100     17 20 2A 36 | 	byte	$51, $44, $37, $2b, $20, $17, $0f, $0b, $08, $08, $0b, $10, $17, $20, $2a, $36
02104     42 4E 5B 68 
02108     74 7F 8A 94 
0210c     9D A6 AD B3 
02110     B8 BC BF C1 | 	byte	$42, $4e, $5b, $68, $74, $7f, $8a, $94, $9d, $a6, $ad, $b3, $b8, $bc, $bf, $c1
02114     C2 C1 C0 BE 
02118     BB B8 B5 B2 
0211c     AE AB A9 A6 
02120     A3 A1 9E 9C | 	byte	$c2, $c1, $c0, $be, $bb, $b8, $b5, $b2, $ae, $ab, $a9, $a6, $a3, $a1, $9e, $9c
02124     9A 98 96 94 
02128     93 92 91 90 
0212c     8F 8F 8F 8F 
02130     8F 8F 90 91 | 	byte	$9a, $98, $96, $94, $93, $92, $91, $90, $8f, $8f, $8f, $8f, $8f, $8f, $90, $91
02134     91 92 93 93 
02138     94 95 96 97 
0213c     98 99 9A 9A 
02140     9A 99 96 92 | 	byte	$91, $92, $93, $93, $94, $95, $96, $97, $98, $99, $9a, $9a, $9a, $99, $96, $92
02144     8A 81 75 68 
02148     59 4A 3C 2D 
0214c     21 15 0C 06 
02150     02 00 01 05 | 	byte	$8a, $81, $75, $68, $59, $4a, $3c, $2d, $21, $15, $0c, $06, $02, $00, $01, $05
02154     0B 13 1D 29 
02158     35 42 4F 5C 
0215c     69 75 81 8C 
02160     96 A0 A8 AF | 	byte	$0b, $13, $1d, $29, $35, $42, $4f, $5c, $69, $75, $81, $8c, $96, $a0, $a8, $af
02164     B5 BA BE C1 
02168     C3 C3 C3 C1 
0216c     BF BC B9 B6 
02170     B3 B0 AD AA | 	byte	$b5, $ba, $be, $c1, $c3, $c3, $c3, $c1, $bf, $bc, $b9, $b6, $b3, $b0, $ad, $aa
02174     A7 A4 A1 9F 
02178     9C 9A 97 95 
0217c     93 92 90 8F 
02180     8E 8E 8D 8D | 	byte	$a7, $a4, $a1, $9f, $9c, $9a, $97, $95, $93, $92, $90, $8f, $8e, $8e, $8d, $8d
02184     8D 8D 8E 8F 
02188     8F 90 91 92 
0218c     93 94 95 96 
02190     97 98 99 9A | 	byte	$8d, $8d, $8e, $8f, $8f, $90, $91, $92, $93, $94, $95, $96, $97, $98, $99, $9a
02194     9A 9A 98 95 
02198     8F 87 7C 70 
0219c     62 53 44 35 
021a0     28 1C 12 0A | 	byte	$9a, $9a, $98, $95, $8f, $87, $7c, $70, $62, $53, $44, $35, $28, $1c, $12, $0a
021a4     04 01 01 03 
021a8     08 0F 18 22 
021ac     2E 3B 48 55 
021b0     62 6F 7B 86 | 	byte	$04, $01, $01, $03, $08, $0f, $18, $22, $2e, $3b, $48, $55, $62, $6f, $7b, $86
021b4     91 9A A3 AB 
021b8     B2 B8 BC C0 
021bc     C2 C3 C3 C2 
021c0     C1 BE BB B8 | 	byte	$91, $9a, $a3, $ab, $b2, $b8, $bc, $c0, $c2, $c3, $c3, $c2, $c1, $be, $bb, $b8
021c4     B5 B2 AF AC 
021c8     A9 A6 A3 A0 
021cc     9E 9B 99 96 
021d0     94 93 91 90 | 	byte	$b5, $b2, $af, $ac, $a9, $a6, $a3, $a0, $9e, $9b, $99, $96, $94, $93, $91, $90
021d4     8F 8E 8D 8D 
021d8     8D 8D 8D 8E 
021dc     8F 8F 90 91 
021e0     92 93 94 95 | 	byte	$8f, $8e, $8d, $8d, $8d, $8d, $8d, $8e, $8f, $8f, $90, $91, $92, $93, $94, $95
021e4     96 97 98 9A 
021e8     9A 9A 99 96 
021ec     92 8A 81 75 
021f0     68 59 4A 3B | 	byte	$96, $97, $98, $9a, $9a, $9a, $99, $96, $92, $8a, $81, $75, $68, $59, $4a, $3b
021f4     2D 20 15 0C 
021f8     06 02 01 02 
021fc     06 0C 14 1E 
02200     2A 36 42 4F | 	byte	$2d, $20, $15, $0c, $06, $02, $01, $02, $06, $0c, $14, $1e, $2a, $36, $42, $4f
02204     5C 69 75 80 
02208     8B 95 9E A6 
0220c     AD B3 B8 BC 
02210     BF C1 C2 C2 | 	byte	$5c, $69, $75, $80, $8b, $95, $9e, $a6, $ad, $b3, $b8, $bc, $bf, $c1, $c2, $c2
02214     C1 BF BD BA 
02218     B8 B5 B2 AF 
0221c     AC A9 A7 A4 
02220     A1 9F 9C 9A | 	byte	$c1, $bf, $bd, $ba, $b8, $b5, $b2, $af, $ac, $a9, $a7, $a4, $a1, $9f, $9c, $9a
02224     97 95 93 92 
02228     90 8F 8E 8D 
0222c     8D 8D 8D 8D 
02230     8D 8E 8F 8F | 	byte	$97, $95, $93, $92, $90, $8f, $8e, $8d, $8d, $8d, $8d, $8d, $8d, $8e, $8f, $8f
02234     90 91 92 93 
02238     94 95 96 98 
0223c     99 99 99 98 
02240     94 8F 87 7D | 	byte	$90, $91, $92, $93, $94, $95, $96, $98, $99, $99, $99, $98, $94, $8f, $87, $7d
02244     72 65 57 49 
02248     3B 2E 22 18 
0224c     10 0A 07 06 
02250     07 0A 10 18 | 	byte	$72, $65, $57, $49, $3b, $2e, $22, $18, $10, $0a, $07, $06, $07, $0a, $10, $18
02254     21 2B 37 43 
02258     4F 5C 68 73 
0225c     7F 89 93 9C 
02260     A4 AB B2 B7 | 	byte	$21, $2b, $37, $43, $4f, $5c, $68, $73, $7f, $89, $93, $9c, $a4, $ab, $b2, $b7
02264     BC BF C1 C2 
02268     C2 C2 C0 BE 
0226c     BC BA B7 B5 
02270     B2 AF AC A9 | 	byte	$bc, $bf, $c1, $c2, $c2, $c2, $c0, $be, $bc, $ba, $b7, $b5, $b2, $af, $ac, $a9
02274     A6 A3 A0 9E 
02278     9B 98 96 94 
0227c     92 90 8E 8D 
02280     8C 8C 8B 8B | 	byte	$a6, $a3, $a0, $9e, $9b, $98, $96, $94, $92, $90, $8e, $8d, $8c, $8c, $8b, $8b
02284     8B 8C 8C 8D 
02288     8E 8F 90 91 
0228c     92 94 95 96 
02290     98 99 99 98 | 	byte	$8b, $8c, $8c, $8d, $8e, $8f, $90, $91, $92, $94, $95, $96, $98, $99, $99, $98
02294     96 92 8B 82 
02298     77 6B 5D 4F 
0229c     41 34 28 1D 
022a0     14 0D 09 06 | 	byte	$96, $92, $8b, $82, $77, $6b, $5d, $4f, $41, $34, $28, $1d, $14, $0d, $09, $06
022a4     07 09 0E 15 
022a8     1D 27 32 3E 
022ac     4A 57 63 6F 
022b0     7A 85 8F 98 | 	byte	$07, $09, $0e, $15, $1d, $27, $32, $3e, $4a, $57, $63, $6f, $7a, $85, $8f, $98
022b4     A1 A8 AF B4 
022b8     B9 BD BF C1 
022bc     C1 C1 C0 BE 
022c0     BC BA B8 B5 | 	byte	$a1, $a8, $af, $b4, $b9, $bd, $bf, $c1, $c1, $c1, $c0, $be, $bc, $ba, $b8, $b5
022c4     B3 B0 AE AB 
022c8     A8 A5 A3 A0 
022cc     9D 9B 98 96 
022d0     94 92 90 8F | 	byte	$b3, $b0, $ae, $ab, $a8, $a5, $a3, $a0, $9d, $9b, $98, $96, $94, $92, $90, $8f
022d4     8D 8D 8C 8C 
022d8     8C 8C 8C 8D 
022dc     8D 8E 8F 90 
022e0     91 92 93 94 | 	byte	$8d, $8d, $8c, $8c, $8c, $8c, $8c, $8d, $8d, $8e, $8f, $90, $91, $92, $93, $94
022e4     96 97 98 98 
022e8     97 94 8F 88 
022ec     7E 74 67 5B 
022f0     4E 41 34 29 | 	byte	$96, $97, $98, $98, $97, $94, $8f, $88, $7e, $74, $67, $5b, $4e, $41, $34, $29
022f4     20 18 11 0D 
022f8     0B 0C 0E 12 
022fc     19 21 2A 34 
02300     3F 4A 56 61 | 	byte	$20, $18, $11, $0d, $0b, $0c, $0e, $12, $19, $21, $2a, $34, $3f, $4a, $56, $61
02304     6C 77 81 8B 
02308     94 9C A4 AB 
0230c     B1 B6 BA BD 
02310     BF C0 C1 C1 | 	byte	$6c, $77, $81, $8b, $94, $9c, $a4, $ab, $b1, $b6, $ba, $bd, $bf, $c0, $c1, $c1
02314     C0 BF BD BB 
02318     B9 B7 B5 B2 
0231c     B0 AD AA A6 
02320     A3 A0 9D 9A | 	byte	$c0, $bf, $bd, $bb, $b9, $b7, $b5, $b2, $b0, $ad, $aa, $a6, $a3, $a0, $9d, $9a
02324     97 95 92 90 
02328     8E 8D 8B 8B 
0232c     8A 8A 8A 8A 
02330     8A 8B 8C 8D | 	byte	$97, $95, $92, $90, $8e, $8d, $8b, $8b, $8a, $8a, $8a, $8a, $8a, $8b, $8c, $8d
02334     8E 8F 90 92 
02338     93 95 96 97 
0233c     96 94 90 8A 
02340     82 78 6D 60 | 	byte	$8e, $8f, $90, $92, $93, $95, $96, $97, $96, $94, $90, $8a, $82, $78, $6d, $60
02344     54 47 3A 2F 
02348     24 1C 15 10 
0234c     0D 0C 0E 11 
02350     17 1E 26 30 | 	byte	$54, $47, $3a, $2f, $24, $1c, $15, $10, $0d, $0c, $0e, $11, $17, $1e, $26, $30
02354     3B 46 51 5C 
02358     68 73 7D 87 
0235c     90 99 A1 A8 
02360     AE B4 B8 BC | 	byte	$3b, $46, $51, $5c, $68, $73, $7d, $87, $90, $99, $a1, $a8, $ae, $b4, $b8, $bc
02364     BE C0 C1 C1 
02368     C0 BF BE BC 
0236c     BA B8 B6 B3 
02370     B0 AD AA A7 | 	byte	$be, $c0, $c1, $c1, $c0, $bf, $be, $bc, $ba, $b8, $b6, $b3, $b0, $ad, $aa, $a7
02374     A4 A1 9E 9B 
02378     99 96 94 91 
0237c     8F 8E 8C 8B 
02380     8B 8A 8A 8A | 	byte	$a4, $a1, $9e, $9b, $99, $96, $94, $91, $8f, $8e, $8c, $8b, $8b, $8a, $8a, $8a
02384     8A 8B 8B 8C 
02388     8D 8E 8F 90 
0238c     92 93 95 96 
02390     96 95 92 8D | 	byte	$8a, $8b, $8b, $8c, $8d, $8e, $8f, $90, $92, $93, $95, $96, $96, $95, $92, $8d
02394     87 7F 75 6A 
02398     5E 52 46 3A 
0239c     30 26 1E 18 
023a0     14 11 11 12 | 	byte	$87, $7f, $75, $6a, $5e, $52, $46, $3a, $30, $26, $1e, $18, $14, $11, $11, $12
023a4     16 1A 21 29 
023a8     32 3C 46 50 
023ac     5B 66 70 7A 
023b0     84 8C 95 9D | 	byte	$16, $1a, $21, $29, $32, $3c, $46, $50, $5b, $66, $70, $7a, $84, $8c, $95, $9d
023b4     A4 AA B0 B4 
023b8     B8 BB BD BF 
023bc     C0 C0 BF BF 
023c0     BE BD BB B9 | 	byte	$a4, $aa, $b0, $b4, $b8, $bb, $bd, $bf, $c0, $c0, $bf, $bf, $be, $bd, $bb, $b9
023c4     B7 B5 B2 AF 
023c8     AC A9 A6 A2 
023cc     9F 9C 99 96 
023d0     93 91 8F 8D | 	byte	$b7, $b5, $b2, $af, $ac, $a9, $a6, $a2, $9f, $9c, $99, $96, $93, $91, $8f, $8d
023d4     8B 8A 89 89 
023d8     88 88 88 89 
023dc     89 8A 8B 8D 
023e0     8E 90 91 93 | 	byte	$8b, $8a, $89, $89, $88, $88, $88, $89, $89, $8a, $8b, $8d, $8e, $90, $91, $93
023e4     93 93 92 8E 
023e8     89 81 78 6E 
023ec     63 57 4B 3F 
023f0     35 2B 22 1C | 	byte	$93, $93, $92, $8e, $89, $81, $78, $6e, $63, $57, $4b, $3f, $35, $2b, $22, $1c
023f4     17 13 12 13 
023f8     15 19 1F 27 
023fc     2F 38 42 4D 
02400     57 62 6C 76 | 	byte	$17, $13, $12, $13, $15, $19, $1f, $27, $2f, $38, $42, $4d, $57, $62, $6c, $76
02404     80 89 91 9A 
02408     A1 A7 AD B2 
0240c     B6 BA BC BE 
02410     BF BF BF BF | 	byte	$80, $89, $91, $9a, $a1, $a7, $ad, $b2, $b6, $ba, $bc, $be, $bf, $bf, $bf, $bf
02414     BE BD BC BA 
02418     B8 B6 B3 B0 
0241c     AD AA A7 A4 
02420     A0 9D 9A 97 | 	byte	$be, $bd, $bc, $ba, $b8, $b6, $b3, $b0, $ad, $aa, $a7, $a4, $a0, $9d, $9a, $97
02424     95 92 90 8E 
02428     8C 8B 8A 89 
0242c     89 88 88 89 
02430     89 8A 8B 8C | 	byte	$95, $92, $90, $8e, $8c, $8b, $8a, $89, $89, $88, $88, $89, $89, $8a, $8b, $8c
02434     8D 8F 90 91 
02438     92 93 92 8F 
0243c     8B 85 7E 74 
02440     6A 5F 54 49 | 	byte	$8d, $8f, $90, $91, $92, $93, $92, $8f, $8b, $85, $7e, $74, $6a, $5f, $54, $49
02444     3E 34 2C 24 
02448     1E 19 17 16 
0244c     16 19 1D 23 
02450     2A 31 3A 44 | 	byte	$3e, $34, $2c, $24, $1e, $19, $17, $16, $16, $19, $1d, $23, $2a, $31, $3a, $44
02454     4D 57 61 6B 
02458     74 7D 86 8F 
0245c     96 9D A4 AA 
02460     AF B3 B7 B9 | 	byte	$4d, $57, $61, $6b, $74, $7d, $86, $8f, $96, $9d, $a4, $aa, $af, $b3, $b7, $b9
02464     BC BD BE BF 
02468     BF BF BE BE 
0246c     BC BB B9 B6 
02470     B4 B1 AE AA | 	byte	$bc, $bd, $be, $bf, $bf, $bf, $be, $be, $bc, $bb, $b9, $b6, $b4, $b1, $ae, $aa
02474     A7 A4 A1 9D 
02478     9A 97 94 92 
0247c     8F 8D 8C 8A 
02480     89 88 88 87 | 	byte	$a7, $a4, $a1, $9d, $9a, $97, $94, $92, $8f, $8d, $8c, $8a, $89, $88, $88, $87
02484     87 87 88 89 
02488     8A 8B 8C 8E 
0248c     8F 90 90 8E 
02490     8B 86 80 77 | 	byte	$87, $87, $88, $89, $8a, $8b, $8c, $8e, $8f, $90, $90, $8e, $8b, $86, $80, $77
02494     6E 64 59 4E 
02498     43 39 30 28 
0249c     22 1D 19 17 
024a0     17 19 1C 21 | 	byte	$6e, $64, $59, $4e, $43, $39, $30, $28, $22, $1d, $19, $17, $17, $19, $1c, $21
024a4     27 2F 37 40 
024a8     4A 53 5D 67 
024ac     70 7A 83 8B 
024b0     93 9A A1 A7 | 	byte	$27, $2f, $37, $40, $4a, $53, $5d, $67, $70, $7a, $83, $8b, $93, $9a, $a1, $a7
024b4     AC B1 B5 B8 
024b8     BA BC BE BE 
024bc     BF BF BE BE 
024c0     BD BB B9 B7 | 	byte	$ac, $b1, $b5, $b8, $ba, $bc, $be, $be, $bf, $bf, $be, $be, $bd, $bb, $b9, $b7
024c4     B5 B2 AF AC 
024c8     A9 A5 A2 9F 
024cc     9C 99 96 93 
024d0     91 8F 8D 8B | 	byte	$b5, $b2, $af, $ac, $a9, $a5, $a2, $9f, $9c, $99, $96, $93, $91, $8f, $8d, $8b
024d4     8A 89 88 88 
024d8     87 88 88 89 
024dc     89 8B 8C 8D 
024e0     8E 90 90 8F | 	byte	$8a, $89, $88, $88, $87, $88, $88, $89, $89, $8b, $8c, $8d, $8e, $90, $90, $8f
024e4     8D 89 83 7B 
024e8     73 69 5F 54 
024ec     4A 40 37 2F 
024f0     27 22 1E 1B | 	byte	$8d, $89, $83, $7b, $73, $69, $5f, $54, $4a, $40, $37, $2f, $27, $22, $1e, $1b
024f4     1A 1A 1C 20 
024f8     25 2B 32 3A 
024fc     43 4C 55 5E 
02500     68 71 79 82 | 	byte	$1a, $1a, $1c, $20, $25, $2b, $32, $3a, $43, $4c, $55, $5e, $68, $71, $79, $82
02504     8A 91 98 9F 
02508     A5 AA AF B3 
0250c     B6 B8 BA BC 
02510     BD BE BF BF | 	byte	$8a, $91, $98, $9f, $a5, $aa, $af, $b3, $b6, $b8, $ba, $bc, $bd, $be, $bf, $bf
02514     BF BE BD BB 
02518     B9 B7 B5 B2 
0251c     AF AC A8 A5 
02520     A2 9E 9B 98 | 	byte	$bf, $be, $bd, $bb, $b9, $b7, $b5, $b2, $af, $ac, $a8, $a5, $a2, $9e, $9b, $98
02524     95 93 90 8E 
02528     8C 8A 89 88 
0252c     87 87 87 87 
02530     87 88 89 8A | 	byte	$95, $93, $90, $8e, $8c, $8a, $89, $88, $87, $87, $87, $87, $87, $88, $89, $8a
02534     8B 8C 8D 8D 
02538     8B 88 84 7E 
0253c     76 6E 64 5A 
02540     50 47 3D 35 | 	byte	$8b, $8c, $8d, $8d, $8b, $88, $84, $7e, $76, $6e, $64, $5a, $50, $47, $3d, $35
02544     2D 27 22 1F 
02548     1D 1C 1D 20 
0254c     23 29 2F 36 
02550     3E 47 50 59 | 	byte	$2d, $27, $22, $1f, $1d, $1c, $1d, $20, $23, $29, $2f, $36, $3e, $47, $50, $59
02554     62 6B 74 7C 
02558     84 8C 93 9A 
0255c     A0 A6 AB B0 
02560     B3 B6 B9 BB | 	byte	$62, $6b, $74, $7c, $84, $8c, $93, $9a, $a0, $a6, $ab, $b0, $b3, $b6, $b9, $bb
02564     BD BE BE BF 
02568     BF BF BE BD 
0256c     BB B9 B7 B4 
02570     B1 AE AB A7 | 	byte	$bd, $be, $be, $bf, $bf, $bf, $be, $bd, $bb, $b9, $b7, $b4, $b1, $ae, $ab, $a7
02574     A4 A1 9D 9A 
02578     97 94 92 8F 
0257c     8D 8B 8A 89 
02580     88 87 87 86 | 	byte	$a4, $a1, $9d, $9a, $97, $94, $92, $8f, $8d, $8b, $8a, $89, $88, $87, $87, $86
02584     87 87 88 89 
02588     8A 8B 8C 8C 
0258c     8B 89 85 80 
02590     79 71 68 5E | 	byte	$87, $87, $88, $89, $8a, $8b, $8c, $8c, $8b, $89, $85, $80, $79, $71, $68, $5e
02594     54 4A 41 38 
02598     30 2A 24 20 
0259c     1E 1D 1D 1F 
025a0     23 27 2D 34 | 	byte	$54, $4a, $41, $38, $30, $2a, $24, $20, $1e, $1d, $1d, $1f, $23, $27, $2d, $34
025a4     3B 43 4C 55 
025a8     5D 66 6F 77 
025ac     7F 87 8E 95 
025b0     9B A1 A6 AB | 	byte	$3b, $43, $4c, $55, $5d, $66, $6f, $77, $7f, $87, $8e, $95, $9b, $a1, $a6, $ab
025b4     AF B3 B5 B8 
025b8     BA BC BD BE 
025bc     BE BE BE BD 
025c0     BC BB B9 B7 | 	byte	$af, $b3, $b5, $b8, $ba, $bc, $bd, $be, $be, $be, $be, $bd, $bc, $bb, $b9, $b7
025c4     B4 B2 AF AC 
025c8     A8 A5 A2 9F 
025cc     9B 99 96 93 
025d0     91 8E 8D 8B | 	byte	$b4, $b2, $af, $ac, $a8, $a5, $a2, $9f, $9b, $99, $96, $93, $91, $8e, $8d, $8b
025d4     89 88 87 87 
025d8     86 86 87 87 
025dc     88 89 8A 8A 
025e0     8A 88 86 82 | 	byte	$89, $88, $87, $87, $86, $86, $87, $87, $88, $89, $8a, $8a, $8a, $88, $86, $82
025e4     7C 75 6D 64 
025e8     5B 52 49 40 
025ec     39 32 2B 27 
025f0     23 21 20 20 | 	byte	$7c, $75, $6d, $64, $5b, $52, $49, $40, $39, $32, $2b, $27, $23, $21, $20, $20
025f4     22 26 2A 2F 
025f8     36 3D 45 4D 
025fc     55 5E 66 6F 
02600     77 7F 86 8E | 	byte	$22, $26, $2a, $2f, $36, $3d, $45, $4d, $55, $5e, $66, $6f, $77, $7f, $86, $8e
02604     94 9B A1 A6 
02608     AB AF B2 B5 
0260c     B8 BA BC BD 
02610     BE BF BF BF | 	byte	$94, $9b, $a1, $a6, $ab, $af, $b2, $b5, $b8, $ba, $bc, $bd, $be, $bf, $bf, $bf
02614     BE BD BC BA 
02618     B8 B5 B2 AF 
0261c     AC A9 A5 A2 
02620     9F 9B 98 95 | 	byte	$be, $bd, $bc, $ba, $b8, $b5, $b2, $af, $ac, $a9, $a5, $a2, $9f, $9b, $98, $95
02624     93 90 8E 8C 
02628     8A 89 88 87 
0262c     86 86 86 86 
02630     87 88 89 89 | 	byte	$93, $90, $8e, $8c, $8a, $89, $88, $87, $86, $86, $86, $86, $87, $88, $89, $89
02634     89 88 86 82 
02638     7D 77 6F 67 
0263c     5E 55 4C 43 
02640     3B 34 2E 28 | 	byte	$89, $88, $86, $82, $7d, $77, $6f, $67, $5e, $55, $4c, $43, $3b, $34, $2e, $28
02644     24 21 20 20 
02648     21 24 28 2D 
0264c     33 3A 42 4A 
02650     52 5B 63 6C | 	byte	$24, $21, $20, $20, $21, $24, $28, $2d, $33, $3a, $42, $4a, $52, $5b, $63, $6c
02654     74 7C 83 8B 
02658     92 98 9E A3 
0265c     A8 AC B0 B3 
02660     B6 B8 BA BB | 	byte	$74, $7c, $83, $8b, $92, $98, $9e, $a3, $a8, $ac, $b0, $b3, $b6, $b8, $ba, $bb
02664     BD BD BE BE 
02668     BE BD BC BA 
0266c     B8 B6 B4 B1 
02670     AE AB A8 A5 | 	byte	$bd, $bd, $be, $be, $be, $bd, $bc, $ba, $b8, $b6, $b4, $b1, $ae, $ab, $a8, $a5
02674     A2 9E 9B 98 
02678     96 93 91 8F 
0267c     8D 8B 89 88 
02680     87 87 86 86 | 	byte	$a2, $9e, $9b, $98, $96, $93, $91, $8f, $8d, $8b, $89, $88, $87, $87, $86, $86
02684     86 87 88 88 
02688     88 88 86 83 
0268c     7F 7A 74 6C 
02690     64 5C 54 4B | 	byte	$86, $87, $88, $88, $88, $88, $86, $83, $7f, $7a, $74, $6c, $64, $5c, $54, $4b
02694     43 3C 35 2F 
02698     2B 27 25 23 
0269c     23 25 27 2B 
026a0     30 35 3C 43 | 	byte	$43, $3c, $35, $2f, $2b, $27, $25, $23, $23, $25, $27, $2b, $30, $35, $3c, $43
026a4     4A 52 5A 62 
026a8     6A 72 79 81 
026ac     88 8F 95 9B 
026b0     A0 A5 AA AE | 	byte	$4a, $52, $5a, $62, $6a, $72, $79, $81, $88, $8f, $95, $9b, $a0, $a5, $aa, $ae
026b4     B1 B4 B7 B9 
026b8     BC BD BE BF 
026bc     BF BF BF BE 
026c0     BD BB B9 B6 | 	byte	$b1, $b4, $b7, $b9, $bc, $bd, $be, $bf, $bf, $bf, $bf, $be, $bd, $bb, $b9, $b6
026c4     B3 B1 AD AA 
026c8     A7 A4 A0 9D 
026cc     9A 97 94 92 
026d0     8F 8D 8B 89 | 	byte	$b3, $b1, $ad, $aa, $a7, $a4, $a0, $9d, $9a, $97, $94, $92, $8f, $8d, $8b, $89
026d4     88 87 86 86 
026d8     86 86 86 87 
026dc     87 86 85 83 
026e0     7F 7B 75 6E | 	byte	$88, $87, $86, $86, $86, $86, $86, $87, $87, $86, $85, $83, $7f, $7b, $75, $6e
026e4     66 5E 56 4D 
026e8     45 3E 37 31 
026ec     2C 28 25 23 
026f0     23 24 26 2A | 	byte	$66, $5e, $56, $4d, $45, $3e, $37, $31, $2c, $28, $25, $23, $23, $24, $26, $2a
026f4     2E 33 3A 40 
026f8     48 4F 57 5F 
026fc     67 6F 77 7E 
02700     86 8C 93 99 | 	byte	$2e, $33, $3a, $40, $48, $4f, $57, $5f, $67, $6f, $77, $7e, $86, $8c, $93, $99
02704     9F A4 A8 AC 
02708     B0 B3 B6 B8 
0270c     BB BC BE BE 
02710     BF BF BE BE | 	byte	$9f, $a4, $a8, $ac, $b0, $b3, $b6, $b8, $bb, $bc, $be, $be, $bf, $bf, $be, $be
02714     BC BB B9 B7 
02718     B4 B1 AE AB 
0271c     A8 A5 A2 9E 
02720     9B 98 96 93 | 	byte	$bc, $bb, $b9, $b7, $b4, $b1, $ae, $ab, $a8, $a5, $a2, $9e, $9b, $98, $96, $93
02724     91 8F 8D 8B 
02728     89 88 87 86 
0272c     86 86 86 86 
02730     87 86 86 84 | 	byte	$91, $8f, $8d, $8b, $89, $88, $87, $86, $86, $86, $86, $86, $87, $86, $86, $84
02734     81 7D 78 72 
02738     6C 64 5D 55 
0273c     4D 45 3F 38 
02740     33 2E 2A 28 | 	byte	$81, $7d, $78, $72, $6c, $64, $5d, $55, $4d, $45, $3f, $38, $33, $2e, $2a, $28
02744     27 26 27 29 
02748     2C 31 36 3B 
0274c     41 48 4F 57 
02750     5E 66 6D 75 | 	byte	$27, $26, $27, $29, $2c, $31, $36, $3b, $41, $48, $4f, $57, $5e, $66, $6d, $75
02754     7C 83 89 90 
02758     96 9B A0 A5 
0275c     A9 AD B0 B4 
02760     B6 B9 BB BD | 	byte	$7c, $83, $89, $90, $96, $9b, $a0, $a5, $a9, $ad, $b0, $b4, $b6, $b9, $bb, $bd
02764     BE BF C0 C0 
02768     BF BE BD BB 
0276c     B9 B7 B5 B2 
02770     AF AB A8 A5 | 	byte	$be, $bf, $c0, $c0, $bf, $be, $bd, $bb, $b9, $b7, $b5, $b2, $af, $ab, $a8, $a5
02774     A2 9E 9B 98 
02778     95 93 90 8E 
0277c     8C 8A 89 87 
02780     86 86 85 85 | 	byte	$a2, $9e, $9b, $98, $95, $93, $90, $8e, $8c, $8a, $89, $87, $86, $86, $85, $85
02784     85 85 85 83 
02788     81 7D 79 73 
0278c     6D 66 5E 56 
02790     4E 47 40 39 | 	byte	$85, $85, $85, $83, $81, $7d, $79, $73, $6d, $66, $5e, $56, $4e, $47, $40, $39
02794     34 2F 2B 28 
02798     26 26 26 28 
0279c     2B 2F 33 39 
027a0     3F 46 4D 54 | 	byte	$34, $2f, $2b, $28, $26, $26, $26, $28, $2b, $2f, $33, $39, $3f, $46, $4d, $54
027a4     5B 63 6B 72 
027a8     79 80 87 8D 
027ac     94 99 9E A3 
027b0     A8 AC AF B3 | 	byte	$5b, $63, $6b, $72, $79, $80, $87, $8d, $94, $99, $9e, $a3, $a8, $ac, $af, $b3
027b4     B6 B8 BB BC 
027b8     BE BF C0 C0 
027bc     BF BF BE BC 
027c0     BA B8 B6 B3 | 	byte	$b6, $b8, $bb, $bc, $be, $bf, $c0, $c0, $bf, $bf, $be, $bc, $ba, $b8, $b6, $b3
027c4     B0 AD A9 A6 
027c8     A3 A0 9C 99 
027cc     96 94 91 8F 
027d0     8D 8B 89 88 | 	byte	$b0, $ad, $a9, $a6, $a3, $a0, $9c, $99, $96, $94, $91, $8f, $8d, $8b, $89, $88
027d4     87 86 86 85 
027d8     85 85 85 84 
027dc     82 7F 7B 77 
027e0     71 6B 64 5C | 	byte	$87, $86, $86, $85, $85, $85, $85, $84, $82, $7f, $7b, $77, $71, $6b, $64, $5c
027e4     55 4E 47 40 
027e8     3A 35 31 2D 
027ec     2B 29 29 29 
027f0     2B 2E 31 36 | 	byte	$55, $4e, $47, $40, $3a, $35, $31, $2d, $2b, $29, $29, $29, $2b, $2e, $31, $36
027f4     3B 40 47 4D 
027f8     54 5B 62 69 
027fc     70 77 7E 85 
02800     8B 91 96 9B | 	byte	$3b, $40, $47, $4d, $54, $5b, $62, $69, $70, $77, $7e, $85, $8b, $91, $96, $9b
02804     A0 A5 A9 AC 
02808     B0 B3 B6 B9 
0280c     BB BD BE BF 
02810     C0 C0 BF BF | 	byte	$a0, $a5, $a9, $ac, $b0, $b3, $b6, $b9, $bb, $bd, $be, $bf, $c0, $c0, $bf, $bf
02814     BD BC BA B8 
02818     B5 B3 B0 AD 
0281c     A9 A6 A3 A0 
02820     9D 9A 97 94 | 	byte	$bd, $bc, $ba, $b8, $b5, $b3, $b0, $ad, $a9, $a6, $a3, $a0, $9d, $9a, $97, $94
02824     92 8F 8D 8B 
02828     89 88 87 86 
0282c     86 85 85 84 
02830     82 7F 7C 77 | 	byte	$92, $8f, $8d, $8b, $89, $88, $87, $86, $86, $85, $85, $84, $82, $7f, $7c, $77
02834     72 6C 65 5E 
02838     57 50 49 42 
0283c     3C 36 32 2E 
02840     2B 29 28 28 | 	byte	$72, $6c, $65, $5e, $57, $50, $49, $42, $3c, $36, $32, $2e, $2b, $29, $28, $28
02844     29 2C 2F 33 
02848     38 3D 43 4A 
0284c     50 58 5F 66 
02850     6D 74 7B 82 | 	byte	$29, $2c, $2f, $33, $38, $3d, $43, $4a, $50, $58, $5f, $66, $6d, $74, $7b, $82
02854     88 8E 94 99 
02858     9E A3 A7 AB 
0285c     AF B2 B5 B8 
02860     BA BC BE BF | 	byte	$88, $8e, $94, $99, $9e, $a3, $a7, $ab, $af, $b2, $b5, $b8, $ba, $bc, $be, $bf
02864     C0 C0 C0 BF 
02868     BE BD BB B9 
0286c     B7 B4 B1 AE 
02870     AB A8 A5 A1 | 	byte	$c0, $c0, $c0, $bf, $be, $bd, $bb, $b9, $b7, $b4, $b1, $ae, $ab, $a8, $a5, $a1
02874     9E 9B 98 95 
02878     93 90 8E 8C 
0287c     8A 89 87 87 
02880     86 85 85 84 | 	byte	$9e, $9b, $98, $95, $93, $90, $8e, $8c, $8a, $89, $87, $87, $86, $85, $85, $84
02884     83 80 7D 79 
02888     75 6F 69 62 
0288c     5B 54 4D 47 
02890     41 3B 36 32 | 	byte	$83, $80, $7d, $79, $75, $6f, $69, $62, $5b, $54, $4d, $47, $41, $3b, $36, $32
02894     2E 2C 2B 2A 
02898     2B 2C 2E 32 
0289c     36 3A 40 45 
028a0     4C 52 59 60 | 	byte	$2e, $2c, $2b, $2a, $2b, $2c, $2e, $32, $36, $3a, $40, $45, $4c, $52, $59, $60
028a4     67 6D 74 7A 
028a8     81 87 8D 92 
028ac     97 9C A1 A5 
028b0     A9 AD B0 B4 | 	byte	$67, $6d, $74, $7a, $81, $87, $8d, $92, $97, $9c, $a1, $a5, $a9, $ad, $b0, $b4
028b4     B6 B9 BB BD 
028b8     BE BF C0 C0 
028bc     BF BF BD BC 
028c0     BA B8 B6 B3 | 	byte	$b6, $b9, $bb, $bd, $be, $bf, $c0, $c0, $bf, $bf, $bd, $bc, $ba, $b8, $b6, $b3
028c4     B0 AD AA A7 
028c8     A4 A1 9E 9B 
028cc     98 95 92 90 
028d0     8E 8C 8A 89 | 	byte	$b0, $ad, $aa, $a7, $a4, $a1, $9e, $9b, $98, $95, $92, $90, $8e, $8c, $8a, $89
028d4     88 87 86 85 
028d8     84 81 7F 7B 
028dc     77 72 6C 65 
028e0     5F 58 51 4A | 	byte	$88, $87, $86, $85, $84, $81, $7f, $7b, $77, $72, $6c, $65, $5f, $58, $51, $4a
028e4     44 3E 39 34 
028e8     30 2D 2B 2A 
028ec     2A 2A 2C 2F 
028f0     32 37 3B 41 | 	byte	$44, $3e, $39, $34, $30, $2d, $2b, $2a, $2a, $2a, $2c, $2f, $32, $37, $3b, $41
028f4     47 4D 54 5B 
028f8     62 68 6F 76 
028fc     7C 83 89 8F 
02900     94 99 9E A2 | 	byte	$47, $4d, $54, $5b, $62, $68, $6f, $76, $7c, $83, $89, $8f, $94, $99, $9e, $a2
02904     A7 AB AF B2 
02908     B5 B8 BA BC 
0290c     BE BF C0 C0 
02910     C0 C0 BF BE | 	byte	$a7, $ab, $af, $b2, $b5, $b8, $ba, $bc, $be, $bf, $c0, $c0, $c0, $c0, $bf, $be
02914     BC BA B8 B5 
02918     B2 AF AC A9 
0291c     A6 A3 A0 9D 
02920     9A 97 94 91 | 	byte	$bc, $ba, $b8, $b5, $b2, $af, $ac, $a9, $a6, $a3, $a0, $9d, $9a, $97, $94, $91
02924     8F 8D 8B 8A 
02928     88 87 86 85 
0292c     84 82 80 7C 
02930     78 73 6E 68 | 	byte	$8f, $8d, $8b, $8a, $88, $87, $86, $85, $84, $82, $80, $7c, $78, $73, $6e, $68
02934     61 5A 53 4D 
02938     46 40 3B 36 
0293c     32 2E 2C 2B 
02940     2A 2B 2C 2E | 	byte	$61, $5a, $53, $4d, $46, $40, $3b, $36, $32, $2e, $2c, $2b, $2a, $2b, $2c, $2e
02944     31 35 3A 3F 
02948     45 4B 51 57 
0294c     5E 64 6B 71 
02950     78 7E 84 8A | 	byte	$31, $35, $3a, $3f, $45, $4b, $51, $57, $5e, $64, $6b, $71, $78, $7e, $84, $8a
02954     8F 94 99 9E 
02958     A2 A6 AA AE 
0295c     B1 B4 B7 B9 
02960     BB BD BE BF | 	byte	$8f, $94, $99, $9e, $a2, $a6, $aa, $ae, $b1, $b4, $b7, $b9, $bb, $bd, $be, $bf
02964     BF BF BF BE 
02968     BD BC BA B8 
0296c     B6 B3 B0 AD 
02970     AA A8 A4 A1 | 	byte	$bf, $bf, $bf, $be, $bd, $bc, $ba, $b8, $b6, $b3, $b0, $ad, $aa, $a8, $a4, $a1
02974     9F 9C 99 96 
02978     93 91 8F 8D 
0297c     8B 8A 88 87 
02980     86 84 82 7F | 	byte	$9f, $9c, $99, $96, $93, $91, $8f, $8d, $8b, $8a, $88, $87, $86, $84, $82, $7f
02984     7B 77 72 6C 
02988     66 60 59 53 
0298c     4C 46 41 3B 
02990     37 33 30 2D | 	byte	$7b, $77, $72, $6c, $66, $60, $59, $53, $4c, $46, $41, $3b, $37, $33, $30, $2d
02994     2C 2B 2C 2D 
02998     2F 32 35 3A 
0299c     3F 44 4A 50 
029a0     56 5D 63 6A | 	byte	$2c, $2b, $2c, $2d, $2f, $32, $35, $3a, $3f, $44, $4a, $50, $56, $5d, $63, $6a
029a4     70 76 7D 83 
029a8     88 8E 93 98 
029ac     9D A1 A6 AA 
029b0     AE B1 B4 B7 | 	byte	$70, $76, $7d, $83, $88, $8e, $93, $98, $9d, $a1, $a6, $aa, $ae, $b1, $b4, $b7
029b4     BA BC BE BF 
029b8     C0 C0 C1 C0 
029bc     C0 BE BD BB 
029c0     B9 B7 B4 B1 | 	byte	$ba, $bc, $be, $bf, $c0, $c0, $c1, $c0, $c0, $be, $bd, $bb, $b9, $b7, $b4, $b1
029c4     AE AB A8 A5 
029c8     A2 9F 9C 99 
029cc     96 93 91 8F 
029d0     8D 8B 8A 88 | 	byte	$ae, $ab, $a8, $a5, $a2, $9f, $9c, $99, $96, $93, $91, $8f, $8d, $8b, $8a, $88
029d4     87 85 83 80 
029d8     7D 78 74 6E 
029dc     68 62 5B 55 
029e0     4E 48 42 3D | 	byte	$87, $85, $83, $80, $7d, $78, $74, $6e, $68, $62, $5b, $55, $4e, $48, $42, $3d
029e4     38 34 30 2D 
029e8     2C 2B 2B 2B 
029ec     2D 30 33 37 
029f0     3C 41 47 4D | 	byte	$38, $34, $30, $2d, $2c, $2b, $2b, $2b, $2d, $30, $33, $37, $3c, $41, $47, $4d
029f4     53 5A 60 67 
029f8     6D 73 7A 80 
029fc     85 8B 90 95 
02a00     9A 9E A3 A7 | 	byte	$53, $5a, $60, $67, $6d, $73, $7a, $80, $85, $8b, $90, $95, $9a, $9e, $a3, $a7
02a04     AA AE B1 B4 
02a08     B7 B9 BB BD 
02a0c     BE BF BF BF 
02a10     BF BE BD BC | 	byte	$aa, $ae, $b1, $b4, $b7, $b9, $bb, $bd, $be, $bf, $bf, $bf, $bf, $be, $bd, $bc
02a14     BA B8 B6 B3 
02a18     B1 AE AB A8 
02a1c     A5 A2 9F 9C 
02a20     9A 97 94 92 | 	byte	$ba, $b8, $b6, $b3, $b1, $ae, $ab, $a8, $a5, $a2, $9f, $9c, $9a, $97, $94, $92
02a24     90 8E 8C 8B 
02a28     89 87 85 83 
02a2c     80 7C 78 73 
02a30     6D 67 61 5B | 	byte	$90, $8e, $8c, $8b, $89, $87, $85, $83, $80, $7c, $78, $73, $6d, $67, $61, $5b
02a34     55 4E 49 43 
02a38     3E 39 35 32 
02a3c     2F 2E 2D 2D 
02a40     2D 2F 31 34 | 	byte	$55, $4e, $49, $43, $3e, $39, $35, $32, $2f, $2e, $2d, $2d, $2d, $2f, $31, $34
02a44     38 3C 41 46 
02a48     4C 52 58 5E 
02a4c     64 6B 71 77 
02a50     7D 83 88 8D | 	byte	$38, $3c, $41, $46, $4c, $52, $58, $5e, $64, $6b, $71, $77, $7d, $83, $88, $8d
02a54     93 97 9C A1 
02a58     A5 A9 AD B0 
02a5c     B4 B7 B9 BB 
02a60     BD BF C0 C0 | 	byte	$93, $97, $9c, $a1, $a5, $a9, $ad, $b0, $b4, $b7, $b9, $bb, $bd, $bf, $c0, $c0
02a64     C1 C0 C0 BF 
02a68     BE BC BA B8 
02a6c     B5 B3 B0 AD 
02a70     AA A7 A4 A1 | 	byte	$c1, $c0, $c0, $bf, $be, $bc, $ba, $b8, $b5, $b3, $b0, $ad, $aa, $a7, $a4, $a1
02a74     9E 9B 98 95 
02a78     93 91 8F 8D 
02a7c     8B 89 87 84 
02a80     81 7E 79 75 | 	byte	$9e, $9b, $98, $95, $93, $91, $8f, $8d, $8b, $89, $87, $84, $81, $7e, $79, $75
02a84     6F 6A 63 5D 
02a88     57 51 4A 45 
02a8c     3F 3A 36 32 
02a90     30 2D 2C 2C | 	byte	$6f, $6a, $63, $5d, $57, $51, $4a, $45, $3f, $3a, $36, $32, $30, $2d, $2c, $2c
02a94     2C 2D 2F 32 
02a98     35 39 3E 43 
02a9c     49 4F 55 5B 
02aa0     61 68 6E 74 | 	byte	$2c, $2d, $2f, $32, $35, $39, $3e, $43, $49, $4f, $55, $5b, $61, $68, $6e, $74
02aa4     7A 80 86 8B 
02aa8     90 95 9A 9F 
02aac     A3 A7 AB AF 
02ab0     B2 B5 B8 BA | 	byte	$7a, $80, $86, $8b, $90, $95, $9a, $9f, $a3, $a7, $ab, $af, $b2, $b5, $b8, $ba
02ab4     BC BE BF C0 
02ab8     C0 C0 C0 BF 
02abc     BE BC BB B9 
02ac0     B6 B4 B1 AF | 	byte	$bc, $be, $bf, $c0, $c0, $c0, $c0, $bf, $be, $bc, $bb, $b9, $b6, $b4, $b1, $af
02ac4     AC A9 A6 A3 
02ac8     A0 9D 9A 98 
02acc     95 93 91 8F 
02ad0     8D 8B 89 87 | 	byte	$ac, $a9, $a6, $a3, $a0, $9d, $9a, $98, $95, $93, $91, $8f, $8d, $8b, $89, $87
02ad4     84 81 7D 79 
02ad8     74 6E 69 63 
02adc     5D 57 51 4B 
02ae0     46 41 3C 38 | 	byte	$84, $81, $7d, $79, $74, $6e, $69, $63, $5d, $57, $51, $4b, $46, $41, $3c, $38
02ae4     35 32 30 2E 
02ae8     2E 2E 2F 31 
02aec     33 37 3A 3F 
02af0     43 48 4E 54 | 	byte	$35, $32, $30, $2e, $2e, $2e, $2f, $31, $33, $37, $3a, $3f, $43, $48, $4e, $54
02af4     59 5F 65 6B 
02af8     71 77 7D 82 
02afc     88 8D 92 97 
02b00     9B A0 A4 A8 | 	byte	$59, $5f, $65, $6b, $71, $77, $7d, $82, $88, $8d, $92, $97, $9b, $a0, $a4, $a8
02b04     AC B0 B3 B6 
02b08     B9 BB BD BE 
02b0c     BF C0 C0 C1 
02b10     C0 BF BE BD | 	byte	$ac, $b0, $b3, $b6, $b9, $bb, $bd, $be, $bf, $c0, $c0, $c1, $c0, $bf, $be, $bd
02b14     BB B9 B7 B4 
02b18     B1 AF AC A9 
02b1c     A6 A3 A0 9D 
02b20     9A 98 95 93 | 	byte	$bb, $b9, $b7, $b4, $b1, $af, $ac, $a9, $a6, $a3, $a0, $9d, $9a, $98, $95, $93
02b24     91 8E 8C 8A 
02b28     87 84 80 7C 
02b2c     77 71 6C 66 
02b30     60 5A 53 4D | 	byte	$91, $8e, $8c, $8a, $87, $84, $80, $7c, $77, $71, $6c, $66, $60, $5a, $53, $4d
02b34     48 42 3D 39 
02b38     35 32 2F 2E 
02b3c     2D 2D 2D 2F 
02b40     31 33 37 3B | 	byte	$48, $42, $3d, $39, $35, $32, $2f, $2e, $2d, $2d, $2d, $2f, $31, $33, $37, $3b
02b44     40 45 4A 50 
02b48     55 5B 61 67 
02b4c     6E 73 79 7F 
02b50     84 8A 8F 94 | 	byte	$40, $45, $4a, $50, $55, $5b, $61, $67, $6e, $73, $79, $7f, $84, $8a, $8f, $94
02b54     99 9D A2 A6 
02b58     AA AE B1 B5 
02b5c     B8 BA BC BE 
02b60     BF C0 C1 C1 | 	byte	$99, $9d, $a2, $a6, $aa, $ae, $b1, $b5, $b8, $ba, $bc, $be, $bf, $c0, $c1, $c1
02b64     C1 C0 BF BE 
02b68     BC BA B8 B6 
02b6c     B3 B0 AE AB 
02b70     A8 A5 A2 9F | 	byte	$c1, $c0, $bf, $be, $bc, $ba, $b8, $b6, $b3, $b0, $ae, $ab, $a8, $a5, $a2, $9f
02b74     9C 99 97 94 
02b78     92 90 8E 8B 
02b7c     89 86 82 7E 
02b80     7A 75 6F 6A | 	byte	$9c, $99, $97, $94, $92, $90, $8e, $8b, $89, $86, $82, $7e, $7a, $75, $6f, $6a
02b84     64 5E 58 52 
02b88     4C 47 42 3D 
02b8c     39 36 33 31 
02b90     2F 2E 2E 2F | 	byte	$64, $5e, $58, $52, $4c, $47, $42, $3d, $39, $36, $33, $31, $2f, $2e, $2e, $2f
02b94     30 32 35 39 
02b98     3D 41 46 4B 
02b9c     50 56 5C 62 
02ba0     68 6D 73 79 | 	byte	$30, $32, $35, $39, $3d, $41, $46, $4b, $50, $56, $5c, $62, $68, $6d, $73, $79
02ba4     7E 84 89 8E 
02ba8     93 98 9C A1 
02bac     A5 A9 AD B0 
02bb0     B3 B6 B9 BB | 	byte	$7e, $84, $89, $8e, $93, $98, $9c, $a1, $a5, $a9, $ad, $b0, $b3, $b6, $b9, $bb
02bb4     BD BE C0 C0 
02bb8     C1 C1 C0 BF 
02bbc     BE BD BB B9 
02bc0     B7 B4 B2 AF | 	byte	$bd, $be, $c0, $c0, $c1, $c1, $c0, $bf, $be, $bd, $bb, $b9, $b7, $b4, $b2, $af
02bc4     AC A9 A7 A4 
02bc8     A1 9E 9B 98 
02bcc     96 94 91 8F 
02bd0     8C 89 86 82 | 	byte	$ac, $a9, $a7, $a4, $a1, $9e, $9b, $98, $96, $94, $91, $8f, $8c, $89, $86, $82
02bd4     7D 78 73 6E 
02bd8     68 62 5B 55 
02bdc     50 4A 45 40 
02be0     3B 37 34 31 | 	byte	$7d, $78, $73, $6e, $68, $62, $5b, $55, $50, $4a, $45, $40, $3b, $37, $34, $31
02be4     2F 2E 2D 2E 
02be8     2E 30 32 36 
02bec     39 3D 42 47 
02bf0     4C 52 58 5D | 	byte	$2f, $2e, $2d, $2e, $2e, $30, $32, $36, $39, $3d, $42, $47, $4c, $52, $58, $5d
02bf4     63 69 6F 75 
02bf8     7B 80 85 8B 
02bfc     90 95 99 9E 
02c00     A2 A6 AB AE | 	byte	$63, $69, $6f, $75, $7b, $80, $85, $8b, $90, $95, $99, $9e, $a2, $a6, $ab, $ae
02c04     B2 B5 B8 BA 
02c08     BC BE BF C0 
02c0c     C1 C1 C1 C0 
02c10     BF BE BD BB | 	byte	$b2, $b5, $b8, $ba, $bc, $be, $bf, $c0, $c1, $c1, $c1, $c0, $bf, $be, $bd, $bb
02c14     B9 B6 B4 B1 
02c18     AE AB A8 A6 
02c1c     A3 A0 9D 9A 
02c20     98 95 93 90 | 	byte	$b9, $b6, $b4, $b1, $ae, $ab, $a8, $a6, $a3, $a0, $9d, $9a, $98, $95, $93, $90
02c24     8E 8B 87 84 
02c28     80 7B 76 71 
02c2c     6B 65 5F 5A 
02c30     54 4E 49 44 | 	byte	$8e, $8b, $87, $84, $80, $7b, $76, $71, $6b, $65, $5f, $5a, $54, $4e, $49, $44
02c34     3F 3B 38 34 
02c38     32 30 2F 2F 
02c3c     2F 30 32 35 
02c40     38 3B 3F 44 | 	byte	$3f, $3b, $38, $34, $32, $30, $2f, $2f, $2f, $30, $32, $35, $38, $3b, $3f, $44
02c44     48 4D 53 58 
02c48     5E 63 69 6F 
02c4c     74 7A 7F 84 
02c50     89 8E 93 98 | 	byte	$48, $4d, $53, $58, $5e, $63, $69, $6f, $74, $7a, $7f, $84, $89, $8e, $93, $98
02c54     9C A0 A5 A9 
02c58     AC B0 B3 B6 
02c5c     B8 BB BD BE 
02c60     BF C0 C0 C0 | 	byte	$9c, $a0, $a5, $a9, $ac, $b0, $b3, $b6, $b8, $bb, $bd, $be, $bf, $c0, $c0, $c0
02c64     C0 BF BE BD 
02c68     BB BA B8 B5 
02c6c     B3 B0 AE AB 
02c70     A8 A5 A2 A0 | 	byte	$c0, $bf, $be, $bd, $bb, $ba, $b8, $b5, $b3, $b0, $ae, $ab, $a8, $a5, $a2, $a0
02c74     9D 9A 98 95 
02c78     93 90 8C 89 
02c7c     85 81 7C 76 
02c80     71 6B 65 5F | 	byte	$9d, $9a, $98, $95, $93, $90, $8c, $89, $85, $81, $7c, $76, $71, $6b, $65, $5f
02c84     59 53 4E 48 
02c88     44 3F 3B 37 
02c8c     34 32 30 2F 
02c90     2E 2F 30 32 | 	byte	$59, $53, $4e, $48, $44, $3f, $3b, $37, $34, $32, $30, $2f, $2e, $2f, $30, $32
02c94     34 37 3B 3F 
02c98     43 48 4D 52 
02c9c     58 5E 63 69 
02ca0     6E 74 79 7F | 	byte	$34, $37, $3b, $3f, $43, $48, $4d, $52, $58, $5e, $63, $69, $6e, $74, $79, $7f
02ca4     84 89 8E 93 
02ca8     98 9D A1 A5 
02cac     A9 AD B0 B4 
02cb0     B7 B9 BB BD | 	byte	$84, $89, $8e, $93, $98, $9d, $a1, $a5, $a9, $ad, $b0, $b4, $b7, $b9, $bb, $bd
02cb4     BF C0 C1 C1 
02cb8     C1 C1 C0 BF 
02cbc     BD BC BA B8 
02cc0     B6 B3 B0 AE | 	byte	$bf, $c0, $c1, $c1, $c1, $c1, $c0, $bf, $bd, $bc, $ba, $b8, $b6, $b3, $b0, $ae
02cc4     AB A8 A5 A2 
02cc8     9F 9D 9A 98 
02ccc     95 92 8F 8B 
02cd0     87 83 7E 79 | 	byte	$ab, $a8, $a5, $a2, $9f, $9d, $9a, $98, $95, $92, $8f, $8b, $87, $83, $7e, $79
02cd4     74 6E 68 62 
02cd8     5C 56 51 4B 
02cdc     46 41 3D 39 
02ce0     36 33 31 30 | 	byte	$74, $6e, $68, $62, $5c, $56, $51, $4b, $46, $41, $3d, $39, $36, $33, $31, $30
02ce4     2F 2F 30 31 
02ce8     33 36 39 3D 
02cec     41 45 4A 4F 
02cf0     54 59 5F 64 | 	byte	$2f, $2f, $30, $31, $33, $36, $39, $3d, $41, $45, $4a, $4f, $54, $59, $5f, $64
02cf4     6A 6F 74 7A 
02cf8     7F 84 89 8E 
02cfc     92 97 9C A0 
02d00     A4 A8 AC AF | 	byte	$6a, $6f, $74, $7a, $7f, $84, $89, $8e, $92, $97, $9c, $a0, $a4, $a8, $ac, $af
02d04     B2 B5 B8 BA 
02d08     BC BD BE BF 
02d0c     C0 C0 C0 BF 
02d10     BF BE BC BA | 	byte	$b2, $b5, $b8, $ba, $bc, $bd, $be, $bf, $c0, $c0, $c0, $bf, $bf, $be, $bc, $ba
02d14     B9 B6 B4 B2 
02d18     AF AD AA A7 
02d1c     A4 A2 9F 9D 
02d20     9A 97 94 91 | 	byte	$b9, $b6, $b4, $b2, $af, $ad, $aa, $a7, $a4, $a2, $9f, $9d, $9a, $97, $94, $91
02d24     8D 89 85 80 
02d28     7B 75 70 6A 
02d2c     64 5E 58 53 
02d30     4D 48 44 3F | 	byte	$8d, $89, $85, $80, $7b, $75, $70, $6a, $64, $5e, $58, $53, $4d, $48, $44, $3f
02d34     3B 38 35 33 
02d38     31 30 30 30 
02d3c     31 33 35 38 
02d40     3B 3F 43 48 | 	byte	$3b, $38, $35, $33, $31, $30, $30, $30, $31, $33, $35, $38, $3b, $3f, $43, $48
02d44     4D 52 57 5C 
02d48     62 67 6D 72 
02d4c     77 7D 82 87 
02d50     8C 91 95 9A | 	byte	$4d, $52, $57, $5c, $62, $67, $6d, $72, $77, $7d, $82, $87, $8c, $91, $95, $9a
02d54     9F A3 A7 AB 
02d58     AE B2 B5 B7 
02d5c     BA BC BD BF 
02d60     C0 C0 C1 C1 | 	byte	$9f, $a3, $a7, $ab, $ae, $b2, $b5, $b7, $ba, $bc, $bd, $bf, $c0, $c0, $c1, $c1
02d64     C0 BF BE BD 
02d68     BB B9 B7 B5 
02d6c     B3 B0 AE AB 
02d70     A8 A6 A3 A0 | 	byte	$c0, $bf, $be, $bd, $bb, $b9, $b7, $b5, $b3, $b0, $ae, $ab, $a8, $a6, $a3, $a0
02d74     9D 9B 97 94 
02d78     91 8D 88 83 
02d7c     7E 79 73 6D 
02d80     67 61 5C 56 | 	byte	$9d, $9b, $97, $94, $91, $8d, $88, $83, $7e, $79, $73, $6d, $67, $61, $5c, $56
02d84     50 4B 46 41 
02d88     3D 39 36 33 
02d8c     31 30 2F 2F 
02d90     30 31 33 36 | 	byte	$50, $4b, $46, $41, $3d, $39, $36, $33, $31, $30, $2f, $2f, $30, $31, $33, $36
02d94     39 3C 40 45 
02d98     49 4F 54 59 
02d9c     5E 64 69 6E 
02da0     74 79 7E 83 | 	byte	$39, $3c, $40, $45, $49, $4f, $54, $59, $5e, $64, $69, $6e, $74, $79, $7e, $83
02da4     88 8D 91 96 
02da8     9A 9F A3 A7 
02dac     AA AE B1 B4 
02db0     B6 B9 BB BC | 	byte	$88, $8d, $91, $96, $9a, $9f, $a3, $a7, $aa, $ae, $b1, $b4, $b6, $b9, $bb, $bc
02db4     BE BF BF C0 
02db8     C0 BF BF BE 
02dbc     BD BB B9 B7 
02dc0     B5 B3 B1 AE | 	byte	$be, $bf, $bf, $c0, $c0, $bf, $bf, $be, $bd, $bb, $b9, $b7, $b5, $b3, $b1, $ae
02dc4     AC A9 A7 A4 
02dc8     A1 9F 9C 99 
02dcc     95 91 8D 89 
02dd0     84 7F 7A 74 | 	byte	$ac, $a9, $a7, $a4, $a1, $9f, $9c, $99, $95, $91, $8d, $89, $84, $7f, $7a, $74
02dd4     6F 69 63 5D 
02dd8     58 52 4D 48 
02ddc     44 40 3C 39 
02de0     36 34 33 32 | 	byte	$6f, $69, $63, $5d, $58, $52, $4d, $48, $44, $40, $3c, $39, $36, $34, $33, $32
02de4     31 32 33 34 
02de8     36 39 3C 40 
02dec     44 48 4D 51 
02df0     56 5C 61 66 | 	byte	$31, $32, $33, $34, $36, $39, $3c, $40, $44, $48, $4d, $51, $56, $5c, $61, $66
02df4     6B 70 76 7B 
02df8     80 85 8A 8E 
02dfc     93 98 9C A0 
02e00     A5 A8 AC AF | 	byte	$6b, $70, $76, $7b, $80, $85, $8a, $8e, $93, $98, $9c, $a0, $a5, $a8, $ac, $af
02e04     B3 B5 B8 BA 
02e08     BC BD BF BF 
02e0c     C0 C0 C0 C0 
02e10     BF BE BC BB | 	byte	$b3, $b5, $b8, $ba, $bc, $bd, $bf, $bf, $c0, $c0, $c0, $c0, $bf, $be, $bc, $bb
02e14     B9 B7 B5 B2 
02e18     B0 AD AB A8 
02e1c     A6 A3 A0 9D 
02e20     9A 96 92 8D | 	byte	$b9, $b7, $b5, $b2, $b0, $ad, $ab, $a8, $a6, $a3, $a0, $9d, $9a, $96, $92, $8d
02e24     89 84 7E 79 
02e28     73 6D 67 61 
02e2c     5C 56 51 4C 
02e30     47 42 3E 3B | 	byte	$89, $84, $7e, $79, $73, $6d, $67, $61, $5c, $56, $51, $4c, $47, $42, $3e, $3b
02e34     37 35 33 32 
02e38     31 31 31 32 
02e3c     34 36 39 3D 
02e40     40 44 49 4D | 	byte	$37, $35, $33, $32, $31, $31, $31, $32, $34, $36, $39, $3d, $40, $44, $49, $4d
02e44     52 57 5D 62 
02e48     67 6C 72 77 
02e4c     7C 81 86 8B 
02e50     90 94 99 9D | 	byte	$52, $57, $5d, $62, $67, $6c, $72, $77, $7c, $81, $86, $8b, $90, $94, $99, $9d
02e54     A1 A5 A9 AC 
02e58     B0 B3 B5 B8 
02e5c     BA BB BD BE 
02e60     BF BF BF BF | 	byte	$a1, $a5, $a9, $ac, $b0, $b3, $b5, $b8, $ba, $bb, $bd, $be, $bf, $bf, $bf, $bf
02e64     BF BE BD BC 
02e68     BA B8 B6 B4 
02e6c     B2 B0 AD AB 
02e70     A8 A6 A3 A0 | 	byte	$bf, $be, $bd, $bc, $ba, $b8, $b6, $b4, $b2, $b0, $ad, $ab, $a8, $a6, $a3, $a0
02e74     9D 9A 96 92 
02e78     8E 89 84 7F 
02e7c     79 74 6E 68 
02e80     63 5D 58 53 | 	byte	$9d, $9a, $96, $92, $8e, $89, $84, $7f, $79, $74, $6e, $68, $63, $5d, $58, $53
02e84     4E 49 45 41 
02e88     3D 3A 38 36 
02e8c     34 33 33 33 
02e90     34 36 37 3A | 	byte	$4e, $49, $45, $41, $3d, $3a, $38, $36, $34, $33, $33, $33, $34, $36, $37, $3a
02e94     3D 40 44 48 
02e98     4C 51 56 5A 
02e9c     5F 64 69 6F 
02ea0     74 79 7E 82 | 	byte	$3d, $40, $44, $48, $4c, $51, $56, $5a, $5f, $64, $69, $6f, $74, $79, $7e, $82
02ea4     87 8C 91 95 
02ea8     9A 9E A2 A6 
02eac     AA AD B0 B3 
02eb0     B6 B8 BA BC | 	byte	$87, $8c, $91, $95, $9a, $9e, $a2, $a6, $aa, $ad, $b0, $b3, $b6, $b8, $ba, $bc
02eb4     BD BE BF BF 
02eb8     C0 BF BF BE 
02ebc     BD BC BA B8 
02ec0     B6 B4 B2 B0 | 	byte	$bd, $be, $bf, $bf, $c0, $bf, $bf, $be, $bd, $bc, $ba, $b8, $b6, $b4, $b2, $b0
02ec4     AD AB A8 A6 
02ec8     A3 9F 9B 97 
02ecc     93 8E 89 84 
02ed0     7F 79 73 6E | 	byte	$ad, $ab, $a8, $a6, $a3, $9f, $9b, $97, $93, $8e, $89, $84, $7f, $79, $73, $6e
02ed4     68 62 5C 57 
02ed8     52 4D 48 44 
02edc     40 3D 3A 37 
02ee0     35 34 33 33 | 	byte	$68, $62, $5c, $57, $52, $4d, $48, $44, $40, $3d, $3a, $37, $35, $34, $33, $33
02ee4     33 34 35 37 
02ee8     3A 3D 40 44 
02eec     48 4D 51 56 
02ef0     5B 60 65 6A | 	byte	$33, $34, $35, $37, $3a, $3d, $40, $44, $48, $4d, $51, $56, $5b, $60, $65, $6a
02ef4     6F 74 79 7E 
02ef8     83 88 8D 92 
02efc     96 9B 9F A3 
02f00     A7 AB AE B1 | 	byte	$6f, $74, $79, $7e, $83, $88, $8d, $92, $96, $9b, $9f, $a3, $a7, $ab, $ae, $b1
02f04     B4 B6 B8 BA 
02f08     BC BD BE BF 
02f0c     BF BF BF BE 
02f10     BD BC BB B9 | 	byte	$b4, $b6, $b8, $ba, $bc, $bd, $be, $bf, $bf, $bf, $bf, $be, $bd, $bc, $bb, $b9
02f14     B8 B6 B4 B1 
02f18     AF AD AA A8 
02f1c     A5 A2 9E 9B 
02f20     97 92 8E 89 | 	byte	$b8, $b6, $b4, $b1, $af, $ad, $aa, $a8, $a5, $a2, $9e, $9b, $97, $92, $8e, $89
02f24     84 7E 79 73 
02f28     6E 68 63 5D 
02f2c     58 53 4E 4A 
02f30     46 42 3F 3C | 	byte	$84, $7e, $79, $73, $6e, $68, $63, $5d, $58, $53, $4e, $4a, $46, $42, $3f, $3c
02f34     39 38 36 35 
02f38     35 35 36 37 
02f3c     39 3B 3E 41 
02f40     44 48 4C 50 | 	byte	$39, $38, $36, $35, $35, $35, $36, $37, $39, $3b, $3e, $41, $44, $48, $4c, $50
02f44     55 59 5E 63 
02f48     68 6D 72 76 
02f4c     7B 80 85 8A 
02f50     8E 93 97 9B | 	byte	$55, $59, $5e, $63, $68, $6d, $72, $76, $7b, $80, $85, $8a, $8e, $93, $97, $9b
02f54     9F A3 A7 AA 
02f58     AE B1 B3 B6 
02f5c     B8 BA BB BD 
02f60     BE BE BF BF | 	byte	$9f, $a3, $a7, $aa, $ae, $b1, $b3, $b6, $b8, $ba, $bb, $bd, $be, $be, $bf, $bf
02f64     BF BE BD BC 
02f68     BB BA B8 B6 
02f6c     B4 B2 B0 AD 
02f70     AB A8 A5 A1 | 	byte	$bf, $be, $bd, $bc, $bb, $ba, $b8, $b6, $b4, $b2, $b0, $ad, $ab, $a8, $a5, $a1
02f74     9D 99 94 90 
02f78     8A 85 80 7A 
02f7c     74 6F 69 64 
02f80     5E 59 54 4F | 	byte	$9d, $99, $94, $90, $8a, $85, $80, $7a, $74, $6f, $69, $64, $5e, $59, $54, $4f
02f84     4A 46 42 3F 
02f88     3C 3A 38 36 
02f8c     35 35 35 36 
02f90     37 39 3B 3E | 	byte	$4a, $46, $42, $3f, $3c, $3a, $38, $36, $35, $35, $35, $36, $37, $39, $3b, $3e
02f94     41 44 48 4C 
02f98     50 55 59 5E 
02f9c     63 68 6D 72 
02fa0     77 7B 80 85 | 	byte	$41, $44, $48, $4c, $50, $55, $59, $5e, $63, $68, $6d, $72, $77, $7b, $80, $85
02fa4     8A 8E 93 97 
02fa8     9C A0 A4 A7 
02fac     AB AE B1 B4 
02fb0     B6 B8 BA BC | 	byte	$8a, $8e, $93, $97, $9c, $a0, $a4, $a7, $ab, $ae, $b1, $b4, $b6, $b8, $ba, $bc
02fb4     BD BE BE BF 
02fb8     BF BF BE BD 
02fbc     BC BB B9 B8 
02fc0     B6 B4 B2 AF | 	byte	$bd, $be, $be, $bf, $bf, $bf, $be, $bd, $bc, $bb, $b9, $b8, $b6, $b4, $b2, $af
02fc4     AD AA A7 A4 
02fc8     A0 9C 98 93 
02fcc     8E 89 84 7E 
02fd0     79 73 6E 69 | 	byte	$ad, $aa, $a7, $a4, $a0, $9c, $98, $93, $8e, $89, $84, $7e, $79, $73, $6e, $69
02fd4     63 5E 59 54 
02fd8     50 4B 48 44 
02fdc     41 3E 3B 3A 
02fe0     38 37 37 37 | 	byte	$63, $5e, $59, $54, $50, $4b, $48, $44, $41, $3e, $3b, $3a, $38, $37, $37, $37
02fe4     37 39 3A 3C 
02fe8     3F 42 45 48 
02fec     4C 50 54 59 
02ff0     5D 62 66 6B | 	byte	$37, $39, $3a, $3c, $3f, $42, $45, $48, $4c, $50, $54, $59, $5d, $62, $66, $6b
02ff4     70 75 79 7E 
02ff8     83 87 8C 90 
02ffc     95 99 9D A1 
03000     A4 A8 AB AE | 	byte	$70, $75, $79, $7e, $83, $87, $8c, $90, $95, $99, $9d, $a1, $a4, $a8, $ab, $ae
03004     B1 B3 B6 B8 
03008     B9 BB BC BD 
0300c     BE BE BE BE 
03010     BD BC BB BA | 	byte	$b1, $b3, $b6, $b8, $b9, $bb, $bc, $bd, $be, $be, $be, $be, $bd, $bc, $bb, $ba
03014     B9 B7 B6 B4 
03018     B2 AF AC AA 
0301c     A6 A3 9F 9A 
03020     96 91 8B 86 | 	byte	$b9, $b7, $b6, $b4, $b2, $af, $ac, $aa, $a6, $a3, $9f, $9a, $96, $91, $8b, $86
03024     81 7B 76 70 
03028     6B 65 60 5B 
0302c     56 52 4D 49 
03030     45 42 3F 3D | 	byte	$81, $7b, $76, $70, $6b, $65, $60, $5b, $56, $52, $4d, $49, $45, $42, $3f, $3d
03034     3B 39 38 37 
03038     37 38 39 3A 
0303c     3C 3F 41 44 
03040     48 4C 50 54 | 	byte	$3b, $39, $38, $37, $37, $38, $39, $3a, $3c, $3f, $41, $44, $48, $4c, $50, $54
03044     58 5C 61 66 
03048     6A 6F 74 79 
0304c     7E 82 87 8B 
03050     90 94 98 9C | 	byte	$58, $5c, $61, $66, $6a, $6f, $74, $79, $7e, $82, $87, $8b, $90, $94, $98, $9c
03054     A0 A4 A7 AB 
03058     AE B0 B3 B5 
0305c     B7 B9 BB BC 
03060     BD BD BE BE | 	byte	$a0, $a4, $a7, $ab, $ae, $b0, $b3, $b5, $b7, $b9, $bb, $bc, $bd, $bd, $be, $be
03064     BE BD BD BC 
03068     BA B9 B8 B6 
0306c     B4 B2 AF AC 
03070     A9 A6 A2 9E | 	byte	$be, $bd, $bd, $bc, $ba, $b9, $b8, $b6, $b4, $b2, $af, $ac, $a9, $a6, $a2, $9e
03074     99 94 8F 8A 
03078     84 7F 79 74 
0307c     6E 69 64 5F 
03080     5A 55 51 4D | 	byte	$99, $94, $8f, $8a, $84, $7f, $79, $74, $6e, $69, $64, $5f, $5a, $55, $51, $4d
03084     49 45 42 3F 
03088     3D 3B 3A 39 
0308c     39 39 39 3A 
03090     3C 3E 40 43 | 	byte	$49, $45, $42, $3f, $3d, $3b, $3a, $39, $39, $39, $39, $3a, $3c, $3e, $40, $43
03094     46 49 4D 50 
03098     54 59 5D 61 
0309c     66 6A 6F 74 
030a0     78 7D 81 86 | 	byte	$46, $49, $4d, $50, $54, $59, $5d, $61, $66, $6a, $6f, $74, $78, $7d, $81, $86
030a4     8A 8F 93 97 
030a8     9B 9F A2 A5 
030ac     A9 AC AF B1 
030b0     B3 B6 B7 B9 | 	byte	$8a, $8f, $93, $97, $9b, $9f, $a2, $a5, $a9, $ac, $af, $b1, $b3, $b6, $b7, $b9
030b4     BA BB BC BD 
030b8     BD BD BD BC 
030bc     BB BA B9 B8 
030c0     B6 B5 B2 B0 | 	byte	$ba, $bb, $bc, $bd, $bd, $bd, $bd, $bc, $bb, $ba, $b9, $b8, $b6, $b5, $b2, $b0
030c4     AD AA A7 A3 
030c8     9F 9B 96 91 
030cc     8C 87 81 7C 
030d0     76 71 6C 67 | 	byte	$ad, $aa, $a7, $a3, $9f, $9b, $96, $91, $8c, $87, $81, $7c, $76, $71, $6c, $67
030d4     62 5D 58 54 
030d8     4F 4C 48 45 
030dc     42 3F 3D 3C 
030e0     3B 3A 3A 3A | 	byte	$62, $5d, $58, $54, $4f, $4c, $48, $45, $42, $3f, $3d, $3c, $3b, $3a, $3a, $3a
030e4     3B 3C 3E 40 
030e8     43 45 49 4C 
030ec     50 53 58 5C 
030f0     60 65 69 6E | 	byte	$3b, $3c, $3e, $40, $43, $45, $49, $4c, $50, $53, $58, $5c, $60, $65, $69, $6e
030f4     72 77 7C 80 
030f8     85 89 8D 92 
030fc     96 9A 9D A1 
03100     A5 A8 AB AE | 	byte	$72, $77, $7c, $80, $85, $89, $8d, $92, $96, $9a, $9d, $a1, $a5, $a8, $ab, $ae
03104     B0 B3 B5 B7 
03108     B8 BA BB BC 
0310c     BC BD BD BD 
03110     BC BB BB B9 | 	byte	$b0, $b3, $b5, $b7, $b8, $ba, $bb, $bc, $bc, $bd, $bd, $bd, $bc, $bb, $bb, $b9
03114     B8 B6 B5 B2 
03118     B0 AD AA A6 
0311c     A2 9E 99 95 
03120     90 8A 85 80 | 	byte	$b8, $b6, $b5, $b2, $b0, $ad, $aa, $a6, $a2, $9e, $99, $95, $90, $8a, $85, $80
03124     7A 75 6F 6A 
03128     65 60 5B 57 
0312c     52 4E 4A 47 
03130     44 41 3F 3D | 	byte	$7a, $75, $6f, $6a, $65, $60, $5b, $57, $52, $4e, $4a, $47, $44, $41, $3f, $3d
03134     3C 3B 3B 3B 
03138     3B 3C 3E 3F 
0313c     42 44 47 4A 
03140     4E 51 55 59 | 	byte	$3c, $3b, $3b, $3b, $3b, $3c, $3e, $3f, $42, $44, $47, $4a, $4e, $51, $55, $59
03144     5D 61 66 6A 
03148     6F 73 78 7C 
0314c     80 85 89 8D 
03150     91 95 99 9D | 	byte	$5d, $61, $66, $6a, $6f, $73, $78, $7c, $80, $85, $89, $8d, $91, $95, $99, $9d
03154     A0 A3 A7 AA 
03158     AC AF B1 B3 
0315c     B5 B7 B8 B9 
03160     BA BB BB BC | 	byte	$a0, $a3, $a7, $aa, $ac, $af, $b1, $b3, $b5, $b7, $b8, $b9, $ba, $bb, $bb, $bc
03164     BC BB BB BA 
03168     B9 B8 B6 B5 
0316c     B3 B0 AD AA 
03170     A7 A3 9F 9A | 	byte	$bc, $bb, $bb, $ba, $b9, $b8, $b6, $b5, $b3, $b0, $ad, $aa, $a7, $a3, $9f, $9a
03174     96 91 8C 87 
03178     81 7C 77 72 
0317c     6D 68 63 5E 
03180     5A 56 51 4E | 	byte	$96, $91, $8c, $87, $81, $7c, $77, $72, $6d, $68, $63, $5e, $5a, $56, $51, $4e
03184     4A 47 45 42 
03188     40 3F 3E 3D 
0318c     3D 3D 3E 3F 
03190     40 42 44 47 | 	byte	$4a, $47, $45, $42, $40, $3f, $3e, $3d, $3d, $3d, $3e, $3f, $40, $42, $44, $47
03194     4A 4D 50 54 
03198     58 5C 60 64 
0319c     68 6D 71 76 
031a0     7A 7E 83 87 | 	byte	$4a, $4d, $50, $54, $58, $5c, $60, $64, $68, $6d, $71, $76, $7a, $7e, $83, $87
031a4     8B 8F 93 97 
031a8     9B 9E A2 A5 
031ac     A8 AB AE B0 
031b0     B2 B4 B6 B8 | 	byte	$8b, $8f, $93, $97, $9b, $9e, $a2, $a5, $a8, $ab, $ae, $b0, $b2, $b4, $b6, $b8
031b4     B9 BA BB BB 
031b8     BB BB BB BB 
031bc     BA B9 B8 B7 
031c0     B5 B3 B0 AD | 	byte	$b9, $ba, $bb, $bb, $bb, $bb, $bb, $bb, $ba, $b9, $b8, $b7, $b5, $b3, $b0, $ad
031c4     AA A6 A2 9E 
031c8     9A 95 90 8B 
031cc     85 80 7B 76 
031d0     71 6C 67 62 | 	byte	$aa, $a6, $a2, $9e, $9a, $95, $90, $8b, $85, $80, $7b, $76, $71, $6c, $67, $62
031d4     5D 59 55 51 
031d8     4D 4A 47 44 
031dc     42 40 3F 3E 
031e0     3D 3D 3E 3E | 	byte	$5d, $59, $55, $51, $4d, $4a, $47, $44, $42, $40, $3f, $3e, $3d, $3d, $3e, $3e
031e4     3F 41 43 45 
031e8     48 4B 4E 52 
031ec     55 59 5D 61 
031f0     66 6A 6E 73 | 	byte	$3f, $41, $43, $45, $48, $4b, $4e, $52, $55, $59, $5d, $61, $66, $6a, $6e, $73
031f4     77 7B 80 84 
031f8     88 8C 90 94 
031fc     97 9B 9E A2 
03200     A5 A8 AA AD | 	byte	$77, $7b, $80, $84, $88, $8c, $90, $94, $97, $9b, $9e, $a2, $a5, $a8, $aa, $ad
03204     AF B1 B3 B5 
03208     B6 B7 B8 B9 
0320c     BA BA BA BA 
03210     BA B9 B8 B7 | 	byte	$af, $b1, $b3, $b5, $b6, $b7, $b8, $b9, $ba, $ba, $ba, $ba, $ba, $b9, $b8, $b7
03214     B6 B4 B2 AF 
03218     AD A9 A6 A2 
0321c     9E 99 95 90 
03220     8B 86 81 7C | 	byte	$b6, $b4, $b2, $af, $ad, $a9, $a6, $a2, $9e, $99, $95, $90, $8b, $86, $81, $7c
03224     77 72 6E 69 
03228     64 60 5C 58 
0322c     54 50 4D 4A 
03230     48 45 43 42 | 	byte	$77, $72, $6e, $69, $64, $60, $5c, $58, $54, $50, $4d, $4a, $48, $45, $43, $42
03234     41 40 40 40 
03238     40 41 43 44 
0323c     46 49 4B 4E 
03240     51 54 58 5C | 	byte	$41, $40, $40, $40, $40, $41, $43, $44, $46, $49, $4b, $4e, $51, $54, $58, $5c
03244     60 64 68 6C 
03248     70 74 79 7D 
0324c     81 85 89 8D 
03250     91 95 98 9C | 	byte	$60, $64, $68, $6c, $70, $74, $79, $7d, $81, $85, $89, $8d, $91, $95, $98, $9c
03254     9F A2 A5 A8 
03258     AB AD AF B1 
0325c     B3 B5 B6 B7 
03260     B8 B9 BA BA | 	byte	$9f, $a2, $a5, $a8, $ab, $ad, $af, $b1, $b3, $b5, $b6, $b7, $b8, $b9, $ba, $ba
03264     BA BA B9 B9 
03268     B7 B6 B5 B2 
0326c     B0 AD AA A6 
03270     A2 9E 9A 95 | 	byte	$ba, $ba, $b9, $b9, $b7, $b6, $b5, $b2, $b0, $ad, $aa, $a6, $a2, $9e, $9a, $95
03274     90 8B 86 81 
03278     7C 77 72 6D 
0327c     69 64 60 5B 
03280     58 54 50 4D | 	byte	$90, $8b, $86, $81, $7c, $77, $72, $6d, $69, $64, $60, $5b, $58, $54, $50, $4d
03284     4A 48 46 44 
03288     42 41 41 41 
0328c     41 41 42 44 
03290     45 47 4A 4C | 	byte	$4a, $48, $46, $44, $42, $41, $41, $41, $41, $41, $42, $44, $45, $47, $4a, $4c
03294     4F 52 56 59 
03298     5D 61 65 69 
0329c     6D 72 76 7A 
032a0     7E 82 86 8A | 	byte	$4f, $52, $56, $59, $5d, $61, $65, $69, $6d, $72, $76, $7a, $7e, $82, $86, $8a
032a4     8E 92 96 99 
032a8     9C A0 A3 A6 
032ac     A8 AB AD AF 
032b0     B1 B3 B4 B6 | 	byte	$8e, $92, $96, $99, $9c, $a0, $a3, $a6, $a8, $ab, $ad, $af, $b1, $b3, $b4, $b6
032b4     B7 B7 B8 B8 
032b8     B9 B9 B8 B8 
032bc     B7 B6 B5 B3 
032c0     B1 AE AC A8 | 	byte	$b7, $b7, $b8, $b8, $b9, $b9, $b8, $b8, $b7, $b6, $b5, $b3, $b1, $ae, $ac, $a8
032c4     A5 A1 9D 98 
032c8     94 8F 8B 86 
032cc     81 7C 77 73 
032d0     6E 6A 65 61 | 	byte	$a5, $a1, $9d, $98, $94, $8f, $8b, $86, $81, $7c, $77, $73, $6e, $6a, $65, $61
032d4     5D 59 56 52 
032d8     4F 4D 4A 48 
032dc     46 45 44 43 
032e0     43 43 43 44 | 	byte	$5d, $59, $56, $52, $4f, $4d, $4a, $48, $46, $45, $44, $43, $43, $43, $43, $44
032e4     45 47 48 4B 
032e8     4D 50 53 56 
032ec     59 5D 60 64 
032f0     68 6C 70 74 | 	byte	$45, $47, $48, $4b, $4d, $50, $53, $56, $59, $5d, $60, $64, $68, $6c, $70, $74
032f4     78 7C 80 84 
032f8     88 8C 8F 93 
032fc     96 9A 9D A0 
03300     A3 A6 A8 AB | 	byte	$78, $7c, $80, $84, $88, $8c, $8f, $93, $96, $9a, $9d, $a0, $a3, $a6, $a8, $ab
03304     AD AF B1 B3 
03308     B4 B5 B6 B7 
0330c     B8 B8 B8 B8 
03310     B8 B7 B6 B5 | 	byte	$ad, $af, $b1, $b3, $b4, $b5, $b6, $b7, $b8, $b8, $b8, $b8, $b8, $b7, $b6, $b5
03314     B3 B1 AF AC 
03318     A9 A5 A1 9D 
0331c     99 94 8F 8B 
03320     86 81 7C 78 | 	byte	$b3, $b1, $af, $ac, $a9, $a5, $a1, $9d, $99, $94, $8f, $8b, $86, $81, $7c, $78
03324     73 6E 6A 66 
03328     61 5D 5A 56 
0332c     53 50 4D 4B 
03330     49 47 46 45 | 	byte	$73, $6e, $6a, $66, $61, $5d, $5a, $56, $53, $50, $4d, $4b, $49, $47, $46, $45
03334     44 44 44 44 
03338     45 46 48 4A 
0333c     4C 4E 51 54 
03340     57 5A 5E 62 | 	byte	$44, $44, $44, $44, $45, $46, $48, $4a, $4c, $4e, $51, $54, $57, $5a, $5e, $62
03344     65 69 6D 71 
03348     75 79 7D 81 
0334c     85 89 8D 90 
03350     94 97 9B 9E | 	byte	$65, $69, $6d, $71, $75, $79, $7d, $81, $85, $89, $8d, $90, $94, $97, $9b, $9e
03354     A1 A4 A6 A9 
03358     AB AD AF B1 
0335c     B3 B4 B5 B6 
03360     B7 B7 B8 B8 | 	byte	$a1, $a4, $a6, $a9, $ab, $ad, $af, $b1, $b3, $b4, $b5, $b6, $b7, $b7, $b8, $b8
03364     B7 B7 B6 B5 
03368     B4 B2 B0 AD 
0336c     AA A7 A3 9F 
03370     9B 97 92 8E | 	byte	$b7, $b7, $b6, $b5, $b4, $b2, $b0, $ad, $aa, $a7, $a3, $9f, $9b, $97, $92, $8e
03374     89 85 80 7B 
03378     77 72 6E 6A 
0337c     66 62 5E 5A 
03380     57 54 51 4F | 	byte	$89, $85, $80, $7b, $77, $72, $6e, $6a, $66, $62, $5e, $5a, $57, $54, $51, $4f
03384     4C 4B 49 48 
03388     47 46 46 46 
0338c     46 47 48 49 
03390     4B 4D 4F 52 | 	byte	$4c, $4b, $49, $48, $47, $46, $46, $46, $46, $47, $48, $49, $4b, $4d, $4f, $52
03394     55 58 5B 5E 
03398     61 65 69 6D 
0339c     70 74 78 7C 
033a0     80 83 87 8B | 	byte	$55, $58, $5b, $5e, $61, $65, $69, $6d, $70, $74, $78, $7c, $80, $83, $87, $8b
033a4     8E 92 95 98 
033a8     9B 9E A1 A4 
033ac     A6 A9 AB AD 
033b0     AF B0 B2 B3 | 	byte	$8e, $92, $95, $98, $9b, $9e, $a1, $a4, $a6, $a9, $ab, $ad, $af, $b0, $b2, $b3
033b4     B4 B5 B6 B6 
033b8     B7 B7 B6 B6 
033bc     B5 B3 B2 B0 
033c0     AD AA A7 A3 | 	byte	$b4, $b5, $b6, $b6, $b7, $b7, $b6, $b6, $b5, $b3, $b2, $b0, $ad, $aa, $a7, $a3
033c4     9F 9B 97 93 
033c8     8E 8A 85 81 
033cc     7C 78 73 6F 
033d0     6B 67 63 5F | 	byte	$9f, $9b, $97, $93, $8e, $8a, $85, $81, $7c, $78, $73, $6f, $6b, $67, $63, $5f
033d4     5C 58 55 52 
033d8     50 4E 4C 4A 
033dc     49 48 47 47 
033e0     47 47 48 49 | 	byte	$5c, $58, $55, $52, $50, $4e, $4c, $4a, $49, $48, $47, $47, $47, $47, $48, $49
033e4     4B 4C 4E 51 
033e8     53 56 59 5C 
033ec     5F 63 66 6A 
033f0     6E 71 75 79 | 	byte	$4b, $4c, $4e, $51, $53, $56, $59, $5c, $5f, $63, $66, $6a, $6e, $71, $75, $79
033f4     7D 80 84 88 
033f8     8B 8F 92 96 
033fc     99 9C 9F A1 
03400     A4 A7 A9 AB | 	byte	$7d, $80, $84, $88, $8b, $8f, $92, $96, $99, $9c, $9f, $a1, $a4, $a7, $a9, $ab
03404     AD AF B0 B2 
03408     B3 B4 B5 B6 
0340c     B6 B6 B6 B6 
03410     B5 B4 B2 B1 | 	byte	$ad, $af, $b0, $b2, $b3, $b4, $b5, $b6, $b6, $b6, $b6, $b6, $b5, $b4, $b2, $b1
03414     AE AB A8 A5 
03418     A1 9D 99 95 
0341c     91 8C 88 83 
03420     7F 7A 76 72 | 	byte	$ae, $ab, $a8, $a5, $a1, $9d, $99, $95, $91, $8c, $88, $83, $7f, $7a, $76, $72
03424     6D 69 66 62 
03428     5E 5B 58 55 
0342c     53 50 4E 4C 
03430     4B 4A 49 49 | 	byte	$6d, $69, $66, $62, $5e, $5b, $58, $55, $53, $50, $4e, $4c, $4b, $4a, $49, $49
03434     48 49 49 4A 
03438     4B 4C 4E 50 
0343c     52 55 57 5A 
03440     5D 60 64 67 | 	byte	$48, $49, $49, $4a, $4b, $4c, $4e, $50, $52, $55, $57, $5a, $5d, $60, $64, $67
03444     6B 6E 72 75 
03448     79 7D 80 84 
0344c     87 8B 8E 91 
03450     95 98 9B 9D | 	byte	$6b, $6e, $72, $75, $79, $7d, $80, $84, $87, $8b, $8e, $91, $95, $98, $9b, $9d
03454     A0 A3 A5 A7 
03458     AA AB AD AF 
0345c     B0 B2 B3 B4 
03460     B4 B5 B5 B5 | 	byte	$a0, $a3, $a5, $a7, $aa, $ab, $ad, $af, $b0, $b2, $b3, $b4, $b4, $b5, $b5, $b5
03464     B5 B4 B3 B1 
03468     B0 AD AB A8 
0346c     A5 A1 9D 99 
03470     95 91 8D 88 | 	byte	$b5, $b4, $b3, $b1, $b0, $ad, $ab, $a8, $a5, $a1, $9d, $99, $95, $91, $8d, $88
03474     84 80 7B 77 
03478     73 6F 6B 67 
0347c     63 60 5D 5A 
03480     57 54 52 50 | 	byte	$84, $80, $7b, $77, $73, $6f, $6b, $67, $63, $60, $5d, $5a, $57, $54, $52, $50
03484     4E 4D 4B 4B 
03488     4A 4A 4A 4A 
0348c     4B 4C 4D 4F 
03490     51 53 56 58 | 	byte	$4e, $4d, $4b, $4b, $4a, $4a, $4a, $4a, $4b, $4c, $4d, $4f, $51, $53, $56, $58
03494     5B 5E 61 64 
03498     68 6B 6F 72 
0349c     76 7A 7D 81 
034a0     84 88 8B 8E | 	byte	$5b, $5e, $61, $64, $68, $6b, $6f, $72, $76, $7a, $7d, $81, $84, $88, $8b, $8e
034a4     92 95 98 9B 
034a8     9D A0 A3 A5 
034ac     A7 A9 AB AD 
034b0     AF B0 B1 B2 | 	byte	$92, $95, $98, $9b, $9d, $a0, $a3, $a5, $a7, $a9, $ab, $ad, $af, $b0, $b1, $b2
034b4     B3 B4 B4 B5 
034b8     B4 B4 B3 B2 
034bc     B0 AE AC A9 
034c0     A6 A3 9F 9B | 	byte	$b3, $b4, $b4, $b5, $b4, $b4, $b3, $b2, $b0, $ae, $ac, $a9, $a6, $a3, $9f, $9b
034c4     97 93 8F 8A 
034c8     86 82 7D 79 
034cc     75 71 6D 69 
034d0     65 62 5F 5B | 	byte	$97, $93, $8f, $8a, $86, $82, $7d, $79, $75, $71, $6d, $69, $65, $62, $5f, $5b
034d4     59 56 54 51 
034d8     50 4E 4D 4C 
034dc     4B 4B 4B 4B 
034e0     4C 4D 4E 4F | 	byte	$59, $56, $54, $51, $50, $4e, $4d, $4c, $4b, $4b, $4b, $4b, $4c, $4d, $4e, $4f
034e4     51 53 55 57 
034e8     5A 5D 60 63 
034ec     66 69 6D 70 
034f0     73 77 7A 7E | 	byte	$51, $53, $55, $57, $5a, $5d, $60, $63, $66, $69, $6d, $70, $73, $77, $7a, $7e
034f4     81 84 88 8B 
034f8     8E 91 94 97 
034fc     9A 9D 9F A2 
03500     A4 A6 A8 AA | 	byte	$81, $84, $88, $8b, $8e, $91, $94, $97, $9a, $9d, $9f, $a2, $a4, $a6, $a8, $aa
03504     AC AD AF B0 
03508     B1 B2 B3 B3 
0350c     B3 B3 B3 B2 
03510     B1 AF AD AB | 	byte	$ac, $ad, $af, $b0, $b1, $b2, $b3, $b3, $b3, $b3, $b3, $b2, $b1, $af, $ad, $ab
03514     A8 A5 A2 9F 
03518     9B 97 93 8F 
0351c     8B 87 83 7F 
03520     7B 77 73 6F | 	byte	$a8, $a5, $a2, $9f, $9b, $97, $93, $8f, $8b, $87, $83, $7f, $7b, $77, $73, $6f
03524     6B 68 64 61 
03528     5E 5B 59 56 
0352c     54 52 51 4F 
03530     4E 4D 4D 4D | 	byte	$6b, $68, $64, $61, $5e, $5b, $59, $56, $54, $52, $51, $4f, $4e, $4d, $4d, $4d
03534     4D 4D 4E 4F 
03538     50 52 54 56 
0353c     58 5A 5D 60 
03540     63 66 69 6C | 	byte	$4d, $4d, $4e, $4f, $50, $52, $54, $56, $58, $5a, $5d, $60, $63, $66, $69, $6c
03544     70 73 76 7A 
03548     7D 81 84 87 
0354c     8A 8D 91 93 
03550     96 99 9C 9E | 	byte	$70, $73, $76, $7a, $7d, $81, $84, $87, $8a, $8d, $91, $93, $96, $99, $9c, $9e
03554     A1 A3 A5 A7 
03558     A9 AB AD AE 
0355c     AF B0 B1 B2 
03560     B2 B2 B2 B2 | 	byte	$a1, $a3, $a5, $a7, $a9, $ab, $ad, $ae, $af, $b0, $b1, $b2, $b2, $b2, $b2, $b2
03564     B1 AF AE AC 
03568     A9 A7 A4 A0 
0356c     9D 99 95 91 
03570     8D 89 85 81 | 	byte	$b1, $af, $ae, $ac, $a9, $a7, $a4, $a0, $9d, $99, $95, $91, $8d, $89, $85, $81
03574     7D 79 75 71 
03578     6D 6A 66 63 
0357c     60 5D 5A 58 
03580     56 54 52 50 | 	byte	$7d, $79, $75, $71, $6d, $6a, $66, $63, $60, $5d, $5a, $58, $56, $54, $52, $50
03584     4F 4E 4E 4E 
03588     4E 4E 4E 4F 
0358c     50 52 54 56 
03590     58 5A 5C 5F | 	byte	$4f, $4e, $4e, $4e, $4e, $4e, $4e, $4f, $50, $52, $54, $56, $58, $5a, $5c, $5f
03594     62 65 68 6B 
03598     6E 72 75 78 
0359c     7B 7F 82 85 
035a0     88 8B 8E 91 | 	byte	$62, $65, $68, $6b, $6e, $72, $75, $78, $7b, $7f, $82, $85, $88, $8b, $8e, $91
035a4     94 97 99 9C 
035a8     9E A1 A3 A5 
035ac     A7 A9 AA AC 
035b0     AD AE AF B0 | 	byte	$94, $97, $99, $9c, $9e, $a1, $a3, $a5, $a7, $a9, $aa, $ac, $ad, $ae, $af, $b0
035b4     B1 B1 B1 B1 
035b8     B0 AF AE AC 
035bc     AA A8 A5 A2 
035c0     9F 9C 98 94 | 	byte	$b1, $b1, $b1, $b1, $b0, $af, $ae, $ac, $aa, $a8, $a5, $a2, $9f, $9c, $98, $94
035c4     91 8D 89 85 
035c8     81 7D 79 76 
035cc     72 6F 6B 68 
035d0     65 62 5F 5C | 	byte	$91, $8d, $89, $85, $81, $7d, $79, $76, $72, $6f, $6b, $68, $65, $62, $5f, $5c
035d4     5A 58 56 54 
035d8     53 52 51 50 
035dc     50 50 50 50 
035e0     51 52 53 55 | 	byte	$5a, $58, $56, $54, $53, $52, $51, $50, $50, $50, $50, $50, $51, $52, $53, $55
035e4     56 58 5A 5D 
035e8     5F 62 65 68 
035ec     6B 6E 71 74 
035f0     77 7B 7E 81 | 	byte	$56, $58, $5a, $5d, $5f, $62, $65, $68, $6b, $6e, $71, $74, $77, $7b, $7e, $81
035f4     84 87 8A 8D 
035f8     90 93 96 98 
035fc     9B 9D A0 A2 
03600     A4 A6 A8 A9 | 	byte	$84, $87, $8a, $8d, $90, $93, $96, $98, $9b, $9d, $a0, $a2, $a4, $a6, $a8, $a9
03604     AB AC AE AF 
03608     AF B0 B0 B0 
0360c     B0 AF AE AD 
03610     AB A9 A6 A4 | 	byte	$ab, $ac, $ae, $af, $af, $b0, $b0, $b0, $b0, $af, $ae, $ad, $ab, $a9, $a6, $a4
03614     A1 9E 9A 97 
03618     93 8F 8B 87 
0361c     84 80 7C 78 
03620     74 71 6D 6A | 	byte	$a1, $9e, $9a, $97, $93, $8f, $8b, $87, $84, $80, $7c, $78, $74, $71, $6d, $6a
03624     67 64 61 5E 
03628     5C 5A 58 56 
0362c     54 53 52 51 
03630     51 50 50 51 | 	byte	$67, $64, $61, $5e, $5c, $5a, $58, $56, $54, $53, $52, $51, $51, $50, $50, $51
03634     51 52 53 55 
03638     56 58 5A 5C 
0363c     5F 61 64 67 
03640     6A 6D 70 73 | 	byte	$51, $52, $53, $55, $56, $58, $5a, $5c, $5f, $61, $64, $67, $6a, $6d, $70, $73
03644     76 79 7C 80 
03648     83 86 89 8C 
0364c     8F 91 94 97 
03650     99 9B 9E A0 | 	byte	$76, $79, $7c, $80, $83, $86, $89, $8c, $8f, $91, $94, $97, $99, $9b, $9e, $a0
03654     A2 A4 A6 A7 
03658     A9 AA AC AD 
0365c     AE AE AF AF 
03660     AF AE AE AD | 	byte	$a2, $a4, $a6, $a7, $a9, $aa, $ac, $ad, $ae, $ae, $af, $af, $af, $ae, $ae, $ad
03664     AB A9 A7 A5 
03668     A2 9F 9C 99 
0366c     95 92 8E 8B 
03670     87 83 80 7C | 	byte	$ab, $a9, $a7, $a5, $a2, $9f, $9c, $99, $95, $92, $8e, $8b, $87, $83, $80, $7c
03674     78 75 72 6E 
03678     6B 68 65 62 
0367c     60 5E 5B 59 
03680     58 56 55 54 | 	byte	$78, $75, $72, $6e, $6b, $68, $65, $62, $60, $5e, $5b, $59, $58, $56, $55, $54
03684     53 53 52 52 
03688     52 53 54 55 
0368c     56 57 59 5B 
03690     5D 5F 62 64 | 	byte	$53, $53, $52, $52, $52, $53, $54, $55, $56, $57, $59, $5b, $5d, $5f, $62, $64
03694     67 69 6C 6F 
03698     72 75 78 7B 
0369c     7E 81 84 87 
036a0     8A 8D 8F 92 | 	byte	$67, $69, $6c, $6f, $72, $75, $78, $7b, $7e, $81, $84, $87, $8a, $8d, $8f, $92
036a4     95 97 9A 9C 
036a8     9E A0 A2 A4 
036ac     A6 A8 A9 AA 
036b0     AC AD AD AE | 	byte	$95, $97, $9a, $9c, $9e, $a0, $a2, $a4, $a6, $a8, $a9, $aa, $ac, $ad, $ad, $ae
036b4     AE AE AD AD 
036b8     AC AA A8 A6 
036bc     A4 A1 9E 9B 
036c0     98 94 91 8D | 	byte	$ae, $ae, $ad, $ad, $ac, $aa, $a8, $a6, $a4, $a1, $9e, $9b, $98, $94, $91, $8d
036c4     8A 86 82 7F 
036c8     7B 78 74 71 
036cc     6E 6B 68 65 
036d0     62 60 5E 5C | 	byte	$8a, $86, $82, $7f, $7b, $78, $74, $71, $6e, $6b, $68, $65, $62, $60, $5e, $5c
036d4     5A 58 57 56 
036d8     55 54 54 54 
036dc     54 54 54 55 
036e0     56 58 59 5B | 	byte	$5a, $58, $57, $56, $55, $54, $54, $54, $54, $54, $54, $55, $56, $58, $59, $5b
036e4     5D 5F 61 64 
036e8     66 69 6C 6E 
036ec     71 74 77 7A 
036f0     7D 80 83 86 | 	byte	$5d, $5f, $61, $64, $66, $69, $6c, $6e, $71, $74, $77, $7a, $7d, $80, $83, $86
036f4     89 8B 8E 91 
036f8     93 96 98 9B 
036fc     9D 9F A1 A3 
03700     A5 A6 A8 A9 | 	byte	$89, $8b, $8e, $91, $93, $96, $98, $9b, $9d, $9f, $a1, $a3, $a5, $a6, $a8, $a9
03704     AA AB AC AD 
03708     AD AD AD AC 
0370c     AB AA A8 A6 
03710     A4 A2 9F 9C | 	byte	$aa, $ab, $ac, $ad, $ad, $ad, $ad, $ac, $ab, $aa, $a8, $a6, $a4, $a2, $9f, $9c
03714     99 96 93 8F 
03718     8C 88 85 81 
0371c     7E 7B 77 74 
03720     71 6E 6B 68 | 	byte	$99, $96, $93, $8f, $8c, $88, $85, $81, $7e, $7b, $77, $74, $71, $6e, $6b, $68
03724     65 63 61 5F 
03728     5D 5B 59 58 
0372c     57 56 55 55 
03730     55 55 55 56 | 	byte	$65, $63, $61, $5f, $5d, $5b, $59, $58, $57, $56, $55, $55, $55, $55, $55, $56
03734     56 57 59 5A 
03738     5C 5E 60 62 
0373c     64 66 69 6C 
03740     6E 71 74 77 | 	byte	$56, $57, $59, $5a, $5c, $5e, $60, $62, $64, $66, $69, $6c, $6e, $71, $74, $77
03744     79 7C 7F 82 
03748     85 87 8A 8D 
0374c     8F 92 94 97 
03750     99 9B 9D 9F | 	byte	$79, $7c, $7f, $82, $85, $87, $8a, $8d, $8f, $92, $94, $97, $99, $9b, $9d, $9f
03754     A1 A3 A5 A6 
03758     A8 A9 AA AB 
0375c     AB AC AC AC 
03760     AB AA A9 A7 | 	byte	$a1, $a3, $a5, $a6, $a8, $a9, $aa, $ab, $ab, $ac, $ac, $ac, $ab, $aa, $a9, $a7
03764     A5 A3 A1 9E 
03768     9B 98 95 92 
0376c     8F 8B 88 84 
03770     81 7E 7A 77 | 	byte	$a5, $a3, $a1, $9e, $9b, $98, $95, $92, $8f, $8b, $88, $84, $81, $7e, $7a, $77
03774     74 71 6E 6B 
03778     68 66 63 61 
0377c     5F 5D 5C 5A 
03780     59 58 57 57 | 	byte	$74, $71, $6e, $6b, $68, $66, $63, $61, $5f, $5d, $5c, $5a, $59, $58, $57, $57
03784     56 56 56 57 
03788     57 58 59 5A 
0378c     5C 5E 5F 61 
03790     64 66 68 6B | 	byte	$56, $56, $56, $57, $57, $58, $59, $5a, $5c, $5e, $5f, $61, $64, $66, $68, $6b
03794     6E 70 73 76 
03798     78 7B 7E 81 
0379c     83 86 89 8B 
037a0     8E 91 93 95 | 	byte	$6e, $70, $73, $76, $78, $7b, $7e, $81, $83, $86, $89, $8b, $8e, $91, $93, $95
037a4     98 9A 9C 9E 
037a8     A0 A2 A4 A5 
037ac     A7 A8 A9 AA 
037b0     AB AB AC AB | 	byte	$98, $9a, $9c, $9e, $a0, $a2, $a4, $a5, $a7, $a8, $a9, $aa, $ab, $ab, $ac, $ab
037b4     AB AA A9 A7 
037b8     A6 A4 A1 9F 
037bc     9C 99 96 93 
037c0     90 8C 89 86 | 	byte	$ab, $aa, $a9, $a7, $a6, $a4, $a1, $9f, $9c, $99, $96, $93, $90, $8c, $89, $86
037c4     82 7F 7C 79 
037c8     76 73 70 6D 
037cc     6A 68 65 63 
037d0     61 5F 5E 5C | 	byte	$82, $7f, $7c, $79, $76, $73, $70, $6d, $6a, $68, $65, $63, $61, $5f, $5e, $5c
037d4     5B 5A 59 58 
037d8     58 57 57 57 
037dc     58 58 59 5A 
037e0     5C 5D 5F 61 | 	byte	$5b, $5a, $59, $58, $58, $57, $57, $57, $58, $58, $59, $5a, $5c, $5d, $5f, $61
037e4     62 65 67 69 
037e8     6B 6E 71 73 
037ec     76 78 7B 7E 
037f0     80 83 86 88 | 	byte	$62, $65, $67, $69, $6b, $6e, $71, $73, $76, $78, $7b, $7e, $80, $83, $86, $88
037f4     8B 8D 90 92 
037f8     94 97 99 9B 
037fc     9D 9F A0 A2 
03800     A4 A5 A7 A8 | 	byte	$8b, $8d, $90, $92, $94, $97, $99, $9b, $9d, $9f, $a0, $a2, $a4, $a5, $a7, $a8
03804     A9 A9 AA AA 
03808     AA A9 A9 A7 
0380c     A6 A4 A2 A0 
03810     9E 9B 99 96 | 	byte	$a9, $a9, $aa, $aa, $aa, $a9, $a9, $a7, $a6, $a4, $a2, $a0, $9e, $9b, $99, $96
03814     93 90 8C 89 
03818     86 83 80 7D 
0381c     79 76 73 71 
03820     6E 6B 69 66 | 	byte	$93, $90, $8c, $89, $86, $83, $80, $7d, $79, $76, $73, $71, $6e, $6b, $69, $66
03824     64 62 60 5F 
03828     5D 5C 5B 5A 
0382c     59 59 59 59 
03830     59 59 5A 5B | 	byte	$64, $62, $60, $5f, $5d, $5c, $5b, $5a, $59, $59, $59, $59, $59, $59, $5a, $5b
03834     5C 5D 5F 60 
03838     62 64 66 68 
0383c     6A 6D 6F 72 
03840     74 77 79 7C | 	byte	$5c, $5d, $5f, $60, $62, $64, $66, $68, $6a, $6d, $6f, $72, $74, $77, $79, $7c
03844     7F 81 84 86 
03848     89 8B 8E 90 
0384c     93 95 97 99 
03850     9B 9D 9F A1 | 	byte	$7f, $81, $84, $86, $89, $8b, $8e, $90, $93, $95, $97, $99, $9b, $9d, $9f, $a1
03854     A2 A4 A5 A6 
03858     A7 A8 A9 A9 
0385c     A9 A9 A8 A7 
03860     A6 A4 A3 A1 | 	byte	$a2, $a4, $a5, $a6, $a7, $a8, $a9, $a9, $a9, $a9, $a8, $a7, $a6, $a4, $a3, $a1
03864     9E 9C 99 96 
03868     93 90 8D 8A 
0386c     87 84 81 7E 
03870     7B 78 75 72 | 	byte	$9e, $9c, $99, $96, $93, $90, $8d, $8a, $87, $84, $81, $7e, $7b, $78, $75, $72
03874     6F 6D 6A 68 
03878     66 64 62 60 
0387c     5F 5D 5C 5B 
03880     5B 5A 5A 5A | 	byte	$6f, $6d, $6a, $68, $66, $64, $62, $60, $5f, $5d, $5c, $5b, $5b, $5a, $5a, $5a
03884     5A 5A 5A 5B 
03888     5C 5D 5E 60 
0388c     62 63 65 67 
03890     69 6C 6E 70 | 	byte	$5a, $5a, $5a, $5b, $5c, $5d, $5e, $60, $62, $63, $65, $67, $69, $6c, $6e, $70
03894     73 75 77 7A 
03898     7C 7F 82 84 
0389c     87 89 8B 8E 
038a0     90 92 94 96 | 	byte	$73, $75, $77, $7a, $7c, $7f, $82, $84, $87, $89, $8b, $8e, $90, $92, $94, $96
038a4     98 9A 9C 9E 
038a8     A0 A1 A3 A4 
038ac     A5 A6 A7 A8 
038b0     A8 A8 A7 A7 | 	byte	$98, $9a, $9c, $9e, $a0, $a1, $a3, $a4, $a5, $a6, $a7, $a8, $a8, $a8, $a7, $a7
038b4     A6 A5 A3 A1 
038b8     A0 9D 9B 98 
038bc     96 93 90 8D 
038c0     8A 87 84 81 | 	byte	$a6, $a5, $a3, $a1, $a0, $9d, $9b, $98, $96, $93, $90, $8d, $8a, $87, $84, $81
038c4     7E 7B 79 76 
038c8     73 70 6E 6C 
038cc     69 67 65 63 
038d0     62 60 5F 5E | 	byte	$7e, $7b, $79, $76, $73, $70, $6e, $6c, $69, $67, $65, $63, $62, $60, $5f, $5e
038d4     5D 5C 5C 5B 
038d8     5B 5B 5B 5C 
038dc     5C 5D 5E 60 
038e0     61 63 64 66 | 	byte	$5d, $5c, $5c, $5b, $5b, $5b, $5b, $5c, $5c, $5d, $5e, $60, $61, $63, $64, $66
038e4     68 6A 6C 6F 
038e8     71 73 76 78 
038ec     7A 7D 7F 82 
038f0     84 87 89 8B | 	byte	$68, $6a, $6c, $6f, $71, $73, $76, $78, $7a, $7d, $7f, $82, $84, $87, $89, $8b
038f4     8E 90 92 94 
038f8     96 98 9A 9C 
038fc     9E 9F A1 A2 
03900     A4 A5 A6 A6 | 	byte	$8e, $90, $92, $94, $96, $98, $9a, $9c, $9e, $9f, $a1, $a2, $a4, $a5, $a6, $a6
03904     A7 A7 A7 A6 
03908     A6 A5 A3 A2 
0390c     A0 9E 9C 99 
03910     96 94 91 8E | 	byte	$a7, $a7, $a7, $a6, $a6, $a5, $a3, $a2, $a0, $9e, $9c, $99, $96, $94, $91, $8e
03914     8B 88 85 82 
03918     7F 7C 7A 77 
0391c     74 71 6F 6D 
03920     6A 68 66 64 | 	byte	$8b, $88, $85, $82, $7f, $7c, $7a, $77, $74, $71, $6f, $6d, $6a, $68, $66, $64
03924     63 61 60 5F 
03928     5E 5D 5C 5C 
0392c     5C 5C 5C 5C 
03930     5D 5E 5F 60 | 	byte	$63, $61, $60, $5f, $5e, $5d, $5c, $5c, $5c, $5c, $5c, $5c, $5d, $5e, $5f, $60
03934     61 63 64 66 
03938     68 6A 6C 6E 
0393c     70 73 75 77 
03940     79 7C 7E 80 | 	byte	$61, $63, $64, $66, $68, $6a, $6c, $6e, $70, $73, $75, $77, $79, $7c, $7e, $80
03944     83 85 87 8A 
03948     8C 8E 90 92 
0394c     94 96 98 9A 
03950     9C 9D 9F A0 | 	byte	$83, $85, $87, $8a, $8c, $8e, $90, $92, $94, $96, $98, $9a, $9c, $9d, $9f, $a0
03954     A2 A3 A4 A5 
03958     A5 A6 A6 A5 
0395c     A5 A4 A3 A2 
03960     A0 9F 9D 9A | 	byte	$a2, $a3, $a4, $a5, $a5, $a6, $a6, $a5, $a5, $a4, $a3, $a2, $a0, $9f, $9d, $9a
03964     98 96 93 90 
03968     8E 8B 88 85 
0396c     82 80 7D 7A 
03970     78 75 72 70 | 	byte	$98, $96, $93, $90, $8e, $8b, $88, $85, $82, $80, $7d, $7a, $78, $75, $72, $70
03974     6E 6C 6A 68 
03978     66 64 63 62 
0397c     60 5F 5F 5E 
03980     5E 5D 5D 5D | 	byte	$6e, $6c, $6a, $68, $66, $64, $63, $62, $60, $5f, $5f, $5e, $5e, $5d, $5d, $5d
03984     5E 5E 5F 60 
03988     61 62 63 65 
0398c     67 68 6A 6C 
03990     6E 70 73 75 | 	byte	$5e, $5e, $5f, $60, $61, $62, $63, $65, $67, $68, $6a, $6c, $6e, $70, $73, $75
03994     77 79 7C 7E 
03998     80 82 85 87 
0399c     89 8B 8E 90 
039a0     92 94 96 98 | 	byte	$77, $79, $7c, $7e, $80, $82, $85, $87, $89, $8b, $8e, $90, $92, $94, $96, $98
039a4     9A 9B 9D 9E 
039a8     A0 A1 A2 A3 
039ac     A4 A4 A5 A5 
039b0     A4 A4 A3 A2 | 	byte	$9a, $9b, $9d, $9e, $a0, $a1, $a2, $a3, $a4, $a4, $a5, $a5, $a4, $a4, $a3, $a2
039b4     A0 9F 9D 9B 
039b8     99 96 94 91 
039bc     8F 8C 89 86 
039c0     84 81 7E 7B | 	byte	$a0, $9f, $9d, $9b, $99, $96, $94, $91, $8f, $8c, $89, $86, $84, $81, $7e, $7b
039c4     79 76 74 71 
039c8     6F 6D 6B 69 
039cc     67 65 64 63 
039d0     61 60 5F 5F | 	byte	$79, $76, $74, $71, $6f, $6d, $6b, $69, $67, $65, $64, $63, $61, $60, $5f, $5f
039d4     5E 5E 5E 5E 
039d8     5E          | 	byte	$5e[5]
039d9     5F 5F 60 61 
039dd     62 64 65 67 
039e1     68 6A 6C 6E 
039e5     70 72 74 77 | 	byte	$5f, $5f, $60, $61, $62, $64, $65, $67, $68, $6a, $6c, $6e, $70, $72, $74, $77
039e9     79 7B 7D 80 
039ed     82 84 86 88 
039f1     8A 8D 8F 91 
039f5     93 94 96 98 | 	byte	$79, $7b, $7d, $80, $82, $84, $86, $88, $8a, $8d, $8f, $91, $93, $94, $96, $98
039f9     9A 9B 9D 9E 
039fd     A0 A1 A2 A3 
03a01     A3 A4 A4 A4 
03a05     A3 A3 A2 A0 | 	byte	$9a, $9b, $9d, $9e, $a0, $a1, $a2, $a3, $a3, $a4, $a4, $a4, $a3, $a3, $a2, $a0
03a09     9F 9D 9C 9A 
03a0d     97 95 93 90 
03a11     8E 8B 88 86 
03a15     83 81 7E 7B | 	byte	$9f, $9d, $9c, $9a, $97, $95, $93, $90, $8e, $8b, $88, $86, $83, $81, $7e, $7b
03a19     79 76 74 72 
03a1d     70 6E 6C 6A 
03a21     68 66 65 64 
03a25     63 61 61 60 | 	byte	$79, $76, $74, $72, $70, $6e, $6c, $6a, $68, $66, $65, $64, $63, $61, $61, $60
03a29     5F 5F 5F 5F 
03a2d     5F          | 	byte	$5f[5]
03a2e     60 60 61 62 
03a32     63 64 66 67 
03a36     69 6A 6C 6E 
03a3a     70 72 74 76 | 	byte	$60, $60, $61, $62, $63, $64, $66, $67, $69, $6a, $6c, $6e, $70, $72, $74, $76
03a3e     79 7B 7D 7F 
03a42     81 83 85 88 
03a46     8A 8C 8E 90 
03a4a     92 94 96 97 | 	byte	$79, $7b, $7d, $7f, $81, $83, $85, $88, $8a, $8c, $8e, $90, $92, $94, $96, $97
03a4e     99 9B 9C 9E 
03a52     9F A0 A1 A2 
03a56     A2 A3 A3 A3 
03a5a     A2 A1 A0 9F | 	byte	$99, $9b, $9c, $9e, $9f, $a0, $a1, $a2, $a2, $a3, $a3, $a3, $a2, $a1, $a0, $9f
03a5e     9E 9C 9A 98 
03a62     96 94 91 8F 
03a66     8C 8A 87 84 
03a6a     82 7F 7D 7A | 	byte	$9e, $9c, $9a, $98, $96, $94, $91, $8f, $8c, $8a, $87, $84, $82, $7f, $7d, $7a
03a6e     78 76 73 71 
03a72     6F 6D 6B 69 
03a76     68 66 65 64 
03a7a     63 62 61 60 | 	byte	$78, $76, $73, $71, $6f, $6d, $6b, $69, $68, $66, $65, $64, $63, $62, $61, $60
03a7e     60 60 60 60 
03a82     60          | 	byte	$60[5]
03a83     61 62 62 63 
03a87     65 66 67 69 
03a8b     6A 6C 6E 70 
03a8f     72 74 76 78 | 	byte	$61, $62, $62, $63, $65, $66, $67, $69, $6a, $6c, $6e, $70, $72, $74, $76, $78
03a93     7A 7C 7E 81 
03a97     83 85 87 89 
03a9b     8B 8D 8F 91 
03a9f     93 95 97 98 | 	byte	$7a, $7c, $7e, $81, $83, $85, $87, $89, $8b, $8d, $8f, $91, $93, $95, $97, $98
03aa3     9A 9B 9D 9E 
03aa7     9F A0 A1 A2 
03aab     A2 A2 A2 A2 
03aaf     A1 A0 9F 9E | 	byte	$9a, $9b, $9d, $9e, $9f, $a0, $a1, $a2, $a2, $a2, $a2, $a2, $a1, $a0, $9f, $9e
03ab3     9C 9B 99 97 
03ab7     95 92 90 8E 
03abb     8B 89 86 84 
03abf     81 7F 7C 7A | 	byte	$9c, $9b, $99, $97, $95, $92, $90, $8e, $8b, $89, $86, $84, $81, $7f, $7c, $7a
03ac3     78 76 73 71 
03ac7     6F 6D 6C 6A 
03acb     68 67 66 65 
03acf     64 63 62 61 | 	byte	$78, $76, $73, $71, $6f, $6d, $6c, $6a, $68, $67, $66, $65, $64, $63, $62, $61
03ad3     61 61 61 61 
03ad7     61          | 	byte	$61[5]
03ad8     62 62 63 64 
03adc     65 66 68 69 
03ae0     6B 6C 6E 70 
03ae4     72 74 76 78 | 	byte	$62, $62, $63, $64, $65, $66, $68, $69, $6b, $6c, $6e, $70, $72, $74, $76, $78
03ae8     7A 7C 7E 80 
03aec     82 84 86 88 
03af0     8A 8C 8E 90 
03af4     92 93 95 97 | 	byte	$7a, $7c, $7e, $80, $82, $84, $86, $88, $8a, $8c, $8e, $90, $92, $93, $95, $97
03af8     98 9A 9B 9D 
03afc     9E 9F A0 A0 
03b00     A1 A1 A1 A0 
03b04     A0 9F 9E 9D | 	byte	$98, $9a, $9b, $9d, $9e, $9f, $a0, $a0, $a1, $a1, $a1, $a0, $a0, $9f, $9e, $9d
03b08     9B 99 98 96 
03b0c     94 91 8F 8D 
03b10     8A 88 86 83 
03b14     81 7E 7C 7A | 	byte	$9b, $99, $98, $96, $94, $91, $8f, $8d, $8a, $88, $86, $83, $81, $7e, $7c, $7a
03b18     77 75 73 71 
03b1c     6F 6E 6C 6A 
03b20     69 68 66 65 
03b24     64 64 63 62 | 	byte	$77, $75, $73, $71, $6f, $6e, $6c, $6a, $69, $68, $66, $65, $64, $64, $63, $62
03b28     62 62 62 62 
03b2c     63 63 64 65 
03b30     66 67 68 6A 
03b34     6B 6D 6E 70 | 	byte	$62, $62, $62, $62, $63, $63, $64, $65, $66, $67, $68, $6a, $6b, $6d, $6e, $70
03b38     72 74 75 77 
03b3c     79 7B 7D 7F 
03b40     81 83 85 87 
03b44     89 8B 8D 8F | 	byte	$72, $74, $75, $77, $79, $7b, $7d, $7f, $81, $83, $85, $87, $89, $8b, $8d, $8f
03b48     91 93 94 96 
03b4c     98 99 9B 9C 
03b50     9D 9E 9F A0 
03b54     A0 A0 A0 A0 | 	byte	$91, $93, $94, $96, $98, $99, $9b, $9c, $9d, $9e, $9f, $a0, $a0, $a0, $a0, $a0
03b58     A0 9F 9E 9D 
03b5c     9B 9A 98 96 
03b60     94 92 90 8D 
03b64     8B 89 86 84 | 	byte	$a0, $9f, $9e, $9d, $9b, $9a, $98, $96, $94, $92, $90, $8d, $8b, $89, $86, $84
03b68     82 80 7D 7B 
03b6c     79 77 75 73 
03b70     71 6F 6D 6C 
03b74     6A 69 68 66 | 	byte	$82, $80, $7d, $7b, $79, $77, $75, $73, $71, $6f, $6d, $6c, $6a, $69, $68, $66
03b78     65 65 64 63 
03b7c     63 63 63 63 
03b80     63 63 64 65 
03b84     66 66 68 69 | 	byte	$65, $65, $64, $63, $63, $63, $63, $63, $63, $63, $64, $65, $66, $66, $68, $69
03b88     6A 6C 6D 6F 
03b8c     70 72 74 76 
03b90     78 79 7B 7D 
03b94     7F 81 83 85 | 	byte	$6a, $6c, $6d, $6f, $70, $72, $74, $76, $78, $79, $7b, $7d, $7f, $81, $83, $85
03b98     87 89 8B 8D 
03b9c     8E 90 92 94 
03ba0     95 97 98 9A 
03ba4     9B 9C 9D 9E | 	byte	$87, $89, $8b, $8d, $8e, $90, $92, $94, $95, $97, $98, $9a, $9b, $9c, $9d, $9e
03ba8     9E 9F 9F 9F 
03bac     9F 9E 9D 9D 
03bb0     9B 9A 99 97 
03bb4     95 93 91 8F | 	byte	$9e, $9f, $9f, $9f, $9f, $9e, $9d, $9d, $9b, $9a, $99, $97, $95, $93, $91, $8f
03bb8     8D 8B 88 86 
03bbc     84 82 7F 7D 
03bc0     7B 79 77 75 
03bc4     73 71 6F 6E | 	byte	$8d, $8b, $88, $86, $84, $82, $7f, $7d, $7b, $79, $77, $75, $73, $71, $6f, $6e
03bc8     6C 6B 6A 68 
03bcc     67 66 66 65 
03bd0     64 64 64 64 
03bd4     64 64 65 65 | 	byte	$6c, $6b, $6a, $68, $67, $66, $66, $65, $64, $64, $64, $64, $64, $64, $65, $65
03bd8     66 67 68 69 
03bdc     6A 6C 6D 6E 
03be0     70 72 73 75 
03be4     77 79 7B 7C | 	byte	$66, $67, $68, $69, $6a, $6c, $6d, $6e, $70, $72, $73, $75, $77, $79, $7b, $7c
03be8     7E 80 82 84 
03bec     86 88 8A 8B 
03bf0     8D 8F 91 93 
03bf4     94 96 97 99 | 	byte	$7e, $80, $82, $84, $86, $88, $8a, $8b, $8d, $8f, $91, $93, $94, $96, $97, $99
03bf8     9A 9B 9C 9D 
03bfc     9E 9E 9E 9F 
03c00     9E 9E 9D 9D 
03c04     9B 9A 99 97 | 	byte	$9a, $9b, $9c, $9d, $9e, $9e, $9e, $9f, $9e, $9e, $9d, $9d, $9b, $9a, $99, $97
03c08     95 94 92 90 
03c0c     8D 8B 89 87 
03c10     85 82 80 7E 
03c14     7C 7A 78 76 | 	byte	$95, $94, $92, $90, $8d, $8b, $89, $87, $85, $82, $80, $7e, $7c, $7a, $78, $76
03c18     74 72 70 6F 
03c1c     6D 6C 6A 69 
03c20     68 67 66 66 
03c24     65 65 64 64 | 	byte	$74, $72, $70, $6f, $6d, $6c, $6a, $69, $68, $67, $66, $66, $65, $65, $64, $64
03c28     64 65 65 65 
03c2c     66 67 68 69 
03c30     6A 6B 6C 6E 
03c34     6F 71 72 74 | 	byte	$64, $65, $65, $65, $66, $67, $68, $69, $6a, $6b, $6c, $6e, $6f, $71, $72, $74
03c38     76 78 79 7B 
03c3c     7D 7F 81 82 
03c40     84 86 88 8A 
03c44     8B 8D 8F 91 | 	byte	$76, $78, $79, $7b, $7d, $7f, $81, $82, $84, $86, $88, $8a, $8b, $8d, $8f, $91
03c48     92 94 95 97 
03c4c     98 99 9A 9B 
03c50     9C 9D 9D 9D 
03c54     9D 9D 9D 9C | 	byte	$92, $94, $95, $97, $98, $99, $9a, $9b, $9c, $9d, $9d, $9d, $9d, $9d, $9d, $9c
03c58     9B 9A 99 98 
03c5c     96 95 93 91 
03c60     8F 8D 8B 89 
03c64     87 85 82 80 | 	byte	$9b, $9a, $99, $98, $96, $95, $93, $91, $8f, $8d, $8b, $89, $87, $85, $82, $80
03c68     7E 7C 7A 78 
03c6c     76 74 73 71 
03c70     6F 6E 6D 6B 
03c74     6A 69 68 67 | 	byte	$7e, $7c, $7a, $78, $76, $74, $73, $71, $6f, $6e, $6d, $6b, $6a, $69, $68, $67
03c78     67 66 66 66 
03c7c     65 66 66 66 
03c80     67 67 68 69 
03c84     6A 6B 6C 6D | 	byte	$67, $66, $66, $66, $65, $66, $66, $66, $67, $67, $68, $69, $6a, $6b, $6c, $6d
03c88     6F 70 72 73 
03c8c     75 77 78 7A 
03c90     7C 7E 7F 81 
03c94     83 85 87 88 | 	byte	$6f, $70, $72, $73, $75, $77, $78, $7a, $7c, $7e, $7f, $81, $83, $85, $87, $88
03c98     8A 8C 8D 8F 
03c9c     91 92 94 95 
03ca0     97 98 99 9A 
03ca4     9B 9C 9C 9D | 	byte	$8a, $8c, $8d, $8f, $91, $92, $94, $95, $97, $98, $99, $9a, $9b, $9c, $9c, $9d
03ca8     9D 9D 9C 9C 
03cac     9B 9A 99 98 
03cb0     96 95 93 91 
03cb4     8F 8D 8B 89 | 	byte	$9d, $9d, $9c, $9c, $9b, $9a, $99, $98, $96, $95, $93, $91, $8f, $8d, $8b, $89
03cb8     87 85 83 81 
03cbc     7F 7D 7B 79 
03cc0     77 75 73 72 
03cc4     70 6F 6D 6C | 	byte	$87, $85, $83, $81, $7f, $7d, $7b, $79, $77, $75, $73, $72, $70, $6f, $6d, $6c
03cc8     6B 6A 69 68 
03ccc     67 67 66 66 
03cd0     66 66 66 66 
03cd4     67 67 68 69 | 	byte	$6b, $6a, $69, $68, $67, $67, $66, $66, $66, $66, $66, $66, $67, $67, $68, $69
03cd8     6A 6B 6C 6D 
03cdc     6E 70 71 73 
03ce0     74 76 78 79 
03ce4     7B 7D 7E 80 | 	byte	$6a, $6b, $6c, $6d, $6e, $70, $71, $73, $74, $76, $78, $79, $7b, $7d, $7e, $80
03ce8     82 84 85 87 
03cec     89 8A 8C 8E 
03cf0     8F 91 92 94 
03cf4     95 97 98 99 | 	byte	$82, $84, $85, $87, $89, $8a, $8c, $8e, $8f, $91, $92, $94, $95, $97, $98, $99
03cf8     9A 9B 9B 9C 
03cfc     9C 9C 9C 9B 
03d00     9B 9A 99 98 
03d04     97 95 94 92 | 	byte	$9a, $9b, $9b, $9c, $9c, $9c, $9c, $9b, $9b, $9a, $99, $98, $97, $95, $94, $92
03d08     91 8F 8D 8B 
03d0c     89 87 85 83 
03d10     81 7F 7D 7B 
03d14     79 77 76 74 | 	byte	$91, $8f, $8d, $8b, $89, $87, $85, $83, $81, $7f, $7d, $7b, $79, $77, $76, $74
03d18     72 71 70 6E 
03d1c     6D 6C 6B 6A 
03d20     69 68 68 67 
03d24     67 67 67 67 | 	byte	$72, $71, $70, $6e, $6d, $6c, $6b, $6a, $69, $68, $68, $67, $67, $67, $67, $67
03d28     67 68 68 69 
03d2c     6A 6B 6C 6D 
03d30     6E 6F 70 72 
03d34     73 75 76 78 | 	byte	$67, $68, $68, $69, $6a, $6b, $6c, $6d, $6e, $6f, $70, $72, $73, $75, $76, $78
03d38     7A 7B 7D 7F 
03d3c     80 82 84 85 
03d40     87 89 8A 8C 
03d44     8E 8F 91 92 | 	byte	$7a, $7b, $7d, $7f, $80, $82, $84, $85, $87, $89, $8a, $8c, $8e, $8f, $91, $92
03d48     94 95 96 97 
03d4c     98 99 9A 9B 
03d50     9B 9B 9B 9B 
03d54     9A 9A 99 98 | 	byte	$94, $95, $96, $97, $98, $99, $9a, $9b, $9b, $9b, $9b, $9b, $9a, $9a, $99, $98
03d58     97 95 94 92 
03d5c     91 8F 8D 8B 
03d60     89 87 86 84 
03d64     82 80 7E 7C | 	byte	$97, $95, $94, $92, $91, $8f, $8d, $8b, $89, $87, $86, $84, $82, $80, $7e, $7c
03d68     7A 78 76 75 
03d6c     73 72 70 6F 
03d70     6E 6D 6B 6A 
03d74     6A 69 68 68 | 	byte	$7a, $78, $76, $75, $73, $72, $70, $6f, $6e, $6d, $6b, $6a, $6a, $69, $68, $68
03d78     68 67 67 67 
03d7c     68 68 68 69 
03d80     6A 6B 6C 6D 
03d84     6E 6F 70 72 | 	byte	$68, $67, $67, $67, $68, $68, $68, $69, $6a, $6b, $6c, $6d, $6e, $6f, $70, $72
03d88     73 75 76 78 
03d8c     79 7B 7C 7E 
03d90     80 81 83 85 
03d94     86 88 89 8B | 	byte	$73, $75, $76, $78, $79, $7b, $7c, $7e, $80, $81, $83, $85, $86, $88, $89, $8b
03d98     8D 8E 90 91 
03d9c     93 94 95 96 
03da0     97 98 99 9A 
03da4     9A 9A 9A 9A | 	byte	$8d, $8e, $90, $91, $93, $94, $95, $96, $97, $98, $99, $9a, $9a, $9a, $9a, $9a
03da8     9A 9A 99 98 
03dac     97 96 94 93 
03db0     92 90 8E 8D 
03db4     8B 89 87 85 | 	byte	$9a, $9a, $99, $98, $97, $96, $94, $93, $92, $90, $8e, $8d, $8b, $89, $87, $85
03db8     83 81 80 7E 
03dbc     7C 7A 78 77 
03dc0     75 74 72 71 
03dc4     70 6E 6D 6C | 	byte	$83, $81, $80, $7e, $7c, $7a, $78, $77, $75, $74, $72, $71, $70, $6e, $6d, $6c
03dc8     6B 6B 6A 69 
03dcc     69 69 68 68 
03dd0     68 69 69 69 
03dd4     6A 6B 6B 6C | 	byte	$6b, $6b, $6a, $69, $69, $69, $68, $68, $68, $69, $69, $69, $6a, $6b, $6b, $6c
03dd8     6D 6E 6F 71 
03ddc     72 73 75 76 
03de0     78 79 7B 7C 
03de4     7E 7F 81 83 | 	byte	$6d, $6e, $6f, $71, $72, $73, $75, $76, $78, $79, $7b, $7c, $7e, $7f, $81, $83
03de8     84 86 87 89 
03dec     8B 8C 8E 8F 
03df0     91 92 93 95 
03df4     96 97 98 98 | 	byte	$84, $86, $87, $89, $8b, $8c, $8e, $8f, $91, $92, $93, $95, $96, $97, $98, $98
03df8     99 99 99 99 
03dfc     99 99       | 	byte	$99[6]
03dfe     98 98 97 96 
03e02     95 93 92 90 
03e06     8F 8D 8B 8A 
03e0a     88 86 84 82 | 	byte	$98, $98, $97, $96, $95, $93, $92, $90, $8f, $8d, $8b, $8a, $88, $86, $84, $82
03e0e     80 7F 7D 7B 
03e12     79 78 76 75 
03e16     73 72 71 6F 
03e1a     6E 6D 6C 6B | 	byte	$80, $7f, $7d, $7b, $79, $78, $76, $75, $73, $72, $71, $6f, $6e, $6d, $6c, $6b
03e1e     6B 6A 6A 69 
03e22     69 69 69 69 
03e26     69 6A 6A 6B 
03e2a     6C 6C 6D 6E | 	byte	$6b, $6a, $6a, $69, $69, $69, $69, $69, $69, $6a, $6a, $6b, $6c, $6c, $6d, $6e
03e2e     70 71 72 73 
03e32     75 76 78 79 
03e36     7B 7C 7E 7F 
03e3a     81 82 84 86 | 	byte	$70, $71, $72, $73, $75, $76, $78, $79, $7b, $7c, $7e, $7f, $81, $82, $84, $86
03e3e     87 89 8A 8C 
03e42     8D 8F 90 91 
03e46     93 94 95 96 
03e4a     97 98 98 99 | 	byte	$87, $89, $8a, $8c, $8d, $8f, $90, $91, $93, $94, $95, $96, $97, $98, $98, $99
03e4e     99 99 99 99 
03e52     98 98 97 96 
03e56     95 94 92 91 
03e5a     8F 8E 8C 8B | 	byte	$99, $99, $99, $99, $98, $98, $97, $96, $95, $94, $92, $91, $8f, $8e, $8c, $8b
03e5e     89 87 85 84 
03e62     82 80 7E 7C 
03e66     7B 79 78 76 
03e6a     75 73 72 71 | 	byte	$89, $87, $85, $84, $82, $80, $7e, $7c, $7b, $79, $78, $76, $75, $73, $72, $71
03e6e     70 6F 6E 6D 
03e72     6C 6B 6B 6A 
03e76     6A 6A 6A 6A 
03e7a     6A 6A 6A 6B | 	byte	$70, $6f, $6e, $6d, $6c, $6b, $6b, $6a, $6a, $6a, $6a, $6a, $6a, $6a, $6a, $6b
03e7e     6B 6C 6D 6E 
03e82     6F 70 71 72 
03e86     73 75 76 77 
03e8a     79 7A 7C 7D | 	byte	$6b, $6c, $6d, $6e, $6f, $70, $71, $72, $73, $75, $76, $77, $79, $7a, $7c, $7d
03e8e     7F 80 82 83 
03e92     85 86 88 89 
03e96     8B 8C 8E 8F 
03e9a     91 92 93 94 | 	byte	$7f, $80, $82, $83, $85, $86, $88, $89, $8b, $8c, $8e, $8f, $91, $92, $93, $94
03e9e     95 96 97 97 
03ea2     98 98 98 98 
03ea6     97 97 96 96 
03eaa     95 94 92 91 | 	byte	$95, $96, $97, $97, $98, $98, $98, $98, $97, $97, $96, $96, $95, $94, $92, $91
03eae     90 8E 8D 8B 
03eb2     8A 88 86 84 
03eb6     83 81 7F 7E 
03eba     7C 7A 79 77 | 	byte	$90, $8e, $8d, $8b, $8a, $88, $86, $84, $83, $81, $7f, $7e, $7c, $7a, $79, $77
03ebe     76 74 73 72 
03ec2     71 70 6F 6E 
03ec6     6D 6C 6C 6B 
03eca     6B 6B 6A 6A | 	byte	$76, $74, $73, $72, $71, $70, $6f, $6e, $6d, $6c, $6c, $6b, $6b, $6b, $6a, $6a
03ece     6B 6B 6B 6B 
03ed2     6C 6D 6D 6E 
03ed6     6F 70 71 72 
03eda     74 75 76 77 | 	byte	$6b, $6b, $6b, $6b, $6c, $6d, $6d, $6e, $6f, $70, $71, $72, $74, $75, $76, $77
03ede     79 7A 7C 7D 
03ee2     7F 80 82 83 
03ee6     85 86 88 89 
03eea     8B 8C 8E 8F | 	byte	$79, $7a, $7c, $7d, $7f, $80, $82, $83, $85, $86, $88, $89, $8b, $8c, $8e, $8f
03eee     90 92 93 94 
03ef2     95 96 97 97 
03ef6     98 98 98 98 
03efa     97 97 96 96 | 	byte	$90, $92, $93, $94, $95, $96, $97, $97, $98, $98, $98, $98, $97, $97, $96, $96
03efe     95 94 93 91 
03f02     90 8F 8D 8C 
03f06     8A 88 87 85 
03f0a     83 82 80 7F | 	byte	$95, $94, $93, $91, $90, $8f, $8d, $8c, $8a, $88, $87, $85, $83, $82, $80, $7f
03f0e     7D 7B 7A 78 
03f12     77 75 74 73 
03f16     72 71 70 6F 
03f1a     6E 6D 6C 6C | 	byte	$7d, $7b, $7a, $78, $77, $75, $74, $73, $72, $71, $70, $6f, $6e, $6d, $6c, $6c
03f1e     6B 6B 6B 6B 
03f22     6B 6B 6B 6B | 	byte	$6b[8]
03f26     6C 6C 6D 6E 
03f2a     6F 6F 70 72 
03f2e     73 74 75 76 
03f32     77 79 7A 7C | 	byte	$6c, $6c, $6d, $6e, $6f, $6f, $70, $72, $73, $74, $75, $76, $77, $79, $7a, $7c
03f36     7D 7E 80 81 
03f3a     83 84 86 87 
03f3e     89 8A 8B 8D 
03f42     8E 90 91 92 | 	byte	$7d, $7e, $80, $81, $83, $84, $86, $87, $89, $8a, $8b, $8d, $8e, $90, $91, $92
03f46     93 94 95 95 
03f4a     96 97 97 97 
03f4e     97 96 96 95 
03f52     95 94 93 92 | 	byte	$93, $94, $95, $95, $96, $97, $97, $97, $97, $96, $96, $95, $95, $94, $93, $92
03f56     91 8F 8E 8D 
03f5a     8B 8A 88 86 
03f5e     85 83 82 80 
03f62     7E 7D 7B 7A | 	byte	$91, $8f, $8e, $8d, $8b, $8a, $88, $86, $85, $83, $82, $80, $7e, $7d, $7b, $7a
03f66     78 77 76 74 
03f6a     73 72 71 70 
03f6e     6F 6E 6E 6D 
03f72     6D 6C 6C 6C | 	byte	$78, $77, $76, $74, $73, $72, $71, $70, $6f, $6e, $6e, $6d, $6d, $6c, $6c, $6c
03f76     6C 6C 6C 6C 
03f7a     6D 6D 6E 6E 
03f7e     6F 70 71 72 
03f82     73 74 75 76 | 	byte	$6c, $6c, $6c, $6c, $6d, $6d, $6e, $6e, $6f, $70, $71, $72, $73, $74, $75, $76
03f86     77 79 7A 7B 
03f8a     7D 7E 80 81 
03f8e     82 84 85 87 
03f92     88 8A 8B 8C | 	byte	$77, $79, $7a, $7b, $7d, $7e, $80, $81, $82, $84, $85, $87, $88, $8a, $8b, $8c
03f96     8E 8F 90 91 
03f9a     92 93 94 95 
03f9e     96 96 96 96 
03fa2     97 96 96 95 | 	byte	$8e, $8f, $90, $91, $92, $93, $94, $95, $96, $96, $96, $96, $97, $96, $96, $95
03fa6     95 94 93 92 
03faa     91 90 8E 8D 
03fae     8B 8A 88 87 
03fb2     85 83 82 80 | 	byte	$95, $94, $93, $92, $91, $90, $8e, $8d, $8b, $8a, $88, $87, $85, $83, $82, $80
03fb6     7F 7D 7C 7A 
03fba     79 77 76 75 
03fbe     74 73 72 71 
03fc2     70 6F 6E 6E | 	byte	$7f, $7d, $7c, $7a, $79, $77, $76, $75, $74, $73, $72, $71, $70, $6f, $6e, $6e
03fc6     6D 6D 6C 6C 
03fca     6C 6C 6C 6C 
03fce     6D 6D 6D 6E 
03fd2     6F 6F 70 71 | 	byte	$6d, $6d, $6c, $6c, $6c, $6c, $6c, $6c, $6d, $6d, $6d, $6e, $6f, $6f, $70, $71
03fd6     72 73 74 75 
03fda     77 78 79 7A 
03fde     7C 7D 7E 80 
03fe2     81 82 84 85 | 	byte	$72, $73, $74, $75, $77, $78, $79, $7a, $7c, $7d, $7e, $80, $81, $82, $84, $85
03fe6     87 88 89 8B 
03fea     8C 8D 8F 90 
03fee     91 92 93 94 
03ff2     94 95 95 96 | 	byte	$87, $88, $89, $8b, $8c, $8d, $8f, $90, $91, $92, $93, $94, $94, $95, $95, $96
03ff6     96 96 95 95 
03ffa     94 94 93 92 
03ffe     91 90 8F 8E 
04002     8C 8B 8A 88 | 	byte	$96, $96, $95, $95, $94, $94, $93, $92, $91, $90, $8f, $8e, $8c, $8b, $8a, $88
04006     87 85 83 82 
0400a     80 7F 7D 7C 
0400e     7B 79 78 77 
04012     75 74 73 72 | 	byte	$87, $85, $83, $82, $80, $7f, $7d, $7c, $7b, $79, $78, $77, $75, $74, $73, $72
04016     71 70 70 6F 
0401a     6E 6E 6D 6D 
0401e     6D 6D 6D 6D 
04022     6D 6D 6E 6E | 	byte	$71, $70, $70, $6f, $6e, $6e, $6d, $6d, $6d, $6d, $6d, $6d, $6d, $6d, $6e, $6e
04026     6F 70 70 71 
0402a     72 73 74 75 
0402e     76 77 79 7A 
04032     7B 7C 7E 7F | 	byte	$6f, $70, $70, $71, $72, $73, $74, $75, $76, $77, $79, $7a, $7b, $7c, $7e, $7f
04036     80 82 83 84 
0403a     86 87 89 8A 
0403e     8B 8C 8E 8F 
04042     90 91 92 93 | 	byte	$80, $82, $83, $84, $86, $87, $89, $8a, $8b, $8c, $8e, $8f, $90, $91, $92, $93
04046     94 94 95 95 
0404a     95 95 95 95 
0404e     94 94 93 92 
04052     91 90 8F 8E | 	byte	$94, $94, $95, $95, $95, $95, $95, $95, $94, $94, $93, $92, $91, $90, $8f, $8e
04056     8C 8B 8A 88 
0405a     87 85 84 82 
0405e     81 7F 7E 7C 
04062     7B 79 78 77 | 	byte	$8c, $8b, $8a, $88, $87, $85, $84, $82, $81, $7f, $7e, $7c, $7b, $79, $78, $77
04066     76 75 74 72 
0406a     72 71 70 6F 
0406e     6F 6E 6E 6D 
04072     6D 6D 6D 6D | 	byte	$76, $75, $74, $72, $72, $71, $70, $6f, $6f, $6e, $6e, $6d, $6d, $6d, $6d, $6d
04076     6D 6E 6E 6E 
0407a     6F 6F 70 71 
0407e     72 73 74 75 
04082     76 77 78 79 | 	byte	$6d, $6e, $6e, $6e, $6f, $6f, $70, $71, $72, $73, $74, $75, $76, $77, $78, $79
04086     7A 7C 7D 7E 
0408a     80 81 82 84 
0408e     85 86 87 89 
04092     8A 8B 8C 8E | 	byte	$7a, $7c, $7d, $7e, $80, $81, $82, $84, $85, $86, $87, $89, $8a, $8b, $8c, $8e
04096     8F 90 91 92 
0409a     93 93 94 94 
0409e     94 95 95 94 
040a2     94 94 93 92 | 	byte	$8f, $90, $91, $92, $93, $93, $94, $94, $94, $95, $95, $94, $94, $94, $93, $92
040a6     91 90 8F 8E 
040aa     8D 8C 8B 89 
040ae     88 87 85 84 
040b2     82 81 80 7E | 	byte	$91, $90, $8f, $8e, $8d, $8c, $8b, $89, $88, $87, $85, $84, $82, $81, $80, $7e
040b6     7D 7B 7A 79 
040ba     78 76 75 74 
040be     73 73 72 71 
040c2     70 70 6F 6F | 	byte	$7d, $7b, $7a, $79, $78, $76, $75, $74, $73, $73, $72, $71, $70, $70, $6f, $6f
040c6     6E 6E 6E 6E 
040ca     6E 6E 6E    | 	byte	$6e[7]
040cd     6F 6F 70 70 
040d1     71 72 73 73 
040d5     74 75 76 77 
040d9     78 7A 7B 7C | 	byte	$6f, $6f, $70, $70, $71, $72, $73, $73, $74, $75, $76, $77, $78, $7a, $7b, $7c
040dd     7D 7E 80 81 
040e1     82 84 85 86 
040e5     88 89 8A 8B 
040e9     8D 8E 8F 90 | 	byte	$7d, $7e, $80, $81, $82, $84, $85, $86, $88, $89, $8a, $8b, $8d, $8e, $8f, $90
040ed     91 92 92 93 
040f1     93 94 94 94 
040f5     94 94 93 93 
040f9     92 91 90 8F | 	byte	$91, $92, $92, $93, $93, $94, $94, $94, $94, $94, $93, $93, $92, $91, $90, $8f
040fd     8E 8D 8C 8B 
04101     89 88 87 85 
04105     84 83 81 80 
04109     7E 7D 7C 7A | 	byte	$8e, $8d, $8c, $8b, $89, $88, $87, $85, $84, $83, $81, $80, $7e, $7d, $7c, $7a
0410d     79 78 77 76 
04111     75 74 73 72 
04115     71 70 70 6F 
04119     6F 6E 6E 6E | 	byte	$79, $78, $77, $76, $75, $74, $73, $72, $71, $70, $70, $6f, $6f, $6e, $6e, $6e
0411d     6E 6E 6E 6E 
04121     6F 6F 70 70 
04125     71 72 72 73 
04129     74 75 76 77 | 	byte	$6e, $6e, $6e, $6e, $6f, $6f, $70, $70, $71, $72, $72, $73, $74, $75, $76, $77
0412d     78 79 7B 7C 
04131     7D 7E 7F 81 
04135     82 83 84 86 
04139     87 88 89 8B | 	byte	$78, $79, $7b, $7c, $7d, $7e, $7f, $81, $82, $83, $84, $86, $87, $88, $89, $8b
0413d     8C 8D 8E 8F 
04141     90 91 92 92 
04145     93 93 93 93 
04149     93 93 93 93 | 	byte	$8c, $8d, $8e, $8f, $90, $91, $92, $92, $93, $93, $93, $93, $93, $93, $93, $93
0414d     92 91 91 90 
04151     8F 8E 8D 8C 
04155     8A 89 88 86 
04159     85 84 82 81 | 	byte	$92, $91, $91, $90, $8f, $8e, $8d, $8c, $8a, $89, $88, $86, $85, $84, $82, $81
0415d     80 7E 7D 7C 
04161     7B 79 78 77 
04165     76 75 74 73 
04169     72 72 71 70 | 	byte	$80, $7e, $7d, $7c, $7b, $79, $78, $77, $76, $75, $74, $73, $72, $72, $71, $70
0416d     70 70 6F 6F 
04171     6F 6F 6F 6F 
04175     6F 6F 70 70 
04179     71 71 72 73 | 	byte	$70, $70, $6f, $6f, $6f, $6f, $6f, $6f, $6f, $6f, $70, $70, $71, $71, $72, $73
0417d     74 75 75 76 
04181     77 78 7A 7B 
04185     7C 7D 7E 7F 
04189     81 82 83 84 | 	byte	$74, $75, $75, $76, $77, $78, $7a, $7b, $7c, $7d, $7e, $7f, $81, $82, $83, $84
0418d     86 87 88 89 
04191     8A 8B 8D 8E 
04195     8F 90 90 91 
04199     92 92 93 93 | 	byte	$86, $87, $88, $89, $8a, $8b, $8d, $8e, $8f, $90, $90, $91, $92, $92, $93, $93
0419d     93 93 92 92 
041a1     92 91 90 90 
041a5     8F 8E 8D 8C 
041a9     8A 89 88 87 | 	byte	$93, $93, $92, $92, $92, $91, $90, $90, $8f, $8e, $8d, $8c, $8a, $89, $88, $87
041ad     85 84 83 81 
041b1     80 7F 7E 7C 
041b5     7B 7A 79 78 
041b9     77 76 75 74 | 	byte	$85, $84, $83, $81, $80, $7f, $7e, $7c, $7b, $7a, $79, $78, $77, $76, $75, $74
041bd     73 72 71 71 
041c1     70 70 70 6F 
041c5     6F 6F 6F 6F 
041c9     6F 70 70 70 | 	byte	$73, $72, $71, $71, $70, $70, $70, $6f, $6f, $6f, $6f, $6f, $6f, $70, $70, $70
041cd     71 72 72 73 
041d1     74 75 76 76 
041d5     77 78 7A 7B 
041d9     7C 7D 7E 7F | 	byte	$71, $72, $72, $73, $74, $75, $76, $76, $77, $78, $7a, $7b, $7c, $7d, $7e, $7f
041dd     80 82 83 84 
041e1     85 86 88 89 
041e5     8A 8B 8C 8D 
041e9     8E 8F 90 91 | 	byte	$80, $82, $83, $84, $85, $86, $88, $89, $8a, $8b, $8c, $8d, $8e, $8f, $90, $91
041ed     91 92 92 93 
041f1     93 93 93 92 
041f5     92 91 91 90 
041f9     8F 8E 8D 8C | 	byte	$91, $92, $92, $93, $93, $93, $93, $92, $92, $91, $91, $90, $8f, $8e, $8d, $8c
041fd     8B 8A 89 88 
04201     86 85 84 83 
04205     81 80 7F 7D 
04209     7C 7B 7A 79 | 	byte	$8b, $8a, $89, $88, $86, $85, $84, $83, $81, $80, $7f, $7d, $7c, $7b, $7a, $79
0420d     78 77 76 75 
04211     74 73 72 72 
04215     71 71 70 70 
04219     70 70 70 70 | 	byte	$78, $77, $76, $75, $74, $73, $72, $72, $71, $71, $70, $70, $70, $70, $70, $70
0421d     70 70 70 70 
04221     71 71 72 72 
04225     73 74 75 76 
04229     77 77 78 79 | 	byte	$70, $70, $70, $70, $71, $71, $72, $72, $73, $74, $75, $76, $77, $77, $78, $79
0422d     7A 7C 7D 7E 
04231     7F 80 81 83 
04235     84 85 86 87 
04239     88 89 8B 8C | 	byte	$7a, $7c, $7d, $7e, $7f, $80, $81, $83, $84, $85, $86, $87, $88, $89, $8b, $8c
0423d     8D 8E 8F 8F 
04241     90 91 91 91 
04245     92 92 92 92 
04249     91 91 90 90 | 	byte	$8d, $8e, $8f, $8f, $90, $91, $91, $91, $92, $92, $92, $92, $91, $91, $90, $90
0424d     8F 8E 8D 8C 
04251     8B 8A 89 88 
04255     87 85 84 83 
04259     82 81 7F 7E | 	byte	$8f, $8e, $8d, $8c, $8b, $8a, $89, $88, $87, $85, $84, $83, $82, $81, $7f, $7e
0425d     7D 7C 7B 79 
04261     78 77 76 76 
04265     75 74 73 73 
04269     72 71 71 71 | 	byte	$7d, $7c, $7b, $79, $78, $77, $76, $76, $75, $74, $73, $73, $72, $71, $71, $71
0426d     70 70 70 70 
04271     70 70       | 	byte	$70[6]
04273     71 71 71 72 
04277     72 73 74 74 
0427b     75 76 77 78 
0427f     79 7A 7B 7C | 	byte	$71, $71, $71, $72, $72, $73, $74, $74, $75, $76, $77, $78, $79, $7a, $7b, $7c
04283     7D 7E 7F 80 
04287     81 82 84 85 
0428b     86 87 88 89 
0428f     8A 8C 8D 8E | 	byte	$7d, $7e, $7f, $80, $81, $82, $84, $85, $86, $87, $88, $89, $8a, $8c, $8d, $8e
04293     8E 8F 90 91 
04297     91 91 92 92 
0429b     92 92 91 91 
0429f     90 90 8F 8E | 	byte	$8e, $8f, $90, $91, $91, $91, $92, $92, $92, $92, $91, $91, $90, $90, $8f, $8e
042a3     8E 8D 8C 8B 
042a7     8A 88 87 86 
042ab     85 84 82 81 
042af     80 7F 7E 7D | 	byte	$8e, $8d, $8c, $8b, $8a, $88, $87, $86, $85, $84, $82, $81, $80, $7f, $7e, $7d
042b3     7B 7A 79 78 
042b7     77 76 76 75 
042bb     74 73 73 72 
042bf     72 71 71 71 | 	byte	$7b, $7a, $79, $78, $77, $76, $76, $75, $74, $73, $73, $72, $72, $71, $71, $71
042c3     71 70 70 71 
042c7     71 71 71 71 
042cb     72 73 73 74 
042cf     74 75 76 77 | 	byte	$71, $70, $70, $71, $71, $71, $71, $71, $72, $73, $73, $74, $74, $75, $76, $77
042d3     78 79 7A 7B 
042d7     7B 7C 7E 7F 
042db     80 81 82 83 
042df     84 85 86 88 | 	byte	$78, $79, $7a, $7b, $7b, $7c, $7e, $7f, $80, $81, $82, $83, $84, $85, $86, $88
042e3     89 8A 8B 8C 
042e7     8D 8E 8E 8F 
042eb     90 90 90 91 
042ef     91 91 91 90 | 	byte	$89, $8a, $8b, $8c, $8d, $8e, $8e, $8f, $90, $90, $90, $91, $91, $91, $91, $90
042f3     90 90 8F 8E 
042f7     8E 8D 8C 8B 
042fb     8A 89 88 87 
042ff     85 84 83 82 | 	byte	$90, $90, $8f, $8e, $8e, $8d, $8c, $8b, $8a, $89, $88, $87, $85, $84, $83, $82
04303     81 80 7F 7E 
04307     7C 7B 7A 79 
0430b     78 77 77 76 
0430f     75 74 74 73 | 	byte	$81, $80, $7f, $7e, $7c, $7b, $7a, $79, $78, $77, $77, $76, $75, $74, $74, $73
04313     73 72 72 72 
04317     71 71 71 71 
0431b     71 72 72 72 
0431f     72 73 74 74 | 	byte	$73, $72, $72, $72, $71, $71, $71, $71, $71, $72, $72, $72, $72, $73, $74, $74
04323     75 75 76 77 
04327     78 79 7A 7B 
0432b     7C 7D 7E 7F 
0432f     80 81 82 83 | 	byte	$75, $75, $76, $77, $78, $79, $7a, $7b, $7c, $7d, $7e, $7f, $80, $81, $82, $83
04333     84 85 86 87 
04337     89 8A 8B 8C 
0433b     8D 8D 8E 8F 
0433f     8F 90 90 91 | 	byte	$84, $85, $86, $87, $89, $8a, $8b, $8c, $8d, $8d, $8e, $8f, $8f, $90, $90, $91
04343     91 91 91 90 
04347     90 90 8F 8E 
0434b     8E 8D 8C 8B 
0434f     8A 89 88 87 | 	byte	$91, $91, $91, $90, $90, $90, $8f, $8e, $8e, $8d, $8c, $8b, $8a, $89, $88, $87
04353     86 85 84 82 
04357     81 80 7F 7E 
0435b     7D 7C 7B 7A 
0435f     79 78 77 76 | 	byte	$86, $85, $84, $82, $81, $80, $7f, $7e, $7d, $7c, $7b, $7a, $79, $78, $77, $76
04363     75 75 74 73 
04367     73 72 72 72 
0436b     71 71 71 71 
0436f     71 72 72 72 | 	byte	$75, $75, $74, $73, $73, $72, $72, $72, $71, $71, $71, $71, $71, $72, $72, $72
04373     72 73 73 74 
04377     74 75 76 76 
0437b     77 78 79 7A 
0437f     7B 7C 7D 7E | 	byte	$72, $73, $73, $74, $74, $75, $76, $76, $77, $78, $79, $7a, $7b, $7c, $7d, $7e
04383     7F 80 81 82 
04387     83 84 85 86 
0438b     87 88 89 8A 
0438f     8B 8C 8D 8E | 	byte	$7f, $80, $81, $82, $83, $84, $85, $86, $87, $88, $89, $8a, $8b, $8c, $8d, $8e
04393     8E 8F 8F 90 
04397     90 90 90 90 
0439b     90 8F 8F 8E 
0439f     8E 8D 8C 8C | 	byte	$8e, $8f, $8f, $90, $90, $90, $90, $90, $90, $8f, $8f, $8e, $8e, $8d, $8c, $8c
043a3     8B 8A 89 88 
043a7     87 86 84 83 
043ab     82 81 80 7F 
043af     7E 7D 7C 7B | 	byte	$8b, $8a, $89, $88, $87, $86, $84, $83, $82, $81, $80, $7f, $7e, $7d, $7c, $7b
043b3     7A 79 78 77 
043b7     77 76 75 75 
043bb     74 73 73 73 
043bf     72 72 72 72 | 	byte	$7a, $79, $78, $77, $77, $76, $75, $75, $74, $73, $73, $73, $72, $72, $72, $72
043c3     72 72 72 72 
043c7     73 73 74 74 
043cb     75 75 76 76 
043cf     77 78 79 7A | 	byte	$72, $72, $72, $72, $73, $73, $74, $74, $75, $75, $76, $76, $77, $78, $79, $7a
043d3     7B 7C 7C 7D 
043d7     7E 7F 80 81 
043db     82 84 85 86 
043df     87 88 89 8A | 	byte	$7b, $7c, $7c, $7d, $7e, $7f, $80, $81, $82, $84, $85, $86, $87, $88, $89, $8a
043e3     8B 8C 8C 8D 
043e7     8E 8E 8F 8F 
043eb     90 90 90 90 
043ef     8F 8F 8F 8E | 	byte	$8b, $8c, $8c, $8d, $8e, $8e, $8f, $8f, $90, $90, $90, $90, $8f, $8f, $8f, $8e
043f3     8E 8D 8C 8C 
043f7     8B 8A 89 88 
043fb     87 86 85 84 
043ff     82 81 80 7F | 	byte	$8e, $8d, $8c, $8c, $8b, $8a, $89, $88, $87, $86, $85, $84, $82, $81, $80, $7f
04403     7E 7D 7C 7B 
04407     7A 79 78 77 
0440b     77 76 75 75 
0440f     74 74 73 73 | 	byte	$7e, $7d, $7c, $7b, $7a, $79, $78, $77, $77, $76, $75, $75, $74, $74, $73, $73
04413     72 72 72 72 
04417     72 72 72 72 | 	byte	$72[8]
0441b     73 73 73 74 
0441f     74 75 75 76 
04423     77 78 78 79 
04427     7A 7B 7C 7D | 	byte	$73, $73, $73, $74, $74, $75, $75, $76, $77, $78, $78, $79, $7a, $7b, $7c, $7d
0442b     7E 7F 80 81 
0442f     82 83 84 85 
04433     86 87 88 89 
04437     8A 8B 8C 8C | 	byte	$7e, $7f, $80, $81, $82, $83, $84, $85, $86, $87, $88, $89, $8a, $8b, $8c, $8c
0443b     8D 8E 8E 8F 
0443f     8F 8F 8F 8F 
04443     8F 8F 8F 8E 
04447     8E 8D 8D 8C | 	byte	$8d, $8e, $8e, $8f, $8f, $8f, $8f, $8f, $8f, $8f, $8f, $8e, $8e, $8d, $8d, $8c
0444b     8B 8A 89 88 
0444f     87 86 86 84 
04453     83 82 81 80 
04457     7F 7E 7D 7C | 	byte	$8b, $8a, $89, $88, $87, $86, $86, $84, $83, $82, $81, $80, $7f, $7e, $7d, $7c
0445b     7B 7A 7A 79 
0445f     78 77 76 76 
04463     75 75 74 74 
04467     73 73 73 73 | 	byte	$7b, $7a, $7a, $79, $78, $77, $76, $76, $75, $75, $74, $74, $73, $73, $73, $73
0446b     73 73 73 73 
0446f     73 73       | 	byte	$73[6]
04471     74 74 74 75 
04475     75 76 77 77 
04479     78 79 7A 7B 
0447d     7B 7C 7D 7E | 	byte	$74, $74, $74, $75, $75, $76, $77, $77, $78, $79, $7a, $7b, $7b, $7c, $7d, $7e
04481     7F 80 81 82 
04485     83 84 85 86 
04489     87 88 89 8A 
0448d     8B 8C 8C 8D | 	byte	$7f, $80, $81, $82, $83, $84, $85, $86, $87, $88, $89, $8a, $8b, $8c, $8c, $8d
04491     8E 8E 8E 8F 
04495     8F 8F 8F 8F 
04499     8E 8E 8E 8D 
0449d     8C 8C 8B 8A | 	byte	$8e, $8e, $8e, $8f, $8f, $8f, $8f, $8f, $8e, $8e, $8e, $8d, $8c, $8c, $8b, $8a
044a1     89 88 88 87 
044a5     86 85 84 82 
044a9     81 80 7F 7E 
044ad     7D 7C 7B 7B | 	byte	$89, $88, $88, $87, $86, $85, $84, $82, $81, $80, $7f, $7e, $7d, $7c, $7b, $7b
044b1     7A 79 78 77 
044b5     77 76 75 75 
044b9     74 74 73 73 
044bd     73 73 73 73 | 	byte	$7a, $79, $78, $77, $77, $76, $75, $75, $74, $74, $73, $73, $73, $73, $73, $73
044c1     73 73 73 73 
044c5     74 74 74 75 
044c9     75 76 77 77 
044cd     78 79 79 7A | 	byte	$73, $73, $73, $73, $74, $74, $74, $75, $75, $76, $77, $77, $78, $79, $79, $7a
044d1     7B 7C 7D 7E 
044d5     7F 80 81 82 
044d9     83 84 85 86 
044dd     87 87 88 89 | 	byte	$7b, $7c, $7d, $7e, $7f, $80, $81, $82, $83, $84, $85, $86, $87, $87, $88, $89
044e1     8A 8B 8C 8C 
044e5     8D 8E 8E 8E 
044e9     8F 8F 8F 8F 
044ed     8E 8E 8E 8D | 	byte	$8a, $8b, $8c, $8c, $8d, $8e, $8e, $8e, $8f, $8f, $8f, $8f, $8e, $8e, $8e, $8d
044f1     8D 8C 8B 8B 
044f5     8A 89 88 87 
044f9     86 85 84 84 
044fd     83 81 80 7F | 	byte	$8d, $8c, $8b, $8b, $8a, $89, $88, $87, $86, $85, $84, $84, $83, $81, $80, $7f
04501     7F 7E 7D 7C 
04505     7B 7A 79 78 
04509     78 77 76 76 
0450d     75 75 74 74 | 	byte	$7f, $7e, $7d, $7c, $7b, $7a, $79, $78, $78, $77, $76, $76, $75, $75, $74, $74
04511     74 74 73 73 
04515     73 73 73 74 
04519     74 74 74 75 
0451d     75 76 76 77 | 	byte	$74, $74, $73, $73, $73, $73, $73, $74, $74, $74, $74, $75, $75, $76, $76, $77
04521     78 78 79 7A 
04525     7B 7B 7C 7D 
04529     7E 7F 80 81 
0452d     82 83 84 85 | 	byte	$78, $78, $79, $7a, $7b, $7b, $7c, $7d, $7e, $7f, $80, $81, $82, $83, $84, $85
04531     86 86 87 88 
04535     89 8A 8B 8C 
04539     8C 8D 8D 8E 
0453d     8E 8E 8E 8E | 	byte	$86, $86, $87, $88, $89, $8a, $8b, $8c, $8c, $8d, $8d, $8e, $8e, $8e, $8e, $8e
04541     8E 8E 8D 8D 
04545     8C 8C 8B 8A 
04549     8A 89 88 87 
0454d     86 85 84 84 | 	byte	$8e, $8e, $8d, $8d, $8c, $8c, $8b, $8a, $8a, $89, $88, $87, $86, $85, $84, $84
04551     83 82 81 80 
04555     7F 7E 7D 7C 
04559     7B 7A 79 79 
0455d     78 77 77 76 | 	byte	$83, $82, $81, $80, $7f, $7e, $7d, $7c, $7b, $7a, $79, $79, $78, $77, $77, $76
04561     75 75 75 74 
04565     74 74 74 73 
04569     73 73 74 74 
0456d     74 74 74 75 | 	byte	$75, $75, $75, $74, $74, $74, $74, $73, $73, $73, $74, $74, $74, $74, $74, $75
04571     75 76 76 77 
04575     78 78 79 7A 
04579     7A 7B 7C 7D 
0457d     7E 7F 80 81 | 	byte	$75, $76, $76, $77, $78, $78, $79, $7a, $7a, $7b, $7c, $7d, $7e, $7f, $80, $81
04581     82 82 83 84 
04585     85 86 87 88 
04589     89 8A 8B 8B 
0458d     8C 8C 8D 8D | 	byte	$82, $82, $83, $84, $85, $86, $87, $88, $89, $8a, $8b, $8b, $8c, $8c, $8d, $8d
04591     8E 8E 8E 8E 
04595     8E 8E       | 	byte	$8e[6]
04597     8D 8D 8D 8C 
0459b     8C 8B 8A 8A 
0459f     89 88 87 86 
045a3     85 84 83 82 | 	byte	$8d, $8d, $8d, $8c, $8c, $8b, $8a, $8a, $89, $88, $87, $86, $85, $84, $83, $82
045a7     82 81 80 7F 
045ab     7E 7D 7C 7B 
045af     7A 7A 79 78 
045b3     78 77 76 76 | 	byte	$82, $81, $80, $7f, $7e, $7d, $7c, $7b, $7a, $7a, $79, $78, $78, $77, $76, $76
045b7     75 75 75 74 
045bb     74 74 74 74 
045bf     74 74 74 74 
045c3     75 75 75 76 | 	byte	$75, $75, $75, $74, $74, $74, $74, $74, $74, $74, $74, $74, $75, $75, $75, $76
045c7     76 77 77 78 
045cb     78 79 7A 7B 
045cf     7B 7C 7D 7E 
045d3     7F 7F 80 81 | 	byte	$76, $77, $77, $78, $78, $79, $7a, $7b, $7b, $7c, $7d, $7e, $7f, $7f, $80, $81
045d7     82 83 84 85 
045db     86 87 88 89 
045df     89 8A 8B 8B 
045e3     8C 8C 8D 8D | 	byte	$82, $83, $84, $85, $86, $87, $88, $89, $89, $8a, $8b, $8b, $8c, $8c, $8d, $8d
045e7     8D 8D 8D 8D 
045eb     8D 8D       | 	byte	$8d[6]
045ed     8C 8C 8B 8B 
045f1     8A 89 89 88 
045f5     87 86 85 85 
045f9     84 83 82 81 | 	byte	$8c, $8c, $8b, $8b, $8a, $89, $89, $88, $87, $86, $85, $85, $84, $83, $82, $81
045fd     80 7F 7E 7D 
04601     7C 7C 7B 7A 
04605     79 79 78 77 
04609     77 76 76 75 | 	byte	$80, $7f, $7e, $7d, $7c, $7c, $7b, $7a, $79, $79, $78, $77, $77, $76, $76, $75
0460d     75 75 74 74 
04611     74 74 74 74 
04615     74 74 75 75 
04619     75 76 76 77 | 	byte	$75, $75, $74, $74, $74, $74, $74, $74, $74, $74, $75, $75, $75, $76, $76, $77
0461d     77 78 79 79 
04621     7A 7B 7B 7C 
04625     7D 7E 7F 7F 
04629     80 81 82 83 | 	byte	$77, $78, $79, $79, $7a, $7b, $7b, $7c, $7d, $7e, $7f, $7f, $80, $81, $82, $83
0462d     84 85 86 87 
04631     88 89 89 8A 
04635     8B 8B 8C 8C 
04639     8D 8D 8D 8D | 	byte	$84, $85, $86, $87, $88, $89, $89, $8a, $8b, $8b, $8c, $8c, $8d, $8d, $8d, $8d
0463d     8D 8D 8D 8D 
04641     8C 8C 8C 8B 
04645     8A 8A 89 88 
04649     88 87 86 85 | 	byte	$8d, $8d, $8d, $8d, $8c, $8c, $8c, $8b, $8a, $8a, $89, $88, $88, $87, $86, $85
0464d     84 83 82 82 
04651     81 80 7F 7E 
04655     7D 7C 7B 7B 
04659     7A 79 78 78 | 	byte	$84, $83, $82, $82, $81, $80, $7f, $7e, $7d, $7c, $7b, $7b, $7a, $79, $78, $78
0465d     77 77 76 76 
04661     75 75 75 75 
04665     75 74 74 74 
04669     74 75 75 75 | 	byte	$77, $77, $76, $76, $75, $75, $75, $75, $75, $74, $74, $74, $74, $75, $75, $75
0466d     75 76 76 76 
04671     77 77 78 79 
04675     79 7A 7B 7B 
04679     7C 7D 7E 7F | 	byte	$75, $76, $76, $76, $77, $77, $78, $79, $79, $7a, $7b, $7b, $7c, $7d, $7e, $7f
0467d     7F 80 81 82 
04681     83 84 85 86 
04685     86 87 88 89 
04689     8A 8A 8B 8B | 	byte	$7f, $80, $81, $82, $83, $84, $85, $86, $86, $87, $88, $89, $8a, $8a, $8b, $8b
0468d     8C 8C 8C 8C 
04691     8D 8D 8D 8C 
04695     8C 8C 8B 8B 
04699     8A 8A 89 88 | 	byte	$8c, $8c, $8c, $8c, $8d, $8d, $8d, $8c, $8c, $8c, $8b, $8b, $8a, $8a, $89, $88
0469d     88 87 86 85 
046a1     84 84 83 82 
046a5     81 80 7F 7E 
046a9     7E 7D 7C 7B | 	byte	$88, $87, $86, $85, $84, $84, $83, $82, $81, $80, $7f, $7e, $7e, $7d, $7c, $7b
046ad     7B 7A 79 79 
046b1     78 77 77 76 
046b5     76 76 75 75 
046b9     75 75 75 75 | 	byte	$7b, $7a, $79, $79, $78, $77, $77, $76, $76, $76, $75, $75, $75, $75, $75, $75
046bd     75 75 75 75 
046c1     76 76 76 77 
046c5     77 78 78 79 
046c9     79 7A 7B 7B | 	byte	$75, $75, $75, $75, $76, $76, $76, $77, $77, $78, $78, $79, $79, $7a, $7b, $7b
046cd     7C 7D 7E 7F 
046d1     7F 80 81 82 
046d5     83 84 85 85 
046d9     86 87 88 89 | 	byte	$7c, $7d, $7e, $7f, $7f, $80, $81, $82, $83, $84, $85, $85, $86, $87, $88, $89
046dd     8A 8A 8B 8B 
046e1     8C 8C 8C 8D 
046e5     8D 8D 8D 8D 
046e9     8C 8C 8C 8B | 	byte	$8a, $8a, $8b, $8b, $8c, $8c, $8c, $8d, $8d, $8d, $8d, $8d, $8c, $8c, $8c, $8b
046ed     8B 8A 89 89 
046f1     88 87 86 86 
046f5     85 84 83 82 
046f9     81 80 80 7F | 	byte	$8b, $8a, $89, $89, $88, $87, $86, $86, $85, $84, $83, $82, $81, $80, $80, $7f
046fd     7E 7D 7C 7C 
04701     7B 7A 7A 79 
04705     78 78 77 77 
04709     76 76 76 75 | 	byte	$7e, $7d, $7c, $7c, $7b, $7a, $7a, $79, $78, $78, $77, $77, $76, $76, $76, $75
0470d     75 75 75 75 
04711     75 75 75 75 
04715     75          | 	byte	$75[9]
04716     76 76 76 77 
0471a     77 78 78 79 
0471e     79 7A 7B 7C 
04722     7C 7D 7E 7E | 	byte	$76, $76, $76, $77, $77, $78, $78, $79, $79, $7a, $7b, $7c, $7c, $7d, $7e, $7e
04726     7F 80 81 82 
0472a     83 84 84 85 
0472e     86 87 88 88 
04732     89 8A 8A 8B | 	byte	$7f, $80, $81, $82, $83, $84, $84, $85, $86, $87, $88, $88, $89, $8a, $8a, $8b
04736     8B 8C 8C 8C 
0473a     8C 8C 8C 8C 
0473e     8C 8B 8B 8A 
04742     8A 89 89 88 | 	byte	$8b, $8c, $8c, $8c, $8c, $8c, $8c, $8c, $8c, $8b, $8b, $8a, $8a, $89, $89, $88
04746     87 87 86 85 
0474a     85 84 83 82 
0474e     81 80 80 7F 
04752     7E 7D 7C 7C | 	byte	$87, $87, $86, $85, $85, $84, $83, $82, $81, $80, $80, $7f, $7e, $7d, $7c, $7c
04756     7B 7A 7A 79 
0475a     79 78 78 77 
0475e     77 76 76 76 
04762     76 76 75 75 | 	byte	$7b, $7a, $7a, $79, $79, $78, $78, $77, $77, $76, $76, $76, $76, $76, $75, $75
04766     76 76 76 76 
0476a     76 76       | 	byte	$76[6]
0476c     77 77 78 78 
04770     78 79 7A 7A 
04774     7B 7C 7C 7D 
04778     7E 7E 7F 80 | 	byte	$77, $77, $78, $78, $78, $79, $7a, $7a, $7b, $7c, $7c, $7d, $7e, $7e, $7f, $80
0477c     81 82 83 83 
04780     84 85 86 87 
04784     87 88 89 89 
04788     8A 8B 8B 8B | 	byte	$81, $82, $83, $83, $84, $85, $86, $87, $87, $88, $89, $89, $8a, $8b, $8b, $8b
0478c     8C 8C 8C 8C 
04790     8C 8C 8C    | 	byte	$8c[7]
04793     8B 8B 8B 8A 
04797     89 89 88 88 
0479b     87 86 85 85 
0479f     84 83 82 81 | 	byte	$8b, $8b, $8b, $8a, $89, $89, $88, $88, $87, $86, $85, $85, $84, $83, $82, $81
047a3     81 80 7F 7E 
047a7     7D 7D 7C 7B 
047ab     7A 7A 79 79 
047af     78 78 77 77 | 	byte	$81, $80, $7f, $7e, $7d, $7d, $7c, $7b, $7a, $7a, $79, $79, $78, $78, $77, $77
047b3     76 76 76 76 
047b7     75 75 75 75 
047bb     75 76 76 76 
047bf     76 77 77 77 | 	byte	$76, $76, $76, $76, $75, $75, $75, $75, $75, $76, $76, $76, $76, $77, $77, $77
047c3     78 78 79 79 
047c7     7A 7A 7B 7C 
047cb     7C 7D 7E 7F 
047cf     7F 80 81 82 | 	byte	$78, $78, $79, $79, $7a, $7a, $7b, $7c, $7c, $7d, $7e, $7f, $7f, $80, $81, $82
047d3     83 83 84 85 
047d7     86 87 87 88 
047db     89 89 8A 8A 
047df     8B 8B 8B 8B | 	byte	$83, $83, $84, $85, $86, $87, $87, $88, $89, $89, $8a, $8a, $8b, $8b, $8b, $8b
047e3     8C 8C 8B 8B 
047e7     8B 8B 8A 8A 
047eb     8A 89 89 88 
047ef     87 87 86 85 | 	byte	$8c, $8c, $8b, $8b, $8b, $8b, $8a, $8a, $8a, $89, $89, $88, $87, $87, $86, $85
047f3     84 84 83 82 
047f7     81 81 80 7F 
047fb     7E 7E 7D 7C 
047ff     7B 7B 7A 7A | 	byte	$84, $84, $83, $82, $81, $81, $80, $7f, $7e, $7e, $7d, $7c, $7b, $7b, $7a, $7a
04803     79 78 78 78 
04807     77 77 77 76 
0480b     76 76 76 76 
0480f     76 76 76 76 | 	byte	$79, $78, $78, $78, $77, $77, $77, $76, $76, $76, $76, $76, $76, $76, $76, $76
04813     76 77 77 77 
04817     78 78 79 79 
0481b     7A 7A 7B 7C 
0481f     7C 7D 7E 7E | 	byte	$76, $77, $77, $77, $78, $78, $79, $79, $7a, $7a, $7b, $7c, $7c, $7d, $7e, $7e
04823     7F 80 81 81 
04827     82 83 84 85 
0482b     85 86 87 88 
0482f     88 89 89 8A | 	byte	$7f, $80, $81, $81, $82, $83, $84, $85, $85, $86, $87, $88, $88, $89, $89, $8a
04833     8A 8B 8B 8B 
04837     8B 8B 8B 8B 
0483b     8B 8B 8A 8A 
0483f     8A 89 88 88 | 	byte	$8a, $8b, $8b, $8b, $8b, $8b, $8b, $8b, $8b, $8b, $8a, $8a, $8a, $89, $88, $88
04843     87 87 86 85 
04847     85 84 83 82 
0484b     81 81 80 7F 
0484f     7E 7E 7D 7C | 	byte	$87, $87, $86, $85, $85, $84, $83, $82, $81, $81, $80, $7f, $7e, $7e, $7d, $7c
04853     7C 7B 7A 7A 
04857     79 78 78 78 
0485b     77 77 77 76 
0485f     76 76 76 76 | 	byte	$7c, $7b, $7a, $7a, $79, $78, $78, $78, $77, $77, $77, $76, $76, $76, $76, $76
04863     76 76 76 76 
04867     76          | 	byte	$76[5]
04868     77 77 77 78 
0486c     78 78 79 79 
04870     7A 7B 7B 7C 
04874     7C 7D 7E 7F | 	byte	$77, $77, $77, $78, $78, $78, $79, $79, $7a, $7b, $7b, $7c, $7c, $7d, $7e, $7f
04878     7F 80 81 82 
0487c     82 83 84 85 
04880     86 86 87 88 
04884     88 89 89 8A | 	byte	$7f, $80, $81, $82, $82, $83, $84, $85, $86, $86, $87, $88, $88, $89, $89, $8a
04888     8A 8B 8B 8B 
0488c     8B 8B 8B 8B 
04890     8B 8A 8A 8A 
04894     89 89 88 88 | 	byte	$8a, $8b, $8b, $8b, $8b, $8b, $8b, $8b, $8b, $8a, $8a, $8a, $89, $89, $88, $88
04898     87 86 86 85 
0489c     84 84 83 82 
048a0     81 81 80 7F 
048a4     7F 7E 7D 7C | 	byte	$87, $86, $86, $85, $84, $84, $83, $82, $81, $81, $80, $7f, $7f, $7e, $7d, $7c
048a8     7C 7B 7B 7A 
048ac     7A 79 79 78 
048b0     78 77 77 77 
048b4     77 77 76 76 | 	byte	$7c, $7b, $7b, $7a, $7a, $79, $79, $78, $78, $77, $77, $77, $77, $77, $76, $76
048b8     76 76 77 77 
048bc     77 77 77 78 
048c0     78 78 79 79 
048c4     7A 7A 7B 7C | 	byte	$76, $76, $77, $77, $77, $77, $77, $78, $78, $78, $79, $79, $7a, $7a, $7b, $7c
048c8     7C 7D 7D 7E 
048cc     7F 80 80 81 
048d0     82 83 83 84 
048d4     85 86 86 87 | 	byte	$7c, $7d, $7d, $7e, $7f, $80, $80, $81, $82, $83, $83, $84, $85, $86, $86, $87
048d8     88 88 89 89 
048dc     8A 8A 8A 8A 
048e0     8A 8B 8B 8B 
048e4     8A 8A 8A 89 | 	byte	$88, $88, $89, $89, $8a, $8a, $8a, $8a, $8a, $8b, $8b, $8b, $8a, $8a, $8a, $89
048e8     89 89 88 88 
048ec     87 86 86 85 
048f0     84 84 83 82 
048f4     81 81 80 7F | 	byte	$89, $89, $88, $88, $87, $86, $86, $85, $84, $84, $83, $82, $81, $81, $80, $7f
048f8     7F 7E 7D 7C 
048fc     7C 7B 7B 7A 
04900     7A 79 79 78 
04904     78 77 77 77 | 	byte	$7f, $7e, $7d, $7c, $7c, $7b, $7b, $7a, $7a, $79, $79, $78, $78, $77, $77, $77
04908     77 77 76 76 
0490c     76 76 77 77 
04910     77 77 77 78 
04914     78 78 79 79 | 	byte	$77, $77, $76, $76, $76, $76, $77, $77, $77, $77, $77, $78, $78, $78, $79, $79
04918     7A 7A 7B 7B 
0491c     7C 7D 7D 7E 
04920     7F 7F 80 81 
04924     82 82 83 84 | 	byte	$7a, $7a, $7b, $7b, $7c, $7d, $7d, $7e, $7f, $7f, $80, $81, $82, $82, $83, $84
04928     85 85 86 87 
0492c     87 88 89 89 
04930     89 8A 8A 8A 
04934     8A 8A 8A 8A | 	byte	$85, $85, $86, $87, $87, $88, $89, $89, $89, $8a, $8a, $8a, $8a, $8a, $8a, $8a
04938     8A 8A 8A 8A 
0493c     89 89 88 88 
04940     87 87 86 86 
04944     85 84 84 83 | 	byte	$8a, $8a, $8a, $8a, $89, $89, $88, $88, $87, $87, $86, $86, $85, $84, $84, $83
04948     82 81 81 80 
0494c     7F 7F 7E 7D 
04950     7D 7C 7B 7B 
04954     7A 7A 79 79 | 	byte	$82, $81, $81, $80, $7f, $7f, $7e, $7d, $7d, $7c, $7b, $7b, $7a, $7a, $79, $79
04958     78 78 78 77 
0495c     77 77 77 77 
04960     77 77 77 77 
04964     77 77 77 78 | 	byte	$78, $78, $78, $77, $77, $77, $77, $77, $77, $77, $77, $77, $77, $77, $77, $78
04968     78 78 79 79 
0496c     7A 7A 7A 7B 
04970     7C 7C 7D 7D 
04974     7E 7F 7F 80 | 	byte	$78, $78, $79, $79, $7a, $7a, $7a, $7b, $7c, $7c, $7d, $7d, $7e, $7f, $7f, $80
04978     81 82 82 83 
0497c     84 84 85 86 
04980     87 87 88 88 
04984     89 89 89 8A | 	byte	$81, $82, $82, $83, $84, $84, $85, $86, $87, $87, $88, $88, $89, $89, $89, $8a
04988     8A 8A 8A 8A 
0498c     8A 8A 8A    | 	byte	$8a[7]
0498f     89 89 89 88 
04993     88 87 87 86 
04997     86 85 84 84 
0499b     83 82 82 81 | 	byte	$89, $89, $89, $88, $88, $87, $87, $86, $86, $85, $84, $84, $83, $82, $82, $81
0499f     80 7F 7F 7E 
049a3     7D 7D 7C 7C 
049a7     7B 7A 7A 79 
049ab     79 79 78 78 | 	byte	$80, $7f, $7f, $7e, $7d, $7d, $7c, $7c, $7b, $7a, $7a, $79, $79, $79, $78, $78
049af     78 77 77 77 
049b3     77 77 77 77 
049b7     77 77 77 77 
049bb     78 78 78 79 | 	byte	$78, $77, $77, $77, $77, $77, $77, $77, $77, $77, $77, $77, $78, $78, $78, $79
049bf     79 7A 7A 7B 
049c3     7B 7C 7C 7D 
049c7     7D 7E 7F 7F 
049cb     80 81 82 82 | 	byte	$79, $7a, $7a, $7b, $7b, $7c, $7c, $7d, $7d, $7e, $7f, $7f, $80, $81, $82, $82
049cf     83 84 84 85 
049d3     86 86 87 88 
049d7     88 89 89 89 
049db     8A 8A 8A 8A | 	byte	$83, $84, $84, $85, $86, $86, $87, $88, $88, $89, $89, $89, $8a, $8a, $8a, $8a
049df     8A 8A 8A 8A 
049e3     8A          | 	byte	$8a[5]
049e4     89 89 89 88 
049e8     88 87 87 86 
049ec     85 85 84 83 
049f0     83 82 81 81 | 	byte	$89, $89, $89, $88, $88, $87, $87, $86, $85, $85, $84, $83, $83, $82, $81, $81
049f4     80 7F 7F 7E 
049f8     7D 7D 7C 7C 
049fc     7B 7B 7A 7A 
04a00     79 79 78 78 | 	byte	$80, $7f, $7f, $7e, $7d, $7d, $7c, $7c, $7b, $7b, $7a, $7a, $79, $79, $78, $78
04a04     78 78 77 77 
04a08     77 77 77 77 
04a0c     77 77 77 78 
04a10     78 78 79 79 | 	byte	$78, $78, $77, $77, $77, $77, $77, $77, $77, $77, $77, $78, $78, $78, $79, $79
04a14     79 7A 7A 7B 
04a18     7B 7C 7C 7D 
04a1c     7D 7E 7F 7F 
04a20     80 81 81 82 | 	byte	$79, $7a, $7a, $7b, $7b, $7c, $7c, $7d, $7d, $7e, $7f, $7f, $80, $81, $81, $82
04a24     83 83 84 85 
04a28     85 86 87 87 
04a2c     88 88 89 89 
04a30     89 89 89 8A | 	byte	$83, $83, $84, $85, $85, $86, $87, $87, $88, $88, $89, $89, $89, $89, $89, $8a
04a34     8A 89 89 89 
04a38     89 89 88 88 
04a3c     87 87 86 86 
04a40     85 85 84 84 | 	byte	$8a, $89, $89, $89, $89, $89, $88, $88, $87, $87, $86, $86, $85, $85, $84, $84
04a44     83 82 82 81 
04a48     80 80 7F 7E 
04a4c     7E 7D 7D 7C 
04a50     7B 7B 7A 7A | 	byte	$83, $82, $82, $81, $80, $80, $7f, $7e, $7e, $7d, $7d, $7c, $7b, $7b, $7a, $7a
04a54     7A 79 79 78 
04a58     78 78 78 78 
04a5c     77 77 77 77 
04a60     77 78 78 78 | 	byte	$7a, $79, $79, $78, $78, $78, $78, $78, $77, $77, $77, $77, $77, $78, $78, $78
04a64     78 78 79 79 
04a68     79 7A 7A 7B 
04a6c     7B 7C 7C 7D 
04a70     7D 7E 7F 7F | 	byte	$78, $78, $79, $79, $79, $7a, $7a, $7b, $7b, $7c, $7c, $7d, $7d, $7e, $7f, $7f
04a74     80 81 81 82 
04a78     83 83 84 85 
04a7c     85 86 87 87 
04a80     88 88 89 89 | 	byte	$80, $81, $81, $82, $83, $83, $84, $85, $85, $86, $87, $87, $88, $88, $89, $89
04a84     89 89 8A 8A 
04a88     8A 8A 8A 89 
04a8c     89 89 89 88 
04a90     88 87 87 86 | 	byte	$89, $89, $8a, $8a, $8a, $8a, $8a, $89, $89, $89, $89, $88, $88, $87, $87, $86
04a94     86 85 84 84 
04a98     83 83 82 81 
04a9c     81 80 7F 7F 
04aa0     7E 7E 7D 7C | 	byte	$86, $85, $84, $84, $83, $83, $82, $81, $81, $80, $7f, $7f, $7e, $7e, $7d, $7c
04aa4     7C 7B 7B 7A 
04aa8     7A 79 79 79 
04aac     78 78 78 78 
04ab0     78 77 77 77 | 	byte	$7c, $7b, $7b, $7a, $7a, $79, $79, $79, $78, $78, $78, $78, $78, $77, $77, $77
04ab4     78 78 78 78 
04ab8     78 78 78    | 	byte	$78[7]
04abb     79 79 79 7A 
04abf     7A 7B 7B 7C 
04ac3     7C 7D 7D 7E 
04ac7     7F 7F 80 81 | 	byte	$79, $79, $79, $7a, $7a, $7b, $7b, $7c, $7c, $7d, $7d, $7e, $7f, $7f, $80, $81
04acb     81 82 83 83 
04acf     84 85 85 86 
04ad3     86 87 87 88 
04ad7     88 88 89 89 | 	byte	$81, $82, $83, $83, $84, $85, $85, $86, $86, $87, $87, $88, $88, $88, $89, $89
04adb     89 89 89 89 
04adf     89 89 89    | 	byte	$89[7]
04ae2     88 88 88 87 
04ae6     87 86 86 85 
04aea     85 84 84 83 
04aee     82 82 81 80 | 	byte	$88, $88, $88, $87, $87, $86, $86, $85, $85, $84, $84, $83, $82, $82, $81, $80
04af2     80 7F 7F 7E 
04af6     7D 7D 7C 7C 
04afa     7B 7B 7A 7A 
04afe     7A 79 79 79 | 	byte	$80, $7f, $7f, $7e, $7d, $7d, $7c, $7c, $7b, $7b, $7a, $7a, $7a, $79, $79, $79
04b02     78 78 78 78 
04b06     78 78 78 78 
04b0a     78 78 78    | 	byte	$78[11]
04b0d     79 79 79 79 
04b11     7A 7A 7A 7B 
04b15     7B 7C 7C 7D 
04b19     7D 7E 7F 7F | 	byte	$79, $79, $79, $79, $7a, $7a, $7a, $7b, $7b, $7c, $7c, $7d, $7d, $7e, $7f, $7f
04b1d     80 81 81 82 
04b21     82 83 84 85 
04b25     85 86 86 87 
04b29     87 88 88 89 | 	byte	$80, $81, $81, $82, $82, $83, $84, $85, $85, $86, $86, $87, $87, $88, $88, $89
04b2d     89 89 89 89 
04b31     89 89 89 89 
04b35     89          | 	byte	$89[9]
04b36     88 88 88 87 
04b3a     87 87 86 85 
04b3e     85 84 84 83 
04b42     83 82 81 81 | 	byte	$88, $88, $88, $87, $87, $87, $86, $85, $85, $84, $84, $83, $83, $82, $81, $81
04b46     80 7F 7F 7E 
04b4a     7E 7D 7C 7C 
04b4e     7B 7B 7A 7A 
04b52     7A 79 79 79 | 	byte	$80, $7f, $7f, $7e, $7e, $7d, $7c, $7c, $7b, $7b, $7a, $7a, $7a, $79, $79, $79
04b56     78 78 78 78 
04b5a     78 78 78 78 
04b5e     78 78 78 78 | 	byte	$78[12]
04b62     79 79 79 79 
04b66     7A 7A 7B 7B 
04b6a     7B 7C 7C 7D 
04b6e     7D 7E 7F 7F | 	byte	$79, $79, $79, $79, $7a, $7a, $7b, $7b, $7b, $7c, $7c, $7d, $7d, $7e, $7f, $7f
04b72     80 81 81 82 
04b76     82 83 84 84 
04b7a     85 86 86 87 
04b7e     87 88 88 88 | 	byte	$80, $81, $81, $82, $82, $83, $84, $84, $85, $86, $86, $87, $87, $88, $88, $88
04b82     88 89 89 89 
04b86     89 89 89 88 
04b8a     88 88 88 87 
04b8e     87 87 86 86 | 	byte	$88, $89, $89, $89, $89, $89, $89, $88, $88, $88, $88, $87, $87, $87, $86, $86
04b92     85 85 84 84 
04b96     83 82 82 81 
04b9a     81 80 7F 7F 
04b9e     7E 7E 7D 7D | 	byte	$85, $85, $84, $84, $83, $82, $82, $81, $81, $80, $7f, $7f, $7e, $7e, $7d, $7d
04ba2     7C 7C 7B 7B 
04ba6     7A 7A 7A 79 
04baa     79 79 79 78 
04bae     78 78 78 78 | 	byte	$7c, $7c, $7b, $7b, $7a, $7a, $7a, $79, $79, $79, $79, $78, $78, $78, $78, $78
04bb2     78 78 78 79 
04bb6     79 79 79 7A 
04bba     7A 7A 7B 7B 
04bbe     7B 7C 7C 7D | 	byte	$78, $78, $78, $79, $79, $79, $79, $7a, $7a, $7a, $7b, $7b, $7b, $7c, $7c, $7d
04bc2     7D 7E 7F 7F 
04bc6     80 80 81 82 
04bca     82 83 84 84 
04bce     85 85 86 86 | 	byte	$7d, $7e, $7f, $7f, $80, $80, $81, $82, $82, $83, $84, $84, $85, $85, $86, $86
04bd2     87 87 88 88 
04bd6     88 89 89 89 
04bda     89 89 89 88 
04bde     88 88 88 87 | 	byte	$87, $87, $88, $88, $88, $89, $89, $89, $89, $89, $89, $88, $88, $88, $88, $87
04be2     87 87 86 86 
04be6     85 85 84 84 
04bea     83 82 82 81 
04bee     81 80 7F 7F | 	byte	$87, $87, $86, $86, $85, $85, $84, $84, $83, $82, $82, $81, $81, $80, $7f, $7f
04bf2     7E 7E 7D 7D 
04bf6     7C 7C 7B 7B 
04bfa     7A 7A 7A 79 
04bfe     79 79 79 78 | 	byte	$7e, $7e, $7d, $7d, $7c, $7c, $7b, $7b, $7a, $7a, $7a, $79, $79, $79, $79, $78
04c02     78 78 78 78 
04c06     78 78 78 78 | 	byte	$78[8]
04c0a     79 79 79 79 
04c0e     7A 7A 7A 7B 
04c12     7B 7C 7C 7D 
04c16     7D 7E 7E 7F | 	byte	$79, $79, $79, $79, $7a, $7a, $7a, $7b, $7b, $7c, $7c, $7d, $7d, $7e, $7e, $7f
04c1a     7F 80 81 81 
04c1e     82 82 83 84 
04c22     84 85 85 86 
04c26     86 87 87 88 | 	byte	$7f, $80, $81, $81, $82, $82, $83, $84, $84, $85, $85, $86, $86, $87, $87, $88
04c2a     88 88 88 88 
04c2e     88 88 88 88 
04c32     88 88 88    | 	byte	$88[11]
04c35     87 87 87 86 
04c39     86 85 85 84 
04c3d     84 83 83 82 
04c41     82 81 81 80 | 	byte	$87, $87, $87, $86, $86, $85, $85, $84, $84, $83, $83, $82, $82, $81, $81, $80
04c45     7F 7F 7E 7E 
04c49     7D 7D 7C 7C 
04c4d     7B 7B 7B 7A 
04c51     7A 7A 79 79 | 	byte	$7f, $7f, $7e, $7e, $7d, $7d, $7c, $7c, $7b, $7b, $7b, $7a, $7a, $7a, $79, $79
04c55     79 79 79 79 
04c59     79 79 79 79 
04c5d     79 79 79 79 | 	byte	$79[12]
04c61     7A 7A 7A 7A 
04c65     7B 7B 7C 7C 
04c69     7C 7D 7D 7E 
04c6d     7E 7F 80 80 | 	byte	$7a, $7a, $7a, $7a, $7b, $7b, $7c, $7c, $7c, $7d, $7d, $7e, $7e, $7f, $80, $80
04c71     81 82 82 83 
04c75     83 84 84 85 
04c79     86 86 87 87 
04c7d     87 88 88 88 | 	byte	$81, $82, $82, $83, $83, $84, $84, $85, $86, $86, $87, $87, $87, $88, $88, $88
04c81     88 88 88 88 
04c85     88 88 88 88 | 	byte	$88[8]
04c89     87 87 87 86 
04c8d     86 85 85 84 
04c91     84 83 83 82 
04c95     82 81 81 80 | 	byte	$87, $87, $87, $86, $86, $85, $85, $84, $84, $83, $83, $82, $82, $81, $81, $80
04c99     80 7F 7E 7E 
04c9d     7D 7D 7C 7C 
04ca1     7B 7B 7B 7A 
04ca5     7A 7A 79 79 | 	byte	$80, $7f, $7e, $7e, $7d, $7d, $7c, $7c, $7b, $7b, $7b, $7a, $7a, $7a, $79, $79
04ca9     79 79 79 79 
04cad     78 78 79 79 
04cb1     79 79 79 79 
04cb5     79 7A 7A 7A | 	byte	$79, $79, $79, $79, $78, $78, $79, $79, $79, $79, $79, $79, $79, $7a, $7a, $7a
04cb9     7A 7B 7B 7C 
04cbd     7C 7D 7D 7E 
04cc1     7E 7F 7F 80 
04cc5     81 81 82 82 | 	byte	$7a, $7b, $7b, $7c, $7c, $7d, $7d, $7e, $7e, $7f, $7f, $80, $81, $81, $82, $82
04cc9     83 84 84 85 
04ccd     85 86 86 87 
04cd1     87 87 88 88 
04cd5     88 88 88 88 | 	byte	$83, $84, $84, $85, $85, $86, $86, $87, $87, $87, $88, $88, $88, $88, $88, $88
04cd9     88 88 88 88 
04cdd     87 87 87 87 
04ce1     86 86 85 85 
04ce5     84 84 83 83 | 	byte	$88, $88, $88, $88, $87, $87, $87, $87, $86, $86, $85, $85, $84, $84, $83, $83
04ce9     82 82 81 81 
04ced     80 80 7F 7F 
04cf1     7E 7E 7D 7C 
04cf5     7C 7C 7B 7B | 	byte	$82, $82, $81, $81, $80, $80, $7f, $7f, $7e, $7e, $7d, $7c, $7c, $7c, $7b, $7b
04cf9     7B 7A 7A 7A 
04cfd     79 79 79 79 
04d01     79 79 79 79 
04d05     79 79 79 79 | 	byte	$7b, $7a, $7a, $7a, $79, $79, $79, $79, $79, $79, $79, $79, $79, $79, $79, $79
04d09     79 7A 7A 7A 
04d0d     7A 7B 7B 7C 
04d11     7C 7C 7D 7D 
04d15     7E 7E 7F 80 | 	byte	$79, $7a, $7a, $7a, $7a, $7b, $7b, $7c, $7c, $7c, $7d, $7d, $7e, $7e, $7f, $80
04d19     80 81 81 82 
04d1d     82 83 84 84 
04d21     85 85 86 86 
04d25     87 87 87 87 | 	byte	$80, $81, $81, $82, $82, $83, $84, $84, $85, $85, $86, $86, $87, $87, $87, $87
04d29     88 88 88 88 
04d2d     88 88 88    | 	byte	$88[7]
04d30     87 87 87 87 
04d34     86 86 86 85 
04d38     85 84 84 83 
04d3c     83 82 82 81 | 	byte	$87, $87, $87, $87, $86, $86, $86, $85, $85, $84, $84, $83, $83, $82, $82, $81
04d40     81 80 80 7F 
04d44     7F 7E 7D 7D 
04d48     7D 7C 7C 7B 
04d4c     7B 7B 7A 7A | 	byte	$81, $80, $80, $7f, $7f, $7e, $7d, $7d, $7d, $7c, $7c, $7b, $7b, $7b, $7a, $7a
04d50     7A 79 79 79 
04d54     79 79 79 79 
04d58     79 79 79 79 
04d5c     79 79 7A 7A | 	byte	$7a, $79, $79, $79, $79, $79, $79, $79, $79, $79, $79, $79, $79, $79, $7a, $7a
04d60     7A 7A 7B 7B 
04d64     7B 7C 7C 7D 
04d68     7D 7E 7E 7F 
04d6c     7F 80 81 81 | 	byte	$7a, $7a, $7b, $7b, $7b, $7c, $7c, $7d, $7d, $7e, $7e, $7f, $7f, $80, $81, $81
04d70     82 82 83 83 
04d74     84 85 85 86 
04d78     86 86 87 87 
04d7c     87 88 88 88 | 	byte	$82, $82, $83, $83, $84, $85, $85, $86, $86, $86, $87, $87, $87, $88, $88, $88
04d80     88 88 88 88 
04d84     88          | 	byte	$88[5]
04d85     87 87 87 87 
04d89     86 86 86 85 
04d8d     85 84 84 83 
04d91     83 82 82 81 | 	byte	$87, $87, $87, $87, $86, $86, $86, $85, $85, $84, $84, $83, $83, $82, $82, $81
04d95     81 80 80 7F 
04d99     7F 7E 7E 7D 
04d9d     7D 7C 7C 7B 
04da1     7B 7B 7A 7A | 	byte	$81, $80, $80, $7f, $7f, $7e, $7e, $7d, $7d, $7c, $7c, $7b, $7b, $7b, $7a, $7a
04da5     7A 7A 7A 79 
04da9     79 79 79 79 
04dad     79 79 79 79 
04db1     79 7A 7A 7A | 	byte	$7a, $7a, $7a, $79, $79, $79, $79, $79, $79, $79, $79, $79, $79, $7a, $7a, $7a
04db5     7A 7B 7B 7B 
04db9     7C 7C 7C 7D 
04dbd     7D 7E 7E 7F 
04dc1     7F 80 81 81 | 	byte	$7a, $7b, $7b, $7b, $7c, $7c, $7c, $7d, $7d, $7e, $7e, $7f, $7f, $80, $81, $81
04dc5     82 82 83 83 
04dc9     84 84 85 85 
04dcd     86 86 86 87 
04dd1     87 87 87 87 | 	byte	$82, $82, $83, $83, $84, $84, $85, $85, $86, $86, $86, $87, $87, $87, $87, $87
04dd5     87 87 87 87 
04dd9     87 87 87    | 	byte	$87[7]
04ddc     86 86 86 85 
04de0     85 85 84 84 
04de4     83 83 82 82 
04de8     81 81 80 80 | 	byte	$86, $86, $86, $85, $85, $85, $84, $84, $83, $83, $82, $82, $81, $81, $80, $80
04dec     7F 7F 7E 7E 
04df0     7D 7D 7C 7C 
04df4     7C 7B 7B 7B 
04df8     7A 7A 7A 7A | 	byte	$7f, $7f, $7e, $7e, $7d, $7d, $7c, $7c, $7c, $7b, $7b, $7b, $7a, $7a, $7a, $7a
04dfc     7A 79 79 79 
04e00     79 79 79 79 
04e04     79 7A 7A 7A 
04e08     7A 7A 7B 7B | 	byte	$7a, $79, $79, $79, $79, $79, $79, $79, $79, $7a, $7a, $7a, $7a, $7a, $7b, $7b
04e0c     7B 7C 7C 7D 
04e10     7D 7D 7E 7E 
04e14     7F 7F 80 81 
04e18     81 82 82 83 | 	byte	$7b, $7c, $7c, $7d, $7d, $7d, $7e, $7e, $7f, $7f, $80, $81, $81, $82, $82, $83
04e1c     83 84 84 85 
04e20     85 86 86 86 
04e24     87 87 87 87 
04e28     88 88 88 88 | 	byte	$83, $84, $84, $85, $85, $86, $86, $86, $87, $87, $87, $87, $88, $88, $88, $88
04e2c     87 87 87 87 
04e30     87          | 	byte	$87[5]
04e31     86 86 86 85 
04e35     85 85 84 84 
04e39     83 83 82 82 
04e3d     81 81 80 80 | 	byte	$86, $86, $86, $85, $85, $85, $84, $84, $83, $83, $82, $82, $81, $81, $80, $80
04e41     7F 7F 7E 7E 
04e45     7D 7D 7C 7C 
04e49     7B 7B 7B 7B 
04e4d     7A 7A 7A 7A | 	byte	$7f, $7f, $7e, $7e, $7d, $7d, $7c, $7c, $7b, $7b, $7b, $7b, $7a, $7a, $7a, $7a
04e51     7A 79 79 79 
04e55     79 79 79 79 
04e59     7A 7A 7A 7A 
04e5d     7A 7B 7B 7B | 	byte	$7a, $79, $79, $79, $79, $79, $79, $79, $7a, $7a, $7a, $7a, $7a, $7b, $7b, $7b
04e61     7B 7C 7C 7D 
04e65     7D 7D 7E 7E 
04e69     7F 7F 80 80 
04e6d     81 82 82 83 | 	byte	$7b, $7c, $7c, $7d, $7d, $7d, $7e, $7e, $7f, $7f, $80, $80, $81, $82, $82, $83
04e71     83 84 84 85 
04e75     85 85 86 86 
04e79     87 87 87 87 
04e7d     87 87 87 87 | 	byte	$83, $84, $84, $85, $85, $85, $86, $86, $87, $87, $87, $87, $87, $87, $87, $87
04e81     87 87 87 86 
04e85     86 86 86 85 
04e89     85 84 84 84 
04e8d     83 83 82 82 | 	byte	$87, $87, $87, $86, $86, $86, $86, $85, $85, $84, $84, $84, $83, $83, $82, $82
04e91     81 81 80 80 
04e95     7F 7F 7E 7E 
04e99     7D 7D 7D 7C 
04e9d     7C 7C 7B 7B | 	byte	$81, $81, $80, $80, $7f, $7f, $7e, $7e, $7d, $7d, $7d, $7c, $7c, $7c, $7b, $7b
04ea1     7B 7A 7A 7A 
04ea5     7A 7A 7A 7A 
04ea9     7A 7A 7A 7A 
04ead     7A 7A 7A 7A | 	byte	$7b, $7a, $7a, $7a, $7a, $7a, $7a, $7a, $7a, $7a, $7a, $7a, $7a, $7a, $7a, $7a
04eb1     7A 7B 7B 7B 
04eb5     7C 7C 7C 7D 
04eb9     7D 7D 7E 7E 
04ebd     7F 7F 80 80 | 	byte	$7a, $7b, $7b, $7b, $7c, $7c, $7c, $7d, $7d, $7d, $7e, $7e, $7f, $7f, $80, $80
04ec1     81 82 82 83 
04ec5     83 84 84 85 
04ec9     85 86 86 86 
04ecd     86 87 87 87 | 	byte	$81, $82, $82, $83, $83, $84, $84, $85, $85, $86, $86, $86, $86, $87, $87, $87
04ed1     87 87 87 87 
04ed5     87 87 87 87 | 	byte	$87[8]
04ed9     86 86 86 85 
04edd     85 85 84 84 
04ee1     83 83 82 82 
04ee5     82 81 81 80 | 	byte	$86, $86, $86, $85, $85, $85, $84, $84, $83, $83, $82, $82, $82, $81, $81, $80
04ee9     80 7F 7F 7E 
04eed     7E 7D 7D 7C 
04ef1     7C 7C 7B 7B 
04ef5     7B 7B 7A 7A | 	byte	$80, $7f, $7f, $7e, $7e, $7d, $7d, $7c, $7c, $7c, $7b, $7b, $7b, $7b, $7a, $7a
04ef9     7A 7A 7A 7A 
04efd     7A 7A 7A 7A 
04f01     7A 7A 7A 7A 
04f05     7A 7A       | 	byte	$7a[14]
04f07     7B 7B 7B 7C 
04f0b     7C 7C 7D 7D 
04f0f     7E 7E 7E 7F 
04f13     7F 80 80 81 | 	byte	$7b, $7b, $7b, $7c, $7c, $7c, $7d, $7d, $7e, $7e, $7e, $7f, $7f, $80, $80, $81
04f17     81 82 83 83 
04f1b     84 84 84 85 
04f1f     85 86 86 86 
04f23     86 87 87 87 | 	byte	$81, $82, $83, $83, $84, $84, $84, $85, $85, $86, $86, $86, $86, $87, $87, $87
04f27     87 87 87 87 
04f2b     87          | 	byte	$87[5]
04f2c     86 86 86 86 
04f30     85 85 85 84 
04f34     84 84 83 83 
04f38     82 82 81 81 | 	byte	$86, $86, $86, $86, $85, $85, $85, $84, $84, $84, $83, $83, $82, $82, $81, $81
04f3c     80 80 7F 7F 
04f40     7F 7E 7E 7D 
04f44     7D 7D 7C 7C 
04f48     7C 7B 7B 7B | 	byte	$80, $80, $7f, $7f, $7f, $7e, $7e, $7d, $7d, $7d, $7c, $7c, $7c, $7b, $7b, $7b
04f4c     7B 7A 7A 7A 
04f50     7A 7A 7A 7A 
04f54     7A 7A 7A 7A 
04f58     7A 7A 7B 7B | 	byte	$7b, $7a, $7a, $7a, $7a, $7a, $7a, $7a, $7a, $7a, $7a, $7a, $7a, $7a, $7b, $7b
04f5c     7B 7B 7C 7C 
04f60     7C 7D 7D 7E 
04f64     7E 7E 7F 7F 
04f68     80 80 81 81 | 	byte	$7b, $7b, $7c, $7c, $7c, $7d, $7d, $7e, $7e, $7e, $7f, $7f, $80, $80, $81, $81
04f6c     82 82 83 83 
04f70     84 84 85 85 
04f74     86 86 86 86 
04f78     87 87 87 87 | 	byte	$82, $82, $83, $83, $84, $84, $85, $85, $86, $86, $86, $86, $87, $87, $87, $87
04f7c     87 87 87 87 
04f80     87          | 	byte	$87[5]
04f81     86 86 86 85 
04f85     85 85 84 84 
04f89     84 83 83 82 
04f8d     82 81 81 81 | 	byte	$86, $86, $86, $85, $85, $85, $84, $84, $84, $83, $83, $82, $82, $81, $81, $81
04f91     80 80 7F 7F 
04f95     7E 7E 7D 7D 
04f99     7D 7C 7C 7B 
04f9d     7B 7B 7B 7B | 	byte	$80, $80, $7f, $7f, $7e, $7e, $7d, $7d, $7d, $7c, $7c, $7b, $7b, $7b, $7b, $7b
04fa1     7A 7A 7A 7A 
04fa5     7A 7A 7A 7A 
04fa9     7A 7A 7A 7A 
04fad     7A 7A       | 	byte	$7a[14]
04faf     7B 7B 7B 7B 
04fb3     7C 7C 7C 7D 
04fb7     7D 7E 7E 7F 
04fbb     7F 80 80 80 | 	byte	$7b, $7b, $7b, $7b, $7c, $7c, $7c, $7d, $7d, $7e, $7e, $7f, $7f, $80, $80, $80
04fbf     81 81 82 82 
04fc3     83 83 84 84 
04fc7     85 85 85 86 
04fcb     86 86 86 87 | 	byte	$81, $81, $82, $82, $83, $83, $84, $84, $85, $85, $85, $86, $86, $86, $86, $87
04fcf     87 87 87 87 
04fd3     86 86 86 86 
04fd7     86 86 85 85 
04fdb     85 84 84 84 | 	byte	$87, $87, $87, $87, $86, $86, $86, $86, $86, $86, $85, $85, $85, $84, $84, $84
04fdf     83 83 82 82 
04fe3     81 81 80 80 
04fe7     80 7F 7F 7E 
04feb     7E 7D 7D 7D | 	byte	$83, $83, $82, $82, $81, $81, $80, $80, $80, $7f, $7f, $7e, $7e, $7d, $7d, $7d
04fef     7C 7C 7C 7C 
04ff3     7B 7B 7B 7B 
04ff7     7A 7A 7A 7A 
04ffb     7A 7A 7A 7A | 	byte	$7c, $7c, $7c, $7c, $7b, $7b, $7b, $7b, $7a, $7a, $7a, $7a, $7a, $7a, $7a, $7a
04fff     7A 7A 7A 7B 
05003     7B 7B 7B 7C 
05007     7C 7C 7C 7D 
0500b     7D 7E 7E 7E | 	byte	$7a, $7a, $7a, $7b, $7b, $7b, $7b, $7c, $7c, $7c, $7c, $7d, $7d, $7e, $7e, $7e
0500f     7F 7F 80 80 
05013     81 81 82 82 
05017     83 83 84 84 
0501b     84 85 85 86 | 	byte	$7f, $7f, $80, $80, $81, $81, $82, $82, $83, $83, $84, $84, $84, $85, $85, $86
0501f     86 86 86 86 
05023     86          | 	byte	$86[5]
05024     87 87 87 86 
05028     86 86 86 86 
0502c     86 85 85 85 
05030     84 84 84 83 | 	byte	$87, $87, $87, $86, $86, $86, $86, $86, $86, $85, $85, $85, $84, $84, $84, $83
05034     83 82 82 81 
05038     81 81 80 80 
0503c     7F 7F 7E 7E 
05040     7E 7D 7D 7C | 	byte	$83, $82, $82, $81, $81, $81, $80, $80, $7f, $7f, $7e, $7e, $7e, $7d, $7d, $7c
05044     7C 7C 7B 7B 
05048     7B 7B 7B 7A 
0504c     7A 7A 7A 7A 
05050     7A 7A 7A 7A | 	byte	$7c, $7c, $7b, $7b, $7b, $7b, $7b, $7a, $7a, $7a, $7a, $7a, $7a, $7a, $7a, $7a
05054     7A 7A 7A 7B 
05058     7B 7B 7B 7C 
0505c     7C 7C 7D 7D 
05060     7D 7E 7E 7F | 	byte	$7a, $7a, $7a, $7b, $7b, $7b, $7b, $7c, $7c, $7c, $7d, $7d, $7d, $7e, $7e, $7f
05064     7F 7F 80 80 
05068     81 81 82 82 
0506c     83 83 84 84 
05070     85 85 85 86 | 	byte	$7f, $7f, $80, $80, $81, $81, $82, $82, $83, $83, $84, $84, $85, $85, $85, $86
05074     86 86 86 86 
05078     86 86 86 86 
0507c     86 86 86 86 
05080     86          | 	byte	$86[13]
05081     85 85 85 85 
05085     84 84 83 83 
05089     83 82 82 81 
0508d     81 81 80 7F | 	byte	$85, $85, $85, $85, $84, $84, $83, $83, $83, $82, $82, $81, $81, $81, $80, $7f
05091     7F 7F 7E 7E 
05095     7E 7D 7D 7C 
05099     7C 7C 7C 7B 
0509d     7B 7B 7B 7B | 	byte	$7f, $7f, $7e, $7e, $7e, $7d, $7d, $7c, $7c, $7c, $7c, $7b, $7b, $7b, $7b, $7b
050a1     7A 7A 7A 7A 
050a5     7A 7A 7A 7A | 	byte	$7a[8]
050a9     7B 7B 7B 7B 
050ad     7B 7B       | 	byte	$7b[6]
050af     7C 7C 7C 7D 
050b3     7D 7D 7E 7E 
050b7     7E 7F 7F 80 
050bb     80 81 81 82 | 	byte	$7c, $7c, $7c, $7d, $7d, $7d, $7e, $7e, $7e, $7f, $7f, $80, $80, $81, $81, $82
050bf     82 83 83 83 
050c3     84 84 85 85 
050c7     85 85 86 86 
050cb     86 86 86 86 | 	byte	$82, $83, $83, $83, $84, $84, $85, $85, $85, $85, $86, $86, $86, $86, $86, $86
050cf     86 86 86 86 
050d3     86 86       | 	byte	$86[6]
050d5     85 85 85 84 
050d9     84 84 83 83 
050dd     83 82 82 81 
050e1     81 81 80 80 | 	byte	$85, $85, $85, $84, $84, $84, $83, $83, $83, $82, $82, $81, $81, $81, $80, $80
050e5     7F 7F 7E 7E 
050e9     7E 7D 7D 7D 
050ed     7C 7C 7C 7B 
050f1     7B 7B 7B 7B | 	byte	$7f, $7f, $7e, $7e, $7e, $7d, $7d, $7d, $7c, $7c, $7c, $7b, $7b, $7b, $7b, $7b
050f5     7A 7A 7A 7A 
050f9     7A 7A 7A 7A 
050fd     7A          | 	byte	$7a[9]
050fe     7B 7B 7B 7B 
05102     7B          | 	byte	$7b[5]
05103     7C 7C 7C 7C 
05107     7D 7D 7D 7E 
0510b     7E 7F 7F 80 
0510f     80 81 81 81 | 	byte	$7c, $7c, $7c, $7c, $7d, $7d, $7d, $7e, $7e, $7f, $7f, $80, $80, $81, $81, $81
05113     82 82 83 83 
05117     84 84 84 85 
0511b     85 85 86 86 
0511f     86 86 86 86 | 	byte	$82, $82, $83, $83, $84, $84, $84, $85, $85, $85, $86, $86, $86, $86, $86, $86
05123     86 86 86 86 
05127     86 86       | 	byte	$86[6]
05129     85 85 85 85 
0512d     84 84 84 83 
05131     83 83 82 82 
05135     81 81 80 80 | 	byte	$85, $85, $85, $85, $84, $84, $84, $83, $83, $83, $82, $82, $81, $81, $80, $80
05139     80 7F 7F 7E 
0513d     7E 7E 7D 7D 
05141     7D 7C 7C 7C 
05145     7C 7B 7B 7B | 	byte	$80, $7f, $7f, $7e, $7e, $7e, $7d, $7d, $7d, $7c, $7c, $7c, $7c, $7b, $7b, $7b
05149     7B 7B 7B 7B 
0514d     7B 7B 7B 7B 
05151     7B 7B 7B 7B 
05155     7B 7B 7B    | 	byte	$7b[15]
05158     7C 7C 7C 7D 
0515c     7D 7D 7E 7E 
05160     7E 7F 7F 80 
05164     80 81 81 81 | 	byte	$7c, $7c, $7c, $7d, $7d, $7d, $7e, $7e, $7e, $7f, $7f, $80, $80, $81, $81, $81
05168     82 82 83 83 
0516c     84 84 84 85 
05170     85 85 85 86 
05174     86 86 86 86 | 	byte	$82, $82, $83, $83, $84, $84, $84, $85, $85, $85, $85, $86, $86, $86, $86, $86
05178     86 86 86 86 
0517c     85 85 85 85 
05180     84 84 84 84 
05184     83 83 82 82 | 	byte	$86, $86, $86, $86, $85, $85, $85, $85, $84, $84, $84, $84, $83, $83, $82, $82
05188     82 81 81 81 
0518c     80 80 7F 7F 
05190     7F 7E 7E 7D 
05194     7D 7D 7C 7C | 	byte	$82, $81, $81, $81, $80, $80, $7f, $7f, $7f, $7e, $7e, $7d, $7d, $7d, $7c, $7c
05198     7C 7C 7B 7B 
0519c     7B 7B 7B 7B 
051a0     7B 7B 7B 7B 
051a4     7B 7B 7B 7B | 	byte	$7c, $7c, $7b, $7b, $7b, $7b, $7b, $7b, $7b, $7b, $7b, $7b, $7b, $7b, $7b, $7b
051a8     7B 7B 7B 7B 
051ac     7C 7C 7C 7D 
051b0     7D 7D 7E 7E 
051b4     7E 7F 7F 80 | 	byte	$7b, $7b, $7b, $7b, $7c, $7c, $7c, $7d, $7d, $7d, $7e, $7e, $7e, $7f, $7f, $80
051b8     80 80 81 81 
051bc     82 82 83 83 
051c0     84 84 84 85 
051c4     85 85 85 86 | 	byte	$80, $80, $81, $81, $82, $82, $83, $83, $84, $84, $84, $85, $85, $85, $85, $86
051c8     86 86 86 86 
051cc     86 86 86 86 
051d0     86          | 	byte	$86[9]
051d1     85 85 85 85 
051d5     85          | 	byte	$85[5]
051d6     84 84 84 83 
051da     83 82 82 82 
051de     81 81 80 80 
051e2     80 7F 7F 7F | 	byte	$84, $84, $84, $83, $83, $82, $82, $82, $81, $81, $80, $80, $80, $7f, $7f, $7f
051e6     7E 7E 7D 7D 
051ea     7D 7C 7C 7C 
051ee     7C 7C 7B 7B 
051f2     7B 7B 7B 7B | 	byte	$7e, $7e, $7d, $7d, $7d, $7c, $7c, $7c, $7c, $7c, $7b, $7b, $7b, $7b, $7b, $7b
051f6     7B 7B 7B 7B 
051fa     7B 7B 7B 7B 
051fe     7B 7B       | 	byte	$7b[10]
05200     7C 7C 7C 7C 
05204     7D 7D 7D 7E 
05208     7E 7E 7F 7F 
0520c     80 80 81 81 | 	byte	$7c, $7c, $7c, $7c, $7d, $7d, $7d, $7e, $7e, $7e, $7f, $7f, $80, $80, $81, $81
05210     81 82 82 83 
05214     83 83 84 84 
05218     84 85 85 85 
0521c     85 86 86 86 | 	byte	$81, $82, $82, $83, $83, $83, $84, $84, $84, $85, $85, $85, $85, $86, $86, $86
05220     86 86 86 86 
05224     85 85 85 85 
05228     85 84 84 84 
0522c     84 83 83 83 | 	byte	$86, $86, $86, $86, $85, $85, $85, $85, $85, $84, $84, $84, $84, $83, $83, $83
05230     82 82 81 81 
05234     81 80 80 7F 
05238     7F 7F 7E 7E 
0523c     7E 7D 7D 7D | 	byte	$82, $82, $81, $81, $81, $80, $80, $7f, $7f, $7f, $7e, $7e, $7e, $7d, $7d, $7d
05240     7C 7C 7C 7C 
05244     7C          | 	byte	$7c[5]
05245     7B 7B 7B 7B 
05249     7B 7B 7B 7B 
0524d     7B 7B 7B 7B 
05251     7B 7B       | 	byte	$7b[14]
05253     7C 7C 7C 7C 
05257     7C          | 	byte	$7c[5]
05258     7D 7D 7D 7E 
0525c     7E 7E 7F 7F 
05260     80 80 80 81 
05264     81 82 82 83 | 	byte	$7d, $7d, $7d, $7e, $7e, $7e, $7f, $7f, $80, $80, $80, $81, $81, $82, $82, $83
05268     83 83 84 84 
0526c     84 85 85 85 
05270     85 86 86 86 
05274     86 86 86 86 | 	byte	$83, $83, $84, $84, $84, $85, $85, $85, $85, $86, $86, $86, $86, $86, $86, $86
05278     86 85 85 85 
0527c     85 85 84 84 
05280     84 83 83 83 
05284     82 82 82 81 | 	byte	$86, $85, $85, $85, $85, $85, $84, $84, $84, $83, $83, $83, $82, $82, $82, $81
05288     81 80 80 80 
0528c     7F 7F 7F 7E 
05290     7E 7E 7D 7D 
05294     7D 7C 7C 7C | 	byte	$81, $80, $80, $80, $7f, $7f, $7f, $7e, $7e, $7e, $7d, $7d, $7d, $7c, $7c, $7c
05298     7C 7B 7B 7B 
0529c     7B 7B 7B 7B 
052a0     7B 7B 7B 7B 
052a4     7B 7B 7B 7B | 	byte	$7c, $7b, $7b, $7b, $7b, $7b, $7b, $7b, $7b, $7b, $7b, $7b, $7b, $7b, $7b, $7b
052a8     7C 7C 7C 7C 
052ac     7D 7D 7D 7D 
052b0     7E 7E 7E 7F 
052b4     7F 80 80 80 | 	byte	$7c, $7c, $7c, $7c, $7d, $7d, $7d, $7d, $7e, $7e, $7e, $7f, $7f, $80, $80, $80
052b8     81 81 82 82 
052bc     83 83 83 84 
052c0     84 84 85 85 
052c4     85 85 85 85 | 	byte	$81, $81, $82, $82, $83, $83, $83, $84, $84, $84, $85, $85, $85, $85, $85, $85
052c8     85 85 85 85 
052cc     85 85 85 85 
052d0     85          | 	byte	$85[9]
052d1     84 84 84 84 
052d5     83 83 83 82 
052d9     82 82 81 81 
052dd     81 80 80 80 | 	byte	$84, $84, $84, $84, $83, $83, $83, $82, $82, $82, $81, $81, $81, $80, $80, $80
052e1     7F 7F 7E 7E 
052e5     7E 7D 7D 7D 
052e9     7D 7C 7C 7C 
052ed     7C 7C 7B 7B | 	byte	$7f, $7f, $7e, $7e, $7e, $7d, $7d, $7d, $7d, $7c, $7c, $7c, $7c, $7c, $7b, $7b
052f1     7B 7B 7B 7B 
052f5     7B 7B 7B 7B 
052f9     7B 7B       | 	byte	$7b[10]
052fb     7C 7C 7C 7C 
052ff     7C          | 	byte	$7c[5]
05300     7D 7D 7D 7D 
05304     7E 7E 7E 7F 
05308     7F 80 80 80 
0530c     81 81 82 82 | 	byte	$7d, $7d, $7d, $7d, $7e, $7e, $7e, $7f, $7f, $80, $80, $80, $81, $81, $82, $82
05310     82 83 83 84 
05314     84 84 85 85 
05318     85 85 85 85 
0531c     85 85 85 85 | 	byte	$82, $83, $83, $84, $84, $84, $85, $85, $85, $85, $85, $85, $85, $85, $85, $85
05320     85 85 85 85 
05324     85 85       | 	byte	$85[6]
05326     84 84 84 84 
0532a     83 83 83 82 
0532e     82 82 81 81 
05332     80 80 80 7F | 	byte	$84, $84, $84, $84, $83, $83, $83, $82, $82, $82, $81, $81, $80, $80, $80, $7f
05336     7F 7F 7E 7E 
0533a     7E 7D 7D 7D 
0533e     7C 7C 7C 7C 
05342     7C 7B 7B 7B | 	byte	$7f, $7f, $7e, $7e, $7e, $7d, $7d, $7d, $7c, $7c, $7c, $7c, $7c, $7b, $7b, $7b
05346     7B 7B 7B 7B 
0534a     7B 7B 7B 7B 
0534e     7B 7B       | 	byte	$7b[10]
05350     7C 7C 7C 7C 
05354     7C          | 	byte	$7c[5]
05355     7D 7D 7D 7D 
05359     7E 7E 7E 7F 
0535d     7F 80 80 80 
05361     81 81 82 82 | 	byte	$7d, $7d, $7d, $7d, $7e, $7e, $7e, $7f, $7f, $80, $80, $80, $81, $81, $82, $82
05365     82 83 83 84 
05369     84 84 84 85 
0536d     85 85 85 85 
05371     85 85 85 85 | 	byte	$82, $83, $83, $84, $84, $84, $84, $85, $85, $85, $85, $85, $85, $85, $85, $85
05375     85 85 85 85 
05379     85          | 	byte	$85[5]
0537a     84 84 84 84 
0537e     83 83 83 82 
05382     82 82 81 81 
05386     81 80 80 80 | 	byte	$84, $84, $84, $84, $83, $83, $83, $82, $82, $82, $81, $81, $81, $80, $80, $80
0538a     7F 7F 7F 7E 
0538e     7E 7E 7D 7D 
05392     7D 7D 7C 7C 
05396     7C 7C 7C 7C | 	byte	$7f, $7f, $7f, $7e, $7e, $7e, $7d, $7d, $7d, $7d, $7c, $7c, $7c, $7c, $7c, $7c
0539a     7B 7B 7B 7B 
0539e     7B 7B 7B 7B 
053a2     7B          | 	byte	$7b[9]
053a3     7C 7C 7C 7C 
053a7     7C 7C       | 	byte	$7c[6]
053a9     7D 7D 7D 7D 
053ad     7E 7E 7E 7F 
053b1     7F 80 80 80 
053b5     81 81 82 82 | 	byte	$7d, $7d, $7d, $7d, $7e, $7e, $7e, $7f, $7f, $80, $80, $80, $81, $81, $82, $82
053b9     82 83 83 83 
053bd     84 84 84 84 
053c1     85 85 85 85 
053c5     85 85 85 85 | 	byte	$82, $83, $83, $83, $84, $84, $84, $84, $85, $85, $85, $85, $85, $85, $85, $85
053c9     85 85 85 85 
053cd     85          | 	byte	$85[5]
053ce     84 84 84 84 
053d2     83 83 83 82 
053d6     82 82 81 81 
053da     81 80 80 80 | 	byte	$84, $84, $84, $84, $83, $83, $83, $82, $82, $82, $81, $81, $81, $80, $80, $80
053de     7F 7F 7F 7E 
053e2     7E 7E 7D 7D 
053e6     7D 7D 7C 7C 
053ea     7C 7C 7C 7C | 	byte	$7f, $7f, $7f, $7e, $7e, $7e, $7d, $7d, $7d, $7d, $7c, $7c, $7c, $7c, $7c, $7c
053ee     7B 7B 7B 7B 
053f2     7B 7B 7B 7B 
053f6     7B 7B       | 	byte	$7b[10]
053f8     7C 7C 7C 7C 
053fc     7C 7C       | 	byte	$7c[6]
053fe     7D 7D 7D 7E 
05402     7E 7E 7F 7F 
05406     7F 80 80 80 
0540a     81 81 82 82 | 	byte	$7d, $7d, $7d, $7e, $7e, $7e, $7f, $7f, $7f, $80, $80, $80, $81, $81, $82, $82
0540e     82 83 83 83 
05412     84 84 84 84 
05416     85 85 85 85 
0541a     85 85 85 85 | 	byte	$82, $83, $83, $83, $84, $84, $84, $84, $85, $85, $85, $85, $85, $85, $85, $85
0541e     85 85 85 85 
05422     84 84 84 84 
05426     84 83 83 83 
0542a     82 82 82 81 | 	byte	$85, $85, $85, $85, $84, $84, $84, $84, $84, $83, $83, $83, $82, $82, $82, $81
0542e     81 81 80 80 
05432     80 7F 7F 7F 
05436     7E 7E 7E 7D 
0543a     7D 7D 7D 7C | 	byte	$81, $81, $80, $80, $80, $7f, $7f, $7f, $7e, $7e, $7e, $7d, $7d, $7d, $7d, $7c
0543e     7C 7C 7C 7C 
05442     7C 7C       | 	byte	$7c[6]
05444     7B 7B 7B 7B 
05448     7B 7B 7B    | 	byte	$7b[7]
0544b     7C 7C 7C 7C 
0544f     7C 7C       | 	byte	$7c[6]
05451     7D 7D 7D 7D 
05455     7E 7E 7E 7E 
05459     7F 7F 80 80 
0545d     80 81 81 81 | 	byte	$7d, $7d, $7d, $7d, $7e, $7e, $7e, $7e, $7f, $7f, $80, $80, $80, $81, $81, $81
05461     82 82 83 83 
05465     83 84 84 84 
05469     84 85 85 85 
0546d     85 85 85 85 | 	byte	$82, $82, $83, $83, $83, $84, $84, $84, $84, $85, $85, $85, $85, $85, $85, $85
05471     85 85 85 85 
05475     85          | 	byte	$85[5]
05476     84 84 84 84 
0547a     84          | 	byte	$84[5]
0547b     83 83 83 82 
0547f     82 82 81 81 
05483     81 80 80 80 
05487     7F 7F 7F 7E | 	byte	$83, $83, $83, $82, $82, $82, $81, $81, $81, $80, $80, $80, $7f, $7f, $7f, $7e
0548b     7E 7E 7D 7D 
0548f     7D 7D 7C 7C 
05493     7C 7C 7C 7C 
05497     7C 7B 7B 7B | 	byte	$7e, $7e, $7d, $7d, $7d, $7d, $7c, $7c, $7c, $7c, $7c, $7c, $7c, $7b, $7b, $7b
0549b     7B 7B 7B 7B 
0549f     7C 7C 7C 7C 
054a3     7C 7C 7C 7D 
054a7     7D 7D 7D 7E | 	byte	$7b, $7b, $7b, $7b, $7c, $7c, $7c, $7c, $7c, $7c, $7c, $7d, $7d, $7d, $7d, $7e
054ab     7E 7E 7F 7F 
054af     7F 80 80 80 
054b3     81 81 82 82 
054b7     82 83 83 83 | 	byte	$7e, $7e, $7f, $7f, $7f, $80, $80, $80, $81, $81, $82, $82, $82, $83, $83, $83
054bb     84 84 84 84 
054bf     85 85 85 85 
054c3     85 85 85 85 
054c7     85 85 85 84 | 	byte	$84, $84, $84, $84, $85, $85, $85, $85, $85, $85, $85, $85, $85, $85, $85, $84
054cb     84 84 84 84 
054cf     83 83 83 83 
054d3     82 82 82 81 
054d7     81 81 80 80 | 	byte	$84, $84, $84, $84, $83, $83, $83, $83, $82, $82, $82, $81, $81, $81, $80, $80
054db     80 7F 7F 7F 
054df     7E 7E 7E 7E 
054e3     7D 7D 7D 7D 
054e7     7C 7C 7C 7C | 	byte	$80, $7f, $7f, $7f, $7e, $7e, $7e, $7e, $7d, $7d, $7d, $7d, $7c, $7c, $7c, $7c
054eb     7C 7C 7C 7C 
054ef     7C 7C 7C 7C 
054f3     7C 7C 7C 7C 
054f7     7C 7C 7C    | 	byte	$7c[15]
054fa     7D 7D 7D 7D 
054fe     7E 7E 7E 7E 
05502     7F 7F 7F 80 
05506     80 81 81 81 | 	byte	$7d, $7d, $7d, $7d, $7e, $7e, $7e, $7e, $7f, $7f, $7f, $80, $80, $81, $81, $81
0550a     82 82 82 83 
0550e     83 83 84 84 
05512     84 84 84 85 
05516     85 85 85 85 | 	byte	$82, $82, $82, $83, $83, $83, $84, $84, $84, $84, $84, $85, $85, $85, $85, $85
0551a     85 85 85 85 
0551e     84 84 84 84 
05522     84 83 83 83 
05526     83 82 82 82 | 	byte	$85, $85, $85, $85, $84, $84, $84, $84, $84, $83, $83, $83, $83, $82, $82, $82
0552a     81 81 81 80 
0552e     80 80 7F 7F 
05532     7F 7E 7E 7E 
05536     7E 7D 7D 7D | 	byte	$81, $81, $81, $80, $80, $80, $7f, $7f, $7f, $7e, $7e, $7e, $7e, $7d, $7d, $7d
0553a     7D 7C 7C 7C 
0553e     7C 7C 7C 7C 
05542     7C 7C 7C 7C 
05546     7C 7C 7C 7C | 	byte	$7d, $7c, $7c, $7c, $7c, $7c, $7c, $7c, $7c, $7c, $7c, $7c, $7c, $7c, $7c, $7c
0554a     7C 7C 7C 7C 
0554e     7D 7D 7D 7D 
05552     7D 7E 7E 7E 
05556     7F 7F 7F 80 | 	byte	$7c, $7c, $7c, $7c, $7d, $7d, $7d, $7d, $7d, $7e, $7e, $7e, $7f, $7f, $7f, $80
0555a     80 81 81 81 
0555e     82 82 82 83 
05562     83 83 84 84 
05566     84 84 84 85 | 	byte	$80, $81, $81, $81, $82, $82, $82, $83, $83, $83, $84, $84, $84, $84, $84, $85
0556a     85 85 85 85 
0556e     85 85 85 85 | 	byte	$85[8]
05572     84 84 84 84 
05576     84 84       | 	byte	$84[6]
05578     83 83 83 82 
0557c     82 82 82 81 
05580     81 81 80 80 
05584     80 7F 7F 7F | 	byte	$83, $83, $83, $82, $82, $82, $82, $81, $81, $81, $80, $80, $80, $7f, $7f, $7f
05588     7E 7E 7E 7E 
0558c     7D 7D 7D 7D 
05590     7D 7C 7C 7C 
05594     7C 7C 7C 7C | 	byte	$7e, $7e, $7e, $7e, $7d, $7d, $7d, $7d, $7d, $7c, $7c, $7c, $7c, $7c, $7c, $7c
05598     7C 7C 7C 7C 
0559c     7C 7C 7C 7C 
055a0     7C 7C       | 	byte	$7c[10]
055a2     7D 7D 7D 7D 
055a6     7D          | 	byte	$7d[5]
055a7     7E 7E 7E 7E 
055ab     7F 7F 7F 80 
055af     80 81 81 81 
055b3     82 82 82 83 | 	byte	$7e, $7e, $7e, $7e, $7f, $7f, $7f, $80, $80, $81, $81, $81, $82, $82, $82, $83
055b7     83 83 84 84 
055bb     84 84 84 84 
055bf     85 85 85 85 
055c3     85 85 84 84 | 	byte	$83, $83, $84, $84, $84, $84, $84, $84, $85, $85, $85, $85, $85, $85, $84, $84
055c7     84 84 84 84 
055cb     84          | 	byte	$84[5]
055cc     83 83 83 83 
055d0     82 82 82 81 
055d4     81 81 80 80 
055d8     80 7F 7F 7F | 	byte	$83, $83, $83, $83, $82, $82, $82, $81, $81, $81, $80, $80, $80, $7f, $7f, $7f
055dc     7F 7E 7E 7E 
055e0     7E 7D 7D 7D 
055e4     7D 7D 7C 7C 
055e8     7C 7C 7C 7C | 	byte	$7f, $7e, $7e, $7e, $7e, $7d, $7d, $7d, $7d, $7d, $7c, $7c, $7c, $7c, $7c, $7c
055ec     7C 7C 7C 7C 
055f0     7C 7C 7C 7C 
055f4     7C 7C       | 	byte	$7c[10]
055f6     7D 7D 7D 7D 
055fa     7D          | 	byte	$7d[5]
055fb     7E 7E 7E 7E 
055ff     7F 7F 7F 80 
05603     80 80 81 81 
05607     82 82 82 83 | 	byte	$7e, $7e, $7e, $7e, $7f, $7f, $7f, $80, $80, $80, $81, $81, $82, $82, $82, $83
0560b     83 83 83 84 
0560f     84 84 84 84 
05613     85 85 85 85 
05617     85 85 85 85 | 	byte	$83, $83, $83, $84, $84, $84, $84, $84, $85, $85, $85, $85, $85, $85, $85, $85
0561b     84 84 84 84 
0561f     84          | 	byte	$84[5]
05620     83 83 83 83 
05624     82 82 82 81 
05628     81 81 81 80 
0562c     80 80 7F 7F | 	byte	$83, $83, $83, $83, $82, $82, $82, $81, $81, $81, $81, $80, $80, $80, $7f, $7f
05630     7F 7E 7E 7E 
05634     7E 7D 7D 7D 
05638     7D 7D 7C 7C 
0563c     7C 7C 7C 7C | 	byte	$7f, $7e, $7e, $7e, $7e, $7d, $7d, $7d, $7d, $7d, $7c, $7c, $7c, $7c, $7c, $7c
05640     7C 7C 7C 7C 
05644     7C 7C 7C 7C 
05648     7C 7C 7C    | 	byte	$7c[11]
0564b     7D 7D 7D 7D 
0564f     7D          | 	byte	$7d[5]
05650     7E 7E 7E 7F 
05654     7F 7F 7F 80 
05658     80 80 81 81 
0565c     81 82 82 82 | 	byte	$7e, $7e, $7e, $7f, $7f, $7f, $7f, $80, $80, $80, $81, $81, $81, $82, $82, $82
05660     83 83 83 84 
05664     84 84 84 84 
05668     84 84 84 84 
0566c     84 84 84 84 | 	byte	$83, $83, $83, $84, $84, $84, $84, $84, $84, $84, $84, $84, $84, $84, $84, $84
05670     84 84 84 84 
05674     83 83 83 83 
05678     82 82 82 82 
0567c     81 81 81 80 | 	byte	$84, $84, $84, $84, $83, $83, $83, $83, $82, $82, $82, $82, $81, $81, $81, $80
05680     80 80 80 7F 
05684     7F 7F 7E 7E 
05688     7E 7E 7D 7D 
0568c     7D 7D 7D 7D | 	byte	$80, $80, $80, $7f, $7f, $7f, $7e, $7e, $7e, $7e, $7d, $7d, $7d, $7d, $7d, $7d
05690     7C 7C 7C 7C 
05694     7C 7C 7C 7C 
05698     7C 7C 7C 7C 
0569c     7C 7C 7C    | 	byte	$7c[15]
0569f     7D 7D 7D 7D 
056a3     7D          | 	byte	$7d[5]
056a4     7E 7E 7E 7F 
056a8     7F 7F 7F 80 
056ac     80 80 81 81 
056b0     81 82 82 82 | 	byte	$7e, $7e, $7e, $7f, $7f, $7f, $7f, $80, $80, $80, $81, $81, $81, $82, $82, $82
056b4     83 83 83 84 
056b8     84 84 84 84 
056bc     84 84 84 84 
056c0     84 84 84 84 | 	byte	$83, $83, $83, $84, $84, $84, $84, $84, $84, $84, $84, $84, $84, $84, $84, $84
056c4     84 84 84 84 
056c8     84          | 	byte	$84[5]
056c9     83 83 83 83 
056cd     82 82 82 81 
056d1     81 81 81 80 
056d5     80 80 7F 7F | 	byte	$83, $83, $83, $83, $82, $82, $82, $81, $81, $81, $81, $80, $80, $80, $7f, $7f
056d9     7F 7F 7E 7E 
056dd     7E 7D 7D 7D 
056e1     7D 7D 7D 7C 
056e5     7C 7C 7C 7C | 	byte	$7f, $7f, $7e, $7e, $7e, $7d, $7d, $7d, $7d, $7d, $7d, $7c, $7c, $7c, $7c, $7c
056e9     7C 7C 7C 7C 
056ed     7C 7C 7C 7C 
056f1     7C 7C       | 	byte	$7c[10]
056f3     7D 7D 7D 7D 
056f7     7D 7D       | 	byte	$7d[6]
056f9     7E 7E 7E 7F 
056fd     7F 7F 7F 80 
05701     80 81 81 81 
05705     81 82 82 82 | 	byte	$7e, $7e, $7e, $7f, $7f, $7f, $7f, $80, $80, $81, $81, $81, $81, $82, $82, $82
05709     83 83 83 83 
0570d     84 84 84 84 
05711     84 84 84 84 
05715     84 84 84 84 | 	byte	$83, $83, $83, $83, $84, $84, $84, $84, $84, $84, $84, $84, $84, $84, $84, $84
05719     84 84 84 83 
0571d     83 83 83 83 
05721     82 82 82 82 
05725     81 81 81 80 | 	byte	$84, $84, $84, $83, $83, $83, $83, $83, $82, $82, $82, $82, $81, $81, $81, $80
05729     80 80 80 7F 
0572d     7F 7F 7E 7E 
05731     7E 7E 7D 7D 
05735     7D 7D 7D 7D | 	byte	$80, $80, $80, $7f, $7f, $7f, $7e, $7e, $7e, $7e, $7d, $7d, $7d, $7d, $7d, $7d
05739     7D 7C 7C 7C 
0573d     7C 7C 7C 7C 
05741     7C 7C 7C 7C 
05745     7C 7C 7D 7D | 	byte	$7d, $7c, $7c, $7c, $7c, $7c, $7c, $7c, $7c, $7c, $7c, $7c, $7c, $7c, $7d, $7d
05749     7D 7D 7D 7D 
0574d     7E 7E 7E 7F 
05751     7F 7F 7F 80 
05755     80 80 81 81 | 	byte	$7d, $7d, $7d, $7d, $7e, $7e, $7e, $7f, $7f, $7f, $7f, $80, $80, $80, $81, $81
05759     81 82 82 82 
0575d     83 83 83 83 
05761     84 84 84 84 
05765     84 84 84 84 | 	byte	$81, $82, $82, $82, $83, $83, $83, $83, $84, $84, $84, $84, $84, $84, $84, $84
05769     84 84 84 84 
0576d     84 84 84 84 | 	byte	$84[8]
05771     83 83 83 83 
05775     82 82 82 82 
05779     81 81 81 81 
0577d     80 80 80 7F | 	byte	$83, $83, $83, $83, $82, $82, $82, $82, $81, $81, $81, $81, $80, $80, $80, $7f
05781     7F 7F 7F 7E 
05785     7E 7E 7E 7D 
05789     7D 7D 7D 7D 
0578d     7D 7C 7C 7C | 	byte	$7f, $7f, $7f, $7e, $7e, $7e, $7e, $7d, $7d, $7d, $7d, $7d, $7d, $7c, $7c, $7c
05791     7C 7C 7C 7C 
05795     7C 7C 7C 7C 
05799     7C 7C 7C    | 	byte	$7c[11]
0579c     7D 7D 7D 7D 
057a0     7D          | 	byte	$7d[5]
057a1     7E 7E 7E 7E 
057a5     7F 7F 7F 80 
057a9     80 80 81 81 
057ad     81 82 82 82 | 	byte	$7e, $7e, $7e, $7e, $7f, $7f, $7f, $80, $80, $80, $81, $81, $81, $82, $82, $82
057b1     82 83 83 83 
057b5     83 84 84 84 
057b9     84 84 84 84 
057bd     84 84 84 84 | 	byte	$82, $83, $83, $83, $83, $84, $84, $84, $84, $84, $84, $84, $84, $84, $84, $84
057c1     84 84 84 84 
057c5     83 83 83 83 
057c9     83 82 82 82 
057cd     82 81 81 81 | 	byte	$84, $84, $84, $84, $83, $83, $83, $83, $83, $82, $82, $82, $82, $81, $81, $81
057d1     80 80 80 80 
057d5     7F 7F 7F 7F 
057d9     7E 7E 7E 7E 
057dd     7D 7D 7D 7D | 	byte	$80, $80, $80, $80, $7f, $7f, $7f, $7f, $7e, $7e, $7e, $7e, $7d, $7d, $7d, $7d
057e1     7D 7D 7D 7C 
057e5     7C 7C 7C 7C 
057e9     7C 7C 7C 7C 
057ed     7C 7D 7D 7D | 	byte	$7d, $7d, $7d, $7c, $7c, $7c, $7c, $7c, $7c, $7c, $7c, $7c, $7c, $7d, $7d, $7d
057f1     7D 7D 7D 7D 
057f5     7E 7E 7E 7E 
057f9     7F 7F 7F 7F 
057fd     80 80 80 81 | 	byte	$7d, $7d, $7d, $7d, $7e, $7e, $7e, $7e, $7f, $7f, $7f, $7f, $80, $80, $80, $81
05801     81 81 82 82 
05805     82 82 83 83 
05809     83 83 84 84 
0580d     84 84 84 84 | 	byte	$81, $81, $82, $82, $82, $82, $83, $83, $83, $83, $84, $84, $84, $84, $84, $84
05811     84 84 84 84 
05815     84 84 84    | 	byte	$84[7]
05818     83 83 83 83 
0581c     83 83       | 	byte	$83[6]
0581e     82 82 82 82 
05822     81 81 81 81 
05826     80 80 80 7F 
0582a     7F 7F 7F 7E | 	byte	$82, $82, $82, $82, $81, $81, $81, $81, $80, $80, $80, $7f, $7f, $7f, $7f, $7e
0582e     7E 7E 7E 7D 
05832     7D 7D 7D 7D 
05836     7D 7D 7C 7C 
0583a     7C 7C 7C 7C | 	byte	$7e, $7e, $7e, $7d, $7d, $7d, $7d, $7d, $7d, $7d, $7c, $7c, $7c, $7c, $7c, $7c
0583e     7C 7C 7C 7C 
05842     7C 7C       | 	byte	$7c[6]
05844     7D 7D 7D 7D 
05848     7D 7D       | 	byte	$7d[6]
0584a     7E 7E 7E 7E 
0584e     7F 7F 7F 80 
05852     80 80 80 81 
05856     81 81 82 82 | 	byte	$7e, $7e, $7e, $7e, $7f, $7f, $7f, $80, $80, $80, $80, $81, $81, $81, $82, $82
0585a     82 83 83 83 
0585e     83 83 84 84 
05862     84 84 84 84 
05866     84 84 84 84 | 	byte	$82, $83, $83, $83, $83, $83, $84, $84, $84, $84, $84, $84, $84, $84, $84, $84
0586a     84 84 84 83 
0586e     83 83 83 83 
05872     83 82 82 82 
05876     82 81 81 81 | 	byte	$84, $84, $84, $83, $83, $83, $83, $83, $83, $82, $82, $82, $82, $81, $81, $81
0587a     80 80 80 80 
0587e     7F 7F 7F 7F 
05882     7E 7E 7E 7E 
05886     7E 7D 7D 7D | 	byte	$80, $80, $80, $80, $7f, $7f, $7f, $7f, $7e, $7e, $7e, $7e, $7e, $7d, $7d, $7d
0588a     7D 7D 7D 7D 
0588e     7C 7C 7C 7C 
05892     7C 7D 7D 7D 
05896     7D 7D 7D 7D | 	byte	$7d, $7d, $7d, $7d, $7c, $7c, $7c, $7c, $7c, $7d, $7d, $7d, $7d, $7d, $7d, $7d
0589a     7D 7D 7D 7D 
0589e     7E 7E 7E 7E 
058a2     7F 7F 7F 7F 
058a6     80 80 80 81 | 	byte	$7d, $7d, $7d, $7d, $7e, $7e, $7e, $7e, $7f, $7f, $7f, $7f, $80, $80, $80, $81
058aa     81 81 82 82 
058ae     82 82 83 83 
058b2     83 83 83 84 
058b6     84 84 84 84 | 	byte	$81, $81, $82, $82, $82, $82, $83, $83, $83, $83, $83, $84, $84, $84, $84, $84
058ba     84 84 84 84 
058be     84 84       | 	byte	$84[6]
058c0     83 83 83 83 
058c4     83 83       | 	byte	$83[6]
058c6     82 82 82 82 
058ca     82          | 	byte	$82[5]
058cb     81 81 81 80 
058cf     80 80 80 7F 
058d3     7F 7F 7F 7E 
058d7     7E 7E 7E 7D | 	byte	$81, $81, $81, $80, $80, $80, $80, $7f, $7f, $7f, $7f, $7e, $7e, $7e, $7e, $7d
058db     7D 7D 7D 7D 
058df     7D 7D 7D    | 	byte	$7d[7]
058e2     7C 7C 7C 7C 
058e6     7C 7C 7C 7C 
058ea     7C          | 	byte	$7c[9]
058eb     7D 7D 7D 7D 
058ef     7D 7D 7D    | 	byte	$7d[7]
058f2     7E 7E 7E 7E 
058f6     7E          | 	byte	$7e[5]
058f7     7F 7F 7F 80 
058fb     80 80 81 81 
058ff     81 81 82 82 
05903     82 83 83 83 | 	byte	$7f, $7f, $7f, $80, $80, $80, $81, $81, $81, $81, $82, $82, $82, $83, $83, $83
05907     83 83 83 84 
0590b     84 84 84 84 
0590f     84 84 84 84 
05913     84 84 83 83 | 	byte	$83, $83, $83, $84, $84, $84, $84, $84, $84, $84, $84, $84, $84, $84, $83, $83
05917     83 83 83 83 
0591b     82 82 82 82 
0591f     81 81 81 81 
05923     80 80 80 80 | 	byte	$83, $83, $83, $83, $82, $82, $82, $82, $81, $81, $81, $81, $80, $80, $80, $80
05927     7F 7F 7F 7F 
0592b     7E 7E 7E 7E 
0592f     7E 7D 7D 7D 
05933     7D 7D 7D 7D | 	byte	$7f, $7f, $7f, $7f, $7e, $7e, $7e, $7e, $7e, $7d, $7d, $7d, $7d, $7d, $7d, $7d
05937     7D 7D 7D 7C 
0593b     7C 7C 7D 7D 
0593f     7D 7D 7D 7D 
05943     7D 7D 7D 7D | 	byte	$7d, $7d, $7d, $7c, $7c, $7c, $7d, $7d, $7d, $7d, $7d, $7d, $7d, $7d, $7d, $7d
05947     7E 7E 7E 7E 
0594b     7F 7F 7F 7F 
0594f     80 80 80 81 
05953     81 81 81 82 | 	byte	$7e, $7e, $7e, $7e, $7f, $7f, $7f, $7f, $80, $80, $80, $81, $81, $81, $81, $82
05957     82 82 83 83 
0595b     83 83 83 83 
0595f     84 84 84 84 
05963     84 84 84 84 | 	byte	$82, $82, $83, $83, $83, $83, $83, $83, $84, $84, $84, $84, $84, $84, $84, $84
05967     84 83 83 83 
0596b     83 83 83 83 
0596f     82 82 82 82 
05973     81 81 81 81 | 	byte	$84, $83, $83, $83, $83, $83, $83, $83, $82, $82, $82, $82, $81, $81, $81, $81
05977     80 80 80 80 
0597b     7F 7F 7F 7F 
0597f     7E 7E 7E 7E 
05983     7E 7E 7D 7D | 	byte	$80, $80, $80, $80, $7f, $7f, $7f, $7f, $7e, $7e, $7e, $7e, $7e, $7e, $7d, $7d
05987     7D 7D 7D 7D 
0598b     7D 7D 7D 7D 
0598f     7D 7D 7D 7D 
05993     7D 7D 7D 7D 
05997     7D 7D 7D 7D | 	byte	$7d[20]
0599b     7E 7E 7E 7E 
0599f     7F 7F 7F 7F 
059a3     80 80 80 81 
059a7     81 81 81 82 | 	byte	$7e, $7e, $7e, $7e, $7f, $7f, $7f, $7f, $80, $80, $80, $81, $81, $81, $81, $82
059ab     82 82 82 83 
059af     83 83 83 83 
059b3     84 84 84 84 
059b7     84 84 84 84 | 	byte	$82, $82, $82, $83, $83, $83, $83, $83, $84, $84, $84, $84, $84, $84, $84, $84
059bb     84 84 84 83 
059bf     83 83 83 83 
059c3     83 82 82 82 
059c7     82 81 81 81 | 	byte	$84, $84, $84, $83, $83, $83, $83, $83, $83, $82, $82, $82, $82, $81, $81, $81
059cb     81 80 80 80 
059cf     80 7F 7F 7F 
059d3     7F 7E 7E 7E 
059d7     7E 7E 7D 7D | 	byte	$81, $80, $80, $80, $80, $7f, $7f, $7f, $7f, $7e, $7e, $7e, $7e, $7e, $7d, $7d
059db     7D 7D 7D 7D 
059df     7D 7D 7D 7D 
059e3     7D 7D 7D 7D 
059e7     7D 7D 7D 7D 
059eb     7D 7D 7D 7D | 	byte	$7d[20]
059ef     7E 7E 7E 7E 
059f3     7E          | 	byte	$7e[5]
059f4     7F 7F 7F 7F 
059f8     80 80 80 81 
059fc     81 81 81 82 
05a00     82 82 82 83 | 	byte	$7f, $7f, $7f, $7f, $80, $80, $80, $81, $81, $81, $81, $82, $82, $82, $82, $83
05a04     83 83 83 83 
05a08     83 83       | 	byte	$83[6]
05a0a     84 84 84 84 
05a0e     84 84       | 	byte	$84[6]
05a10     83 83 83 83 
05a14     83 83 83 83 | 	byte	$83[8]
05a18     82 82 82 82 
05a1c     81 81 81 81 
05a20     80 80 80 80 
05a24     80 7F 7F 7F | 	byte	$82, $82, $82, $82, $81, $81, $81, $81, $80, $80, $80, $80, $80, $7f, $7f, $7f
05a28     7F 7E 7E 7E 
05a2c     7E 7E 7D 7D 
05a30     7D 7D 7D 7D 
05a34     7D 7D 7D 7D | 	byte	$7f, $7e, $7e, $7e, $7e, $7e, $7d, $7d, $7d, $7d, $7d, $7d, $7d, $7d, $7d, $7d
05a38     7D 7D 7D 7D 
05a3c     7D 7D 7D 7D 
05a40     7D 7D 7D    | 	byte	$7d[11]
05a43     7E 7E 7E 7E 
05a47     7E          | 	byte	$7e[5]
05a48     7F 7F 7F 7F 
05a4c     80 80 80 80 
05a50     81 81 81 82 
05a54     82 82 82 83 | 	byte	$7f, $7f, $7f, $7f, $80, $80, $80, $80, $81, $81, $81, $82, $82, $82, $82, $83
05a58     83 83 83 83 
05a5c     83 83       | 	byte	$83[6]
05a5e     84 84 84 84 
05a62     84 84 84 84 | 	byte	$84[8]
05a66     83 83 83 83 
05a6a     83 83       | 	byte	$83[6]
05a6c     82 82 82 82 
05a70     82          | 	byte	$82[5]
05a71     81 81 81 81 
05a75     80 80 80 80 
05a79     7F 7F 7F 7F 
05a7d     7E 7E 7E 7E | 	byte	$81, $81, $81, $81, $80, $80, $80, $80, $7f, $7f, $7f, $7f, $7e, $7e, $7e, $7e
05a81     7E 7D 7D 7D 
05a85     7D 7D 7D 7D 
05a89     7D 7D 7D 7D 
05a8d     7D 7D 7D 7D | 	byte	$7e, $7d, $7d, $7d, $7d, $7d, $7d, $7d, $7d, $7d, $7d, $7d, $7d, $7d, $7d, $7d
05a91     7D 7D 7D 7D 
05a95     7D 7D 7D    | 	byte	$7d[7]
05a98     7E 7E 7E 7E 
05a9c     7E          | 	byte	$7e[5]
05a9d     7F 7F 7F 7F 
05aa1     80 80 80 81 
05aa5     81 81 81 82 
05aa9     82 82 82 83 | 	byte	$7f, $7f, $7f, $7f, $80, $80, $80, $81, $81, $81, $81, $82, $82, $82, $82, $83
05aad     83 83 83 83 
05ab1     83 83 83    | 	byte	$83[7]
05ab4     84 83 84 83 
05ab8     83 83 83 83 
05abc     83 83 83 83 
05ac0     82 82 82 82 | 	byte	$84, $83, $84, $83, $83, $83, $83, $83, $83, $83, $83, $83, $82, $82, $82, $82
05ac4     82 81 81 81 
05ac8     81 80 80 80 
05acc     80 80 7F 7F 
05ad0     7F 7F 7E 7E | 	byte	$82, $81, $81, $81, $81, $80, $80, $80, $80, $80, $7f, $7f, $7f, $7f, $7e, $7e
05ad4     7E 7E 7E 7E 
05ad8     7D 7D 7D 7D 
05adc     7D 7D 7D 7D 
05ae0     7D 7D 7D 7D | 	byte	$7e, $7e, $7e, $7e, $7d, $7d, $7d, $7d, $7d, $7d, $7d, $7d, $7d, $7d, $7d, $7d
05ae4     7D 7D 7D 7D 
05ae8     7D 7D 7D    | 	byte	$7d[7]
05aeb     7E 7E 7E 7E 
05aef     7E 7E       | 	byte	$7e[6]
05af1     7F 7F 7F 7F 
05af5     80 80 80 80 
05af9     81 81 81 82 
05afd     82 82 82 83 | 	byte	$7f, $7f, $7f, $7f, $80, $80, $80, $80, $81, $81, $81, $82, $82, $82, $82, $83
05b01     83 83 83 83 
05b05     83 83 83 83 
05b09     83          | 	byte	$83[9]
05b0a     84 83 83 83 
05b0e     83 83 83 83 
05b12     83 83 83 82 
05b16     82 82 82 82 | 	byte	$84, $83, $83, $83, $83, $83, $83, $83, $83, $83, $83, $82, $82, $82, $82, $82
05b1a     81 81 81 81 
05b1e     80 80 80 80 
05b22     7F 7F 7F 7F 
05b26     7F 7E 7E 7E | 	byte	$81, $81, $81, $81, $80, $80, $80, $80, $7f, $7f, $7f, $7f, $7f, $7e, $7e, $7e
05b2a     7E 7E 7E 7D 
05b2e     7D 7D 7D 7D 
05b32     7D 7D 7D 7D 
05b36     7D 7D 7D 7D | 	byte	$7e, $7e, $7e, $7d, $7d, $7d, $7d, $7d, $7d, $7d, $7d, $7d, $7d, $7d, $7d, $7d
05b3a     7D 7D 7D 7D 
05b3e     7D 7D       | 	byte	$7d[6]
05b40     7E 7E 7E 7E 
05b44     7E          | 	byte	$7e[5]
05b45     7F 7F 7F 7F 
05b49     80 80 80 80 
05b4d     81 81 81 81 
05b51     82 82 82 82 | 	byte	$7f, $7f, $7f, $7f, $80, $80, $80, $80, $81, $81, $81, $81, $82, $82, $82, $82
05b55     82 83 83 83 
05b59     83 83 83 83 
05b5d     83 83 83 83 
05b61     83 83 83 83 | 	byte	$82, $83, $83, $83, $83, $83, $83, $83, $83, $83, $83, $83, $83, $83, $83, $83
05b65     83 83 83 83 
05b69     82 82 82 82 
05b6d     82 81 81 81 
05b71     81 80 80 80 | 	byte	$83, $83, $83, $83, $82, $82, $82, $82, $82, $81, $81, $81, $81, $80, $80, $80
05b75     80 80 7F 7F 
05b79     7F 7F 7F 7E 
05b7d     7E 7E 7E 7E 
05b81     7E 7D 7D 7D | 	byte	$80, $80, $7f, $7f, $7f, $7f, $7f, $7e, $7e, $7e, $7e, $7e, $7e, $7d, $7d, $7d
05b85     7D 7D 7D 7D 
05b89     7D 7D 7D 7D 
05b8d     7D 7D 7D 7D 
05b91     7D 7D 7D    | 	byte	$7d[15]
05b94     7E 7E 7E 7E 
05b98     7E 7E       | 	byte	$7e[6]
05b9a     7F 7F 7F 7F 
05b9e     80 80 80 80 
05ba2     81 81 81 81 
05ba6     82 82 82 82 | 	byte	$7f, $7f, $7f, $7f, $80, $80, $80, $80, $81, $81, $81, $81, $82, $82, $82, $82
05baa     83 83 83 83 
05bae     83 83 83 83 
05bb2     83 83 83 83 
05bb6     83 83 83 83 
05bba     83 83 83    | 	byte	$83[19]
05bbd     82 82 82 82 
05bc1     82          | 	byte	$82[5]
05bc2     81 81 81 81 
05bc6     81          | 	byte	$81[5]
05bc7     80 80 80 80 
05bcb     7F 7F 7F 7F 
05bcf     7F 7E 7E 7E 
05bd3     7E 7E 7D 7D | 	byte	$80, $80, $80, $80, $7f, $7f, $7f, $7f, $7f, $7e, $7e, $7e, $7e, $7e, $7d, $7d
05bd7     7D 7D 7D 7D 
05bdb     7D 7D 7D 7D 
05bdf     7D 7D 7D 7D 
05be3     7D 7D 7D 7D 
05be7     7D 7D       | 	byte	$7d[18]
05be9     7E 7E 7E 7E 
05bed     7E          | 	byte	$7e[5]
05bee     7F 7F 7F 7F 
05bf2     7F          | 	byte	$7f[5]
05bf3     80 80 80 81 
05bf7     81 81 81 82 
05bfb     82 82 82 82 
05bff     83 83 83 83 | 	byte	$80, $80, $80, $81, $81, $81, $81, $82, $82, $82, $82, $82, $83, $83, $83, $83
05c03     83 83 83 83 
05c07     83 83 83 83 
05c0b     83 83 83 83 
05c0f     83 83 83    | 	byte	$83[15]
05c12     82 82 82 82 
05c16     82          | 	byte	$82[5]
05c17     81 81 81 81 
05c1b     81          | 	byte	$81[5]
05c1c     80 80 80 80 
05c20     7F 7F 7F 7F 
05c24     7F 7E 7E 7E 
05c28     7E 7E 7E 7E | 	byte	$80, $80, $80, $80, $7f, $7f, $7f, $7f, $7f, $7e, $7e, $7e, $7e, $7e, $7e, $7e
05c2c     7D 7D 7D 7D 
05c30     7D 7D 7D 7D 
05c34     7D 7D 7D 7D 
05c38     7D 7D 7D 7D | 	byte	$7d[16]
05c3c     7E 7E 7E 7E 
05c40     7E 7E       | 	byte	$7e[6]
05c42     7F 7F 7F 7F 
05c46     7F          | 	byte	$7f[5]
05c47     80 80 80 80 
05c4b     81 81 81 81 
05c4f     82 82 82 82 
05c53     82 83 83 83 | 	byte	$80, $80, $80, $80, $81, $81, $81, $81, $82, $82, $82, $82, $82, $83, $83, $83
05c57     83 83 83 83 
05c5b     83 83 83 83 
05c5f     83 83 83 83 
05c63     83 83       | 	byte	$83[14]
05c65     82 82 82 82 
05c69     82 82       | 	byte	$82[6]
05c6b     81 81 81 81 
05c6f     80 80 80 80 
05c73     80 7F 7F 7F 
05c77     7F 7F 7E 7E | 	byte	$81, $81, $81, $81, $80, $80, $80, $80, $80, $7f, $7f, $7f, $7f, $7f, $7e, $7e
05c7b     7E 7E 7E 7E 
05c7f     7D 7D 7D 7D 
05c83     7D 7D 7D 7D 
05c87     7D 7D 7D 7D | 	byte	$7e, $7e, $7e, $7e, $7d, $7d, $7d, $7d, $7d, $7d, $7d, $7d, $7d, $7d, $7d, $7d
05c8b     7D 7D 7D 7D 
05c8f     7D 7D       | 	byte	$7d[6]
05c91     7E 7E 7E 7E 
05c95     7E 7E       | 	byte	$7e[6]
05c97     7F 7F 7F 7F 
05c9b     80 80 80 80 
05c9f     81 81 81 81 
05ca3     82 82 82 82 | 	byte	$7f, $7f, $7f, $7f, $80, $80, $80, $80, $81, $81, $81, $81, $82, $82, $82, $82
05ca7     82 83 83 83 
05cab     83 83 83 83 
05caf     83 83 83 83 
05cb3     83 83 83 83 | 	byte	$82, $83, $83, $83, $83, $83, $83, $83, $83, $83, $83, $83, $83, $83, $83, $83
05cb7     83 83 83 82 
05cbb     82 82 82 82 
05cbf     82 81 81 81 
05cc3     81 80 80 80 | 	byte	$83, $83, $83, $82, $82, $82, $82, $82, $82, $81, $81, $81, $81, $80, $80, $80
05cc7     80 80 7F 7F 
05ccb     7F 7F 7F 7E 
05ccf     7E 7E 7E 7E 
05cd3     7E 7E 7D 7D | 	byte	$80, $80, $7f, $7f, $7f, $7f, $7f, $7e, $7e, $7e, $7e, $7e, $7e, $7e, $7d, $7d
05cd7     7D 7D 7D 7D 
05cdb     7D 7D 7D 7D 
05cdf     7D 7D 7D 7D 
05ce3     7D 7D       | 	byte	$7d[14]
05ce5     7E 7E 7E 7E 
05ce9     7E 7E       | 	byte	$7e[6]
05ceb     7F 7F 7F 7F 
05cef     7F          | 	byte	$7f[5]
05cf0     80 80 80 80 
05cf4     81 81 81 81 
05cf8     82 82 82 82 
05cfc     82 83 83 83 | 	byte	$80, $80, $80, $80, $81, $81, $81, $81, $82, $82, $82, $82, $82, $83, $83, $83
05d00     83 83 83 83 
05d04     83 83 83 83 
05d08     83 83 83 83 
05d0c     83 83       | 	byte	$83[14]
05d0e     82 82 82 82 
05d12     82 82       | 	byte	$82[6]
05d14     81 81 81 81 
05d18     81          | 	byte	$81[5]
05d19     80 80 80 80 
05d1d     7F 7F 7F 7F 
05d21     7F 7E 7E 7E 
05d25     7E 7E 7E 7E | 	byte	$80, $80, $80, $80, $7f, $7f, $7f, $7f, $7f, $7e, $7e, $7e, $7e, $7e, $7e, $7e
05d29     7E 7D 7D 7D 
05d2d     7D 7D 7D 7D 
05d31     7D 7D 7D 7D 
05d35     7D 7D 7D 7D | 	byte	$7e, $7d, $7d, $7d, $7d, $7d, $7d, $7d, $7d, $7d, $7d, $7d, $7d, $7d, $7d, $7d
05d39     7E 7E 7E 7E 
05d3d     7E 7E 7E    | 	byte	$7e[7]
05d40     7F 7F 7F 7F 
05d44     80 80 80 80 
05d48     81 81 81 81 
05d4c     81 82 82 82 | 	byte	$7f, $7f, $7f, $7f, $80, $80, $80, $80, $81, $81, $81, $81, $81, $82, $82, $82
05d50     82 83 83 83 
05d54     83 83 83 83 
05d58     83 83 83 83 
05d5c     83 83 83 83 | 	byte	$82, $83, $83, $83, $83, $83, $83, $83, $83, $83, $83, $83, $83, $83, $83, $83
05d60     83 83 82 82 
05d64     82 82 82 82 
05d68     81 81 81 81 
05d6c     81 80 80 80 | 	byte	$83, $83, $82, $82, $82, $82, $82, $82, $81, $81, $81, $81, $81, $80, $80, $80
05d70     80 80 7F 7F 
05d74     7F 7F 7F 7E 
05d78     7E 7E 7E 7E 
05d7c     7E 7E 7E 7D | 	byte	$80, $80, $7f, $7f, $7f, $7f, $7f, $7e, $7e, $7e, $7e, $7e, $7e, $7e, $7e, $7d
05d80     7D 7D 7D 7D 
05d84     7D 7D 7D 7D 
05d88     7D 7D 7D 7D 
05d8c     7D 7D       | 	byte	$7d[14]
05d8e     7E 7E 7E 7E 
05d92     7E 7E       | 	byte	$7e[6]
05d94     7F 7F 7F 7F 
05d98     7F          | 	byte	$7f[5]
05d99     80 80 80 80 
05d9d     81 81 81 81 
05da1     81 82 82 82 
05da5     82 82 83 83 | 	byte	$80, $80, $80, $80, $81, $81, $81, $81, $81, $82, $82, $82, $82, $82, $83, $83
05da9     83 83 83 83 
05dad     83 83 83 83 
05db1     83 83 83 83 
05db5     83          | 	byte	$83[13]
05db6     82 82 82 82 
05dba     82 82 82    | 	byte	$82[7]
05dbd     81 81 81 81 
05dc1     81          | 	byte	$81[5]
05dc2     80 80 80 80 
05dc6     80          | 	byte	$80[5]
05dc7     7F 7F 7F 7F 
05dcb     7F          | 	byte	$7f[5]
05dcc     7E 7E 7E 7E 
05dd0     7E 7E 7E 7E | 	byte	$7e[8]
05dd4     7D 7D 7D 7D 
05dd8     7D 7D 7D 7D 
05ddc     7D 7D 7D 7D 
05de0     7D          | 	byte	$7d[13]
05de1     7E 7E 7E 7E 
05de5     7E 7E 7E    | 	byte	$7e[7]
05de8     7F 7F 7F 7F 
05dec     7F          | 	byte	$7f[5]
05ded     80 80 80 80 
05df1     81 81 81 81 
05df5     82 82 82 82 
05df9     82 82 83 83 | 	byte	$80, $80, $80, $80, $81, $81, $81, $81, $82, $82, $82, $82, $82, $82, $83, $83
05dfd     83 83 83 83 
05e01     83 83 83 83 
05e05     83 83 83 83 
05e09     83 83       | 	byte	$83[14]
05e0b     82 82 82 82 
05e0f     82 82       | 	byte	$82[6]
05e11     81 81 81 81 
05e15     81          | 	byte	$81[5]
05e16     80 80 80 80 
05e1a     80          | 	byte	$80[5]
05e1b     7F 7F 7F 7F 
05e1f     7F          | 	byte	$7f[5]
05e20     7E 7E 7E 7E 
05e24     7E 7E 7E 7E | 	byte	$7e[8]
05e28     7D 7D 7D 7D 
05e2c     7D 7D 7D 7D 
05e30     7D 7D 7D 7D 
05e34     7D 7D       | 	byte	$7d[14]
05e36     7E 7E 7E 7E 
05e3a     7E 7E 7E    | 	byte	$7e[7]
05e3d     7F 7F 7F 7F 
05e41     7F          | 	byte	$7f[5]
05e42     80 80 80 80 
05e46     81 81 81 81 
05e4a     81 82 82 82 
05e4e     82 82 83 83 | 	byte	$80, $80, $80, $80, $81, $81, $81, $81, $81, $82, $82, $82, $82, $82, $83, $83
05e52     83 83 83 83 
05e56     83 83 83 83 
05e5a     83 83 83 83 
05e5e     83          | 	byte	$83[13]
05e5f     82 82 82 82 
05e63     82 82       | 	byte	$82[6]
05e65     81 81 81 81 
05e69     81 81       | 	byte	$81[6]
05e6b     80 80 80 80 
05e6f     80          | 	byte	$80[5]
05e70     7F 7F 7F 7F 
05e74     7F          | 	byte	$7f[5]
05e75     7E 7E 7E 7E 
05e79     7E 7E 7E 7E 
05e7d     7E          | 	byte	$7e[9]
05e7e     7D 7D 7D 7D 
05e82     7D 7D 7D 7D 
05e86     7D 7D 7D    | 	byte	$7d[11]
05e89     7E 7E 7E 7E 
05e8d     7E 7E 7E 7E | 	byte	$7e[8]
05e91     7F 7F 7F 7F 
05e95     7F          | 	byte	$7f[5]
05e96     80 80 80 80 
05e9a     81 81 81 81 
05e9e     81 82 82 82 
05ea2     82 82 82 83 | 	byte	$80, $80, $80, $80, $81, $81, $81, $81, $81, $82, $82, $82, $82, $82, $82, $83
05ea6     83 83 83 83 
05eaa     83 83 83 83 
05eae     83 83 83 83 
05eb2     83          | 	byte	$83[13]
05eb3     82 82 82 82 
05eb7     82 82 82    | 	byte	$82[7]
05eba     81 81 81 81 
05ebe     81          | 	byte	$81[5]
05ebf     80 80 80 80 
05ec3     80          | 	byte	$80[5]
05ec4     7F 7F 7F 7F 
05ec8     7F 7F       | 	byte	$7f[6]
05eca     7E 7E 7E 7E 
05ece     7E 7E 7E 7E 
05ed2     7E          | 	byte	$7e[9]
05ed3     7D 7D 7D 7D 
05ed7     7D 7D 7D 7D 
05edb     7D 7D       | 	byte	$7d[10]
05edd     7E 7E 7E 7E 
05ee1     7E 7E 7E 7E | 	byte	$7e[8]
05ee5     7F 7F 7F 7F 
05ee9     7F 7F       | 	byte	$7f[6]
05eeb     80 80 80 80 
05eef     81 81 81 81 
05ef3     81 82 82 82 
05ef7     82 82 82 83 | 	byte	$80, $80, $80, $80, $81, $81, $81, $81, $81, $82, $82, $82, $82, $82, $82, $83
05efb     83 83 83 83 
05eff     83 83 83 83 
05f03     83 83 83 83 | 	byte	$83[12]
05f07     82 82 82 82 
05f0b     82 82 82    | 	byte	$82[7]
05f0e     81 81 81 81 
05f12     81          | 	byte	$81[5]
05f13     80 80 80 80 
05f17     80 80       | 	byte	$80[6]
05f19     7F 7F 7F 7F 
05f1d     7F          | 	byte	$7f[5]
05f1e     7E 7E 7E 7E 
05f22     7E 7E 7E 7E 
05f26     7E 7E       | 	byte	$7e[10]
05f28     7D 7D 7D 7D 
05f2c     7D 7D 7D 7D 
05f30     7D          | 	byte	$7d[9]
05f31     7E 7E 7E 7E 
05f35     7E 7E 7E 7E 
05f39     7E          | 	byte	$7e[9]
05f3a     7F 7F 7F 7F 
05f3e     7F          | 	byte	$7f[5]
05f3f     80 80 80 80 
05f43     81 81 81 81 
05f47     81 82 82 82 
05f4b     82 82 82 82 | 	byte	$80, $80, $80, $80, $81, $81, $81, $81, $81, $82, $82, $82, $82, $82, $82, $82
05f4f     83 83 83 83 
05f53     83 83 83 83 
05f57     83 83 83 83 | 	byte	$83[12]
05f5b     82 82 82 82 
05f5f     82 82 82    | 	byte	$82[7]
05f62     81 81 81 81 
05f66     81 81       | 	byte	$81[6]
05f68     80 80 80 80 
05f6c     80          | 	byte	$80[5]
05f6d     7F 7F 7F 7F 
05f71     7F 7F       | 	byte	$7f[6]
05f73     7E 7E 7E 7E 
05f77     7E 7E 7E 7E 
05f7b     7E          | 	byte	$7e[9]
05f7c     7D 7D 7D 7D 
05f80     7D 7D 7D 7D 
05f84     7D          | 	byte	$7d[9]
05f85     7E 7E 7E 7E 
05f89     7E 7E 7E 7E 
05f8d     7E          | 	byte	$7e[9]
05f8e     7F 7F 7F 7F 
05f92     7F          | 	byte	$7f[5]
05f93     80 80 80 80 
05f97     80          | 	byte	$80[5]
05f98     81 81 81 81 
05f9c     81          | 	byte	$81[5]
05f9d     82 82 82 82 
05fa1     82 82 82    | 	byte	$82[7]
05fa4     83 83 83 83 
05fa8     83 83 83 83 
05fac     83 83 83 83 | 	byte	$83[12]
05fb0     82 82 82 82 
05fb4     82 82 82    | 	byte	$82[7]
05fb7     81 81 81 81 
05fbb     81 81       | 	byte	$81[6]
05fbd     80 80 80 80 
05fc1     80          | 	byte	$80[5]
05fc2     7F 7F 7F 7F 
05fc6     7F 7F       | 	byte	$7f[6]
05fc8     7E 7E 7E 7E 
05fcc     7E 7E 7E 7E 
05fd0     7E 7E       | 	byte	$7e[10]
05fd2     7D 7D 7E 7E 
05fd6     7D 7D 7D 7E 
05fda     7E 7E 7E 7E 
05fde     7E 7E 7E 7E | 	byte	$7d, $7d, $7e, $7e, $7d, $7d, $7d, $7e, $7e, $7e, $7e, $7e, $7e, $7e, $7e, $7e
05fe2     7F 7F 7F 7F 
05fe6     7F 7F       | 	byte	$7f[6]
05fe8     80 80 80 80 
05fec     80          | 	byte	$80[5]
05fed     81 81 81 81 
05ff1     81          | 	byte	$81[5]
05ff2     82 82 82 82 
05ff6     82 82 82    | 	byte	$82[7]
05ff9     83 83 83 83 
05ffd     83 83 83 83 
06001     83 83       | 	byte	$83[10]
06003     82 82 82 82 
06007     82 82 82 82 | 	byte	$82[8]
0600b     81 81 81 81 
0600f     81 81       | 	byte	$81[6]
06011     80 80 80 80 
06015     80          | 	byte	$80[5]
06016     7F 7F 7F 7F 
0601a     7F 7F       | 	byte	$7f[6]
0601c     7E 7E 7E 7E 
06020     7E 7E 7E 7E 
06024     7E 7E 7E    | 	byte	$7e[11]
06027     7D 7D 7D 7D 
0602b     7D 7D       | 	byte	$7d[6]
0602d     7E 7E 7E 7E 
06031     7E 7E 7E 7E 
06035     7E 7E       | 	byte	$7e[10]
06037     7F 7F 7F 7F 
0603b     7F          | 	byte	$7f[5]
0603c     80 80 80 80 
06040     80          | 	byte	$80[5]
06041     81 81 81 81 
06045     81          | 	byte	$81[5]
06046     82 82 82 82 
0604a     82 82 82    | 	byte	$82[7]
0604d     83 83 83 83 
06051     83 83 83 83 
06055     83 83       | 	byte	$83[10]
06057     82 82 82 82 
0605b     82 82 82 82 
0605f     82          | 	byte	$82[9]
06060     81 81 81 81 
06064     81 81       | 	byte	$81[6]
06066     80 80 80 80 
0606a     80          | 	byte	$80[5]
0606b     7F 7F 7F 7F 
0606f     7F 7F       | 	byte	$7f[6]
06071     7E 7E 7E 7E 
06075     7E 7E 7E 7E 
06079     7E 7E 7E 7E 
0607d     7E 7E 7E 7E 
06081     7E 7E 7E 7E 
06085     7E 7E 7E 7E 
06089     7E 7E       | 	byte	$7e[26]
0608b     7F 7F 7F 7F 
0608f     7F 7F       | 	byte	$7f[6]
06091     80 80 80 80 
06095     81 81 81 81 
06099     81 81 82 82 
0609d     82 82 82 82 | 	byte	$80, $80, $80, $80, $81, $81, $81, $81, $81, $81, $82, $82, $82, $82, $82, $82
060a1     82 82 83 83 
060a5     83 83 83 83 
060a9     83 83 82 82 
060ad     82 82 82 82 | 	byte	$82, $82, $83, $83, $83, $83, $83, $83, $83, $83, $82, $82, $82, $82, $82, $82
060b1     82 82 82 81 
060b5     81 81 81 81 
060b9     81 80 80 80 
060bd     80 80 7F 7F | 	byte	$82, $82, $82, $81, $81, $81, $81, $81, $81, $80, $80, $80, $80, $80, $7f, $7f
060c1     7F 7F 7F 7F 
060c5     7F          | 	byte	$7f[5]
060c6     7E 7E 7E 7E 
060ca     7E 7E 7E 7E 
060ce     7E 7E 7E 7E 
060d2     7E 7E 7E 7E 
060d6     7E 7E 7E 7E 
060da     7E 7E 7E 7E 
060de     7E          | 	byte	$7e[25]
060df     7F 7F 7F 7F 
060e3     7F 7F       | 	byte	$7f[6]
060e5     80 80 80 80 
060e9     80          | 	byte	$80[5]
060ea     81 81 81 81 
060ee     81          | 	byte	$81[5]
060ef     82 82 82 82 
060f3     82 82 82 82 | 	byte	$82[8]
060f7     83 83 83 83 
060fb     83 83 83 83 
060ff     83          | 	byte	$83[9]
06100     82 82 82 82 
06104     82 82 82 82 | 	byte	$82[8]
06108     81 81 81 81 
0610c     81 81       | 	byte	$81[6]
0610e     80 80 80 80 
06112     80 80       | 	byte	$80[6]
06114     7F 7F 7F 7F 
06118     7F 7F       | 	byte	$7f[6]
0611a     7E 7E 7E 7E 
0611e     7E 7E 7E 7E 
06122     7E 7E 7E 7E 
06126     7E 7E 7E 7E 
0612a     7E 7E 7E 7E 
0612e     7E 7E 7E 7E 
06132     7E 7E       | 	byte	$7e[26]
06134     7F 7F 7F 7F 
06138     7F 7F       | 	byte	$7f[6]
0613a     80 80 80 80 
0613e     80          | 	byte	$80[5]
0613f     81 81 81 81 
06143     81          | 	byte	$81[5]
06144     82 82 82 82 
06148     82 82 82 82 
0614c     82 82       | 	byte	$82[10]
0614e     83 82 83 82 
06152     82 82 82 82 
06156     82 82 82 82 
0615a     82 82 81 81 | 	byte	$83, $82, $83, $82, $82, $82, $82, $82, $82, $82, $82, $82, $82, $82, $81, $81
0615e     81 81 81 81 
06162     81          | 	byte	$81[5]
06163     80 80 80 80 
06167     80          | 	byte	$80[5]
06168     7F 7F 7F 7F 
0616c     7F 7F 7F 7F | 	byte	$7f[8]
06170     7E 7E 7E 7E 
06174     7E 7E 7E 7E 
06178     7E 7E 7E 7E 
0617c     7E 7E 7E 7E 
06180     7E 7E 7E 7E 
06184     7E 7E 7E 7E | 	byte	$7e[24]
06188     7F 7F 7F 7F 
0618c     7F 7F       | 	byte	$7f[6]
0618e     80 80 80 80 
06192     80          | 	byte	$80[5]
06193     81 81 81 81 
06197     81 81       | 	byte	$81[6]
06199     82 82 82 82 
0619d     82 82 82 82 | 	byte	$82[8]
061a1     83 83 83 83 
061a5     83          | 	byte	$83[5]
061a6     82 82 82 82 
061aa     82 82 82 82 
061ae     82 82 82    | 	byte	$82[11]
061b1     81 81 81 81 
061b5     81 81       | 	byte	$81[6]
061b7     80 80 80 80 
061bb     80 80       | 	byte	$80[6]
061bd     7F 7F 7F 7F 
061c1     7F 7F 7F    | 	byte	$7f[7]
061c4     7E 7E 7E 7E 
061c8     7E 7E 7E 7E 
061cc     7E 7E 7E 7E 
061d0     7E 7E 7E 7E 
061d4     7E 7E 7E 7E 
061d8     7E 7E 7E 7E 
061dc     7E          | 	byte	$7e[25]
061dd     7F 7F 7F 7F 
061e1     7F 7F       | 	byte	$7f[6]
061e3     80 80 80 80 
061e7     81 81 81 81 
061eb     81 81 82 82 
061ef     82 82 82 82 | 	byte	$80, $80, $80, $80, $81, $81, $81, $81, $81, $81, $82, $82, $82, $82, $82, $82
061f3     82 82 82 82 
061f7     82 82 82 82 
061fb     82 82 82 82 
061ff     82 82 82 82 
06203     82 82       | 	byte	$82[18]
06205     81 81 81 81 
06209     81 81 81    | 	byte	$81[7]
0620c     80 80 80 80 
06210     80 80       | 	byte	$80[6]
06212     7F 7F 7F 7F 
06216     7F 7F       | 	byte	$7f[6]
06218     7E 7E 7E 7E 
0621c     7E 7E 7E 7E 
06220     7E 7E 7E 7E 
06224     7E 7E 7E 7E 
06228     7E 7E 7E 7E 
0622c     7E 7E 7E 7E 
06230     7E          | 	byte	$7e[25]
06231     7F 7F 7F 7F 
06235     7F 7F       | 	byte	$7f[6]
06237     80 80 80 80 
0623b     80          | 	byte	$80[5]
0623c     81 81 81 81 
06240     81 81       | 	byte	$81[6]
06242     82 82 82 82 
06246     82 82 82 82 
0624a     82 82 82 82 
0624e     82 82 82 82 
06252     82 82 82 82 
06256     82 82 82 82 | 	byte	$82[24]
0625a     81 81 81 81 
0625e     81 81       | 	byte	$81[6]
06260     80 80 80 80 
06264     80 80       | 	byte	$80[6]
06266     7F 7F 7F 7F 
0626a     7F 7F 7F    | 	byte	$7f[7]
0626d     7E 7E 7E 7E 
06271     7E 7E 7E 7E 
06275     7E 7E 7E 7E 
06279     7E 7E 7E 7E 
0627d     7E 7E 7E 7E 
06281     7E 7E 7E 7E | 	byte	$7e[24]
06285     7F 7F 7F 7F 
06289     7F 7F 7F    | 	byte	$7f[7]
0628c     80 80 80 80 
06290     80          | 	byte	$80[5]
06291     81 81 81 81 
06295     81 81       | 	byte	$81[6]
06297     82 82 82 82 
0629b     82 82 82 82 
0629f     82 82 82 82 
062a3     82 82 82 82 
062a7     82 82 82 82 
062ab     82 82 82    | 	byte	$82[23]
062ae     81 81 81 81 
062b2     81 81       | 	byte	$81[6]
062b4     80 80 80 80 
062b8     80 80 80    | 	byte	$80[7]
062bb     7F 7F 7F 7F 
062bf     7F 7F 7F    | 	byte	$7f[7]
062c2     7E 7E 7E 7E 
062c6     7E 7E 7E 7E 
062ca     7E 7E 7E 7E 
062ce     7E 7E 7E 7E 
062d2     7E 7E 7E 7E 
062d6     7E 7E 7E    | 	byte	$7e[23]
062d9     7F 7F 7F 7F 
062dd     7F 7F 7F    | 	byte	$7f[7]
062e0     80 80 80 80 
062e4     80          | 	byte	$80[5]
062e5     81 81 81 81 
062e9     81 81       | 	byte	$81[6]
062eb     82 82 82 82 
062ef     82 82 82 82 
062f3     82 82 82 82 
062f7     82 82 82 82 
062fb     82 82 82 82 
062ff     82 82 82    | 	byte	$82[23]
06302     81 81 81 81 
06306     81 81 81    | 	byte	$81[7]
06309     80 80 80 80 
0630d     80 80       | 	byte	$80[6]
0630f     7F 7F 7F 7F 
06313     7F 7F 7F    | 	byte	$7f[7]
06316     7E 7E 7E 7E 
0631a     7E 7E 7E 7E 
0631e     7E 7E 7E 7E 
06322     7E 7E 7E 7E 
06326     7E 7E 7E 7E 
0632a     7E 7E 7E 7E | 	byte	$7e[24]
0632e     7F 7F 7F 7F 
06332     7F 7F       | 	byte	$7f[6]
06334     80 80 80 80 
06338     80 80       | 	byte	$80[6]
0633a     81 81 81 81 
0633e     81 81       | 	byte	$81[6]
06340     82 82 82 82 
06344     82 82 82 82 
06348     82 82 82 82 
0634c     82 82 82 82 
06350     82 82 82 82 
06354     82 82 82    | 	byte	$82[23]
06357     81 81 81 81 
0635b     81 81 81    | 	byte	$81[7]
0635e     80 80 80 80 
06362     80          | 	byte	$80[5]
06363     7F 7F 7F 7F 
06367     7F 7F 7F 7F | 	byte	$7f[8]
0636b     7E 7E 7E 7E 
0636f     7E 7E 7E 7E 
06373     7E 7E 7E 7E 
06377     7E 7E 7E 7E 
0637b     7E 7E 7E 7E 
0637f     7E 7E 7E    | 	byte	$7e[23]
06382     7F 7F 7F 7F 
06386     7F 7F       | 	byte	$7f[6]
06388     80 80 80 80 
0638c     80 80       | 	byte	$80[6]
0638e     81 81 81 81 
06392     81          | 	byte	$81[5]
06393     82 82 82 82 
06397     82 82 82 82 
0639b     82 82 82 82 
0639f     82 82 82 82 
063a3     82 82 82 82 
063a7     82 82 82 82 | 	byte	$82[24]
063ab     81 81 81 81 
063af     81 81       | 	byte	$81[6]
063b1     80 80 80 80 
063b5     80          | 	byte	$80[5]
063b6     7F 7F 7F 7F 
063ba     7F 7F 7F    | 	byte	$7f[7]
063bd     7E 7E 7E 7E 
063c1     7E 7E 7E 7E 
063c5     7E 7E 7E 7E 
063c9     7E 7E 7E 7E 
063cd     7E 7E 7E 7E 
063d1     7E 7E 7E 7E 
063d5     7E          | 	byte	$7e[25]
063d6     7F 7F 7F 7F 
063da     7F 7F       | 	byte	$7f[6]
063dc     80 80 80 80 
063e0     80 80       | 	byte	$80[6]
063e2     81 81 81 81 
063e6     82 82 82 82 
063ea     82 82 82 83 
063ee     82 83 83 83 | 	byte	$81, $81, $81, $81, $82, $82, $82, $82, $82, $82, $82, $83, $82, $83, $83, $83
063f2     83 83 83 82 
063f6     82 82 82 82 
063fa     82 82 82 82 
063fe     82 81 81 81 | 	byte	$83, $83, $83, $82, $82, $82, $82, $82, $82, $82, $82, $82, $82, $81, $81, $81
06402     81 81 81 80 
06406     80 80 80 80 
0640a     7F 7F 7F 7F 
0640e     7F 7F 7E 7E | 	byte	$81, $81, $81, $80, $80, $80, $80, $80, $7f, $7f, $7f, $7f, $7f, $7f, $7e, $7e
06412     7E 7E 7E 7E 
06416     7E 7E 7E 7E 
0641a     7E 7E 7E 7E 
0641e     7E 7E 7E 7E 
06422     7E 7E 7E 7E 
06426     7E 7E 7E 7E | 	byte	$7e[24]
0642a     7F 7F 7F 7F 
0642e     7F 7F       | 	byte	$7f[6]
06430     80 80 80 80 
06434     80          | 	byte	$80[5]
06435     81 81 81 81 
06439     82 82 82 82 
0643d     82 82 82 83 
06441     83 83 83 83 | 	byte	$81, $81, $81, $81, $82, $82, $82, $82, $82, $82, $82, $83, $83, $83, $83, $83
06445     83 83 83 83 
06449     83 83       | 	byte	$83[6]
0644b     82 82 82 82 
0644f     82 82 82 82 | 	byte	$82[8]
06453     81 81 81 81 
06457     81 81       | 	byte	$81[6]
06459     80 80 80 80 
0645d     80          | 	byte	$80[5]
0645e     7F 7F 7F 7F 
06462     7F          | 	byte	$7f[5]
06463     7E 7E 7E 7E 
06467     7E 7E 7E 7E 
0646b     7E          | 	byte	$7e[9]
0646c     7D 7E 7D 7D 
06470     7D 7D 7D 7E 
06474     7D 7D 7E 7E 
06478     7E 7E 7E 7E | 	byte	$7d, $7e, $7d, $7d, $7d, $7d, $7d, $7e, $7d, $7d, $7e, $7e, $7e, $7e, $7e, $7e
0647c     7E 7E 7E 7F 
06480     7F 7F 7F 7F 
06484     80 80 80 80 
06488     80 81 81 81 | 	byte	$7e, $7e, $7e, $7f, $7f, $7f, $7f, $7f, $80, $80, $80, $80, $80, $81, $81, $81
0648c     81 82 82 82 
06490     82 82 82 82 
06494     83 83 83 83 
06498     83 83 83 83 | 	byte	$81, $82, $82, $82, $82, $82, $82, $82, $83, $83, $83, $83, $83, $83, $83, $83
0649c     83 83 83 83 
064a0     83          | 	byte	$83[5]
064a1     82 82 82 82 
064a5     82 82 82    | 	byte	$82[7]
064a8     81 81 81 81 
064ac     81          | 	byte	$81[5]
064ad     80 80 80 80 
064b1     80          | 	byte	$80[5]
064b2     7F 7F 7F 7F 
064b6     7F 7F       | 	byte	$7f[6]
064b8     7E 7E 7E 7E 
064bc     7E 7E 7E    | 	byte	$7e[7]
064bf     7D 7D 7D 7D 
064c3     7D 7D 7D 7D 
064c7     7D 7D 7D 7D | 	byte	$7d[12]
064cb     7E 7E 7E 7E 
064cf     7E 7E 7E 7E 
064d3     7E          | 	byte	$7e[9]
064d4     7F 7F 7F 7F 
064d8     7F          | 	byte	$7f[5]
064d9     80 80 80 80 
064dd     81 81 81 81 
064e1     82 82 82 82 
064e5     82 82 83 83 | 	byte	$80, $80, $80, $80, $81, $81, $81, $81, $82, $82, $82, $82, $82, $82, $83, $83
064e9     83 83 83 83 
064ed     83 83 83 83 
064f1     83 83 83 83 
064f5     83          | 	byte	$83[13]
064f6     82 82 82 82 
064fa     82 82       | 	byte	$82[6]
064fc     81 81 81 81 
06500     81          | 	byte	$81[5]
06501     80 80 80 80 
06505     7F 7F 7F 7F 
06509     7F 7F 7E 7E 
0650d     7E 7E 7E 7E | 	byte	$80, $80, $80, $80, $7f, $7f, $7f, $7f, $7f, $7f, $7e, $7e, $7e, $7e, $7e, $7e
06511     7E 7D 7D 7D 
06515     7D 7D 7D 7D 
06519     7D 7D 7D 7D 
0651d     7D 7D 7D 7E | 	byte	$7e, $7d, $7d, $7d, $7d, $7d, $7d, $7d, $7d, $7d, $7d, $7d, $7d, $7d, $7d, $7e
06521     7E 7E 7E 7E 
06525     7E 7E 7E    | 	byte	$7e[7]
06528     7F 7F 7F 7F 
0652c     80 80 80 80 
06530     80 81 81 81 
06534     81 82 82 82 | 	byte	$7f, $7f, $7f, $7f, $80, $80, $80, $80, $80, $81, $81, $81, $81, $82, $82, $82
06538     82 82 83 83 
0653c     83 83 83 83 
06540     83 83 83 83 
06544     83 83 83 83 | 	byte	$82, $82, $83, $83, $83, $83, $83, $83, $83, $83, $83, $83, $83, $83, $83, $83
06548     83 83 83 82 
0654c     82 82 82 82 
06550     81 81 81 81 
06554     81 80 80 80 | 	byte	$83, $83, $83, $82, $82, $82, $82, $82, $81, $81, $81, $81, $81, $80, $80, $80
06558     80 80 7F 7F 
0655c     7F 7F 7E 7E 
06560     7E 7E 7E 7E 
06564     7E 7D 7D 7D | 	byte	$80, $80, $7f, $7f, $7f, $7f, $7e, $7e, $7e, $7e, $7e, $7e, $7e, $7d, $7d, $7d
06568     7D 7D 7D 7D 
0656c     7D 7D 7D 7D 
06570     7D 7D 7D 7D 
06574     7D          | 	byte	$7d[13]
06575     7E 7E 7E 7E 
06579     7E 7E 7E    | 	byte	$7e[7]
0657c     7F 7F 7F 7F 
06580     7F          | 	byte	$7f[5]
06581     80 80 80 80 
06585     81 81 81 81 
06589     82 82 82 82 
0658d     83 83 83 83 | 	byte	$80, $80, $80, $80, $81, $81, $81, $81, $82, $82, $82, $82, $83, $83, $83, $83
06591     83 83 83 83 
06595     83 83 83 83 
06599     83 83 83 83 
0659d     83 83       | 	byte	$83[14]
0659f     82 82 82 82 
065a3     82          | 	byte	$82[5]
065a4     81 81 81 81 
065a8     81          | 	byte	$81[5]
065a9     80 80 80 80 
065ad     7F 7F 7F 7F 
065b1     7F 7E 7E 7E 
065b5     7E 7E 7E 7D | 	byte	$80, $80, $80, $80, $7f, $7f, $7f, $7f, $7f, $7e, $7e, $7e, $7e, $7e, $7e, $7d
065b9     7E 7D 7D 7D 
065bd     7D 7D 7D 7D 
065c1     7D 7D 7D 7D 
065c5     7D 7D 7D 7D | 	byte	$7e, $7d, $7d, $7d, $7d, $7d, $7d, $7d, $7d, $7d, $7d, $7d, $7d, $7d, $7d, $7d
065c9     7D 7E 7E 7E 
065cd     7E 7E 7E 7F 
065d1     7F 7F 7F 7F 
065d5     80 80 80 80 | 	byte	$7d, $7e, $7e, $7e, $7e, $7e, $7e, $7f, $7f, $7f, $7f, $7f, $80, $80, $80, $80
065d9     81 81 81 81 
065dd     82 82 82 82 
065e1     83 83 83 83 
065e5     83 83 83 83 | 	byte	$81, $81, $81, $81, $82, $82, $82, $82, $83, $83, $83, $83, $83, $83, $83, $83
065e9     84 83 84 83 
065ed     83 83 83 83 
065f1     83 83 83 83 
065f5     82 82 82 82 | 	byte	$84, $83, $84, $83, $83, $83, $83, $83, $83, $83, $83, $83, $82, $82, $82, $82
065f9     81 81 81 81 
065fd     81          | 	byte	$81[5]
065fe     80 80 80 80 
06602     7F 7F 7F 7F 
06606     7E 7E 7E 7E 
0660a     7E 7E 7D 7D | 	byte	$80, $80, $80, $80, $7f, $7f, $7f, $7f, $7e, $7e, $7e, $7e, $7e, $7e, $7d, $7d
0660e     7D 7D 7D 7D 
06612     7D 7D 7D 7D 
06616     7D 7D 7D 7D 
0661a     7D 7D 7D 7D 
0661e     7D 7D       | 	byte	$7d[18]
06620     7E 7E 7E 7E 
06624     7E          | 	byte	$7e[5]
06625     7F 7F 7F 7F 
06629     80 80 80 80 
0662d     81 81 81 81 
06631     82 82 82 82 | 	byte	$7f, $7f, $7f, $7f, $80, $80, $80, $80, $81, $81, $81, $81, $82, $82, $82, $82
06635     83 83 83 83 
06639     83 83 83    | 	byte	$83[7]
0663c     84 84 84 84 
06640     83 84 83 83 
06644     83 83 83 83 
06648     83 82 82 82 | 	byte	$84, $84, $84, $84, $83, $84, $83, $83, $83, $83, $83, $83, $83, $82, $82, $82
0664c     82 82 81 81 
06650     81 81 80 80 
06654     80 80 7F 7F 
06658     7F 7F 7E 7E | 	byte	$82, $82, $81, $81, $81, $81, $80, $80, $80, $80, $7f, $7f, $7f, $7f, $7e, $7e
0665c     7E 7E 7E 7D 
06660     7D 7D 7D 7D 
06664     7D 7D 7D 7D 
06668     7D 7D 7D 7D | 	byte	$7e, $7e, $7e, $7d, $7d, $7d, $7d, $7d, $7d, $7d, $7d, $7d, $7d, $7d, $7d, $7d
0666c     7D 7D 7D 7D 
06670     7D 7D 7D    | 	byte	$7d[7]
06673     7E 7E 7E 7E 
06677     7E 7E       | 	byte	$7e[6]
06679     7F 7F 7F 7F 
0667d     80 80 80 80 
06681     81 81 81 81 
06685     82 82 82 82 | 	byte	$7f, $7f, $7f, $7f, $80, $80, $80, $80, $81, $81, $81, $81, $82, $82, $82, $82
06689     83 83 83 83 
0668d     83 83 83    | 	byte	$83[7]
06690     84 84 84 84 
06694     84 84 84    | 	byte	$84[7]
06697     83 83 83 83 
0669b     83 83 83    | 	byte	$83[7]
0669e     82 82 82 82 
066a2     81 81 81 81 
066a6     80 80 80 80 
066aa     7F 7F 7F 7F | 	byte	$82, $82, $82, $82, $81, $81, $81, $81, $80, $80, $80, $80, $7f, $7f, $7f, $7f
066ae     7E 7E 7E 7E 
066b2     7E 7E       | 	byte	$7e[6]
066b4     7D 7D 7D 7D 
066b8     7D 7D 7D 7D 
066bc     7D 7D 7D 7D 
066c0     7D 7D 7D 7D 
066c4     7D 7D 7D 7D 
066c8     7D          | 	byte	$7d[21]
066c9     7E 7E 7E 7E 
066cd     7E          | 	byte	$7e[5]
066ce     7F 7F 7F 7F 
066d2     80 80 80 80 
066d6     81 81 81 82 
066da     82 82 82 83 | 	byte	$7f, $7f, $7f, $7f, $80, $80, $80, $80, $81, $81, $81, $82, $82, $82, $82, $83
066de     83 83 83 83 
066e2     83          | 	byte	$83[5]
066e3     84 84 84 84 
066e7     84 84 84 84 
066eb     84          | 	byte	$84[9]
066ec     83 83 83 83 
066f0     83 83 83    | 	byte	$83[7]
066f3     82 82 82 82 
066f7     81 81 81 81 
066fb     80 80 80 80 
066ff     7F 7F 7F 7F | 	byte	$82, $82, $82, $82, $81, $81, $81, $81, $80, $80, $80, $80, $7f, $7f, $7f, $7f
06703     7E 7E 7E 7E 
06707     7E          | 	byte	$7e[5]
06708     7D 7D 7D 7D 
0670c     7D 7D 7D 7D 
06710     7D 7D 7D 7D 
06714     7D 7D 7D 7D 
06718     7D 7D 7D 7D 
0671c     7D          | 	byte	$7d[21]
0671d     7E 7E 7E 7E 
06721     7E          | 	byte	$7e[5]
06722     7F 7F 7F 7F 
06726     80 80 80 80 
0672a     81 81 81 81 
0672e     82 82 82 82 | 	byte	$7f, $7f, $7f, $7f, $80, $80, $80, $80, $81, $81, $81, $81, $82, $82, $82, $82
06732     83 83 83 83 
06736     84 84 84 84 
0673a     84 84 84 84 
0673e     84 84 84 83 | 	byte	$83, $83, $83, $83, $84, $84, $84, $84, $84, $84, $84, $84, $84, $84, $84, $83
06742     83 83 83 83 
06746     83          | 	byte	$83[5]
06747     82 82 82 82 
0674b     81 81 81 81 
0674f     80 80 80 80 
06753     7F 7F 7F 7F | 	byte	$82, $82, $82, $82, $81, $81, $81, $81, $80, $80, $80, $80, $7f, $7f, $7f, $7f
06757     7E 7E 7E 7E 
0675b     7E          | 	byte	$7e[5]
0675c     7D 7D 7D 7D 
06760     7D 7D 7D 7D 
06764     7D          | 	byte	$7d[9]
06765     7C 7C 7C 7C 
06769     7D 7D 7D 7D 
0676d     7D 7D 7D 7D 
06771     7D 7E 7E 7E | 	byte	$7c, $7c, $7c, $7c, $7d, $7d, $7d, $7d, $7d, $7d, $7d, $7d, $7d, $7e, $7e, $7e
06775     7E 7E 7F 7F 
06779     7F 7F 80 80 
0677d     80 80 81 81 
06781     81 82 82 82 | 	byte	$7e, $7e, $7f, $7f, $7f, $7f, $80, $80, $80, $80, $81, $81, $81, $82, $82, $82
06785     82 83 83 83 
06789     83 84 84 84 
0678d     84 84 84 84 
06791     84 84 84 84 | 	byte	$82, $83, $83, $83, $83, $84, $84, $84, $84, $84, $84, $84, $84, $84, $84, $84
06795     84 83 83 83 
06799     83 83 83 82 
0679d     82 82 82 81 
067a1     81 81 80 80 | 	byte	$84, $83, $83, $83, $83, $83, $83, $82, $82, $82, $82, $81, $81, $81, $80, $80
067a5     80 80 7F 7F 
067a9     7F 7F 7E 7E 
067ad     7E 7E 7E 7D 
067b1     7D 7D 7D 7D | 	byte	$80, $80, $7f, $7f, $7f, $7f, $7e, $7e, $7e, $7e, $7e, $7d, $7d, $7d, $7d, $7d
067b5     7D 7D 7D 7C 
067b9     7C 7C 7C 7C 
067bd     7C 7D 7D 7D 
067c1     7D 7D 7D 7D | 	byte	$7d, $7d, $7d, $7c, $7c, $7c, $7c, $7c, $7c, $7d, $7d, $7d, $7d, $7d, $7d, $7d
067c5     7D 7D 7E 7E 
067c9     7E 7E 7F 7F 
067cd     7F 7F 80 80 
067d1     80 80 81 81 | 	byte	$7d, $7d, $7e, $7e, $7e, $7e, $7f, $7f, $7f, $7f, $80, $80, $80, $80, $81, $81
067d5     81 82 82 82 
067d9     82 83 83 83 
067dd     83 83 84 84 
067e1     84 84 84 84 | 	byte	$81, $82, $82, $82, $82, $83, $83, $83, $83, $83, $84, $84, $84, $84, $84, $84
067e5     84 84 84 84 
067e9     84 84       | 	byte	$84[6]
067eb     83 83 83 83 
067ef     83          | 	byte	$83[5]
067f0     82 82 82 82 
067f4     81 81 81 81 
067f8     80 80 80 7F 
067fc     7F 7F 7F 7E | 	byte	$82, $82, $82, $82, $81, $81, $81, $81, $80, $80, $80, $7f, $7f, $7f, $7f, $7e
06800     7E 7E 7E 7E 
06804     7D 7D 7D 7D 
06808     7D 7D 7C 7D 
0680c     7C 7C 7C 7C | 	byte	$7e, $7e, $7e, $7e, $7d, $7d, $7d, $7d, $7d, $7d, $7c, $7d, $7c, $7c, $7c, $7c
06810     7C 7C 7C 7C 
06814     7D 7D 7D 7D 
06818     7D 7D 7D 7E 
0681c     7E 7E 7E 7E | 	byte	$7c, $7c, $7c, $7c, $7d, $7d, $7d, $7d, $7d, $7d, $7d, $7e, $7e, $7e, $7e, $7e
06820     7F 7F 7F 7F 
06824     80 80 80 81 
06828     81 81 81 82 
0682c     82 82 83 83 | 	byte	$7f, $7f, $7f, $7f, $80, $80, $80, $81, $81, $81, $81, $82, $82, $82, $83, $83
06830     83 83 83 84 
06834     84 84 84 84 
06838     84 84 84 84 
0683c     84 84 84 84 | 	byte	$83, $83, $83, $84, $84, $84, $84, $84, $84, $84, $84, $84, $84, $84, $84, $84
06840     84 83 83 83 
06844     83 83 82 82 
06848     82 81 81 81 
0684c     80 80 80 80 | 	byte	$84, $83, $83, $83, $83, $83, $82, $82, $82, $81, $81, $81, $80, $80, $80, $80
06850     7F 7F 7F 7F 
06854     7E 7E 7E 7E 
06858     7D 7D 7D 7D 
0685c     7D 7D 7C 7C | 	byte	$7f, $7f, $7f, $7f, $7e, $7e, $7e, $7e, $7d, $7d, $7d, $7d, $7d, $7d, $7c, $7c
06860     7D 7C 7C 7C 
06864     7C 7C 7C 7C 
06868     7C 7D 7D 7D 
0686c     7D 7D 7D 7D | 	byte	$7d, $7c, $7c, $7c, $7c, $7c, $7c, $7c, $7c, $7d, $7d, $7d, $7d, $7d, $7d, $7d
06870     7E 7E 7E 7E 
06874     7F 7F 7F 7F 
06878     80 80 80 80 
0687c     81 81 81 82 | 	byte	$7e, $7e, $7e, $7e, $7f, $7f, $7f, $7f, $80, $80, $80, $80, $81, $81, $81, $82
06880     82 82 83 83 
06884     83 83 83 84 
06888     84 84 84 84 
0688c     84 84 84 84 | 	byte	$82, $82, $83, $83, $83, $83, $83, $84, $84, $84, $84, $84, $84, $84, $84, $84
06890     84 84 84 84 
06894     84          | 	byte	$84[5]
06895     83 83 83 83 
06899     82 82 82 82 
0689d     81 81 81 81 
068a1     80 80 80 7F | 	byte	$83, $83, $83, $83, $82, $82, $82, $82, $81, $81, $81, $81, $80, $80, $80, $7f
068a5     7F 7F 7F 7E 
068a9     7E 7E 7E 7D 
068ad     7D 7D 7D 7D 
068b1     7D 7C 7C 7C | 	byte	$7f, $7f, $7f, $7e, $7e, $7e, $7e, $7d, $7d, $7d, $7d, $7d, $7d, $7c, $7c, $7c
068b5     7C 7C 7C 7C 
068b9     7C 7C 7C 7C 
068bd     7C          | 	byte	$7c[9]
068be     7D 7D 7D 7D 
068c2     7D 7D 7D    | 	byte	$7d[7]
068c5     7E 7E 7E 7E 
068c9     7F 7F 7F 7F 
068cd     80 80 80 81 
068d1     81 81 82 82 | 	byte	$7e, $7e, $7e, $7e, $7f, $7f, $7f, $7f, $80, $80, $80, $81, $81, $81, $82, $82
068d5     82 82 83 83 
068d9     83 83 84 84 
068dd     84 84 84 84 
068e1     84 84 84 84 | 	byte	$82, $82, $83, $83, $83, $83, $84, $84, $84, $84, $84, $84, $84, $84, $84, $84
068e5     84 84 84 84 
068e9     84          | 	byte	$84[5]
068ea     83 83 83 83 
068ee     82 82 82 82 
068f2     81 81 81 81 
068f6     80 80 80 7F | 	byte	$83, $83, $83, $83, $82, $82, $82, $82, $81, $81, $81, $81, $80, $80, $80, $7f
068fa     7F 7F 7F 7E 
068fe     7E 7E 7E 7D 
06902     7D 7D 7D 7D 
06906     7D 7C 7C 7C | 	byte	$7f, $7f, $7f, $7e, $7e, $7e, $7e, $7d, $7d, $7d, $7d, $7d, $7d, $7c, $7c, $7c
0690a     7C 7C 7C 7C 
0690e     7C 7C 7C 7C 
06912     7C          | 	byte	$7c[9]
06913     7D 7D 7D 7D 
06917     7D 7D       | 	byte	$7d[6]
06919     7E 7E 7E 7E 
0691d     7E          | 	byte	$7e[5]
0691e     7F 7F 7F 80 
06922     80 80 80 81 
06926     81 81 82 82 
0692a     82 83 83 83 | 	byte	$7f, $7f, $7f, $80, $80, $80, $80, $81, $81, $81, $82, $82, $82, $83, $83, $83
0692e     83 84 84 84 
06932     84 84 84 84 
06936     84 84 84 84 
0693a     84 84 84 84 | 	byte	$83, $84, $84, $84, $84, $84, $84, $84, $84, $84, $84, $84, $84, $84, $84, $84
0693e     83 83 83 83 
06942     83          | 	byte	$83[5]
06943     82 82 82 81 
06947     81 81 81 80 
0694b     80 80 7F 7F 
0694f     7F 7F 7E 7E | 	byte	$82, $82, $82, $81, $81, $81, $81, $80, $80, $80, $7f, $7f, $7f, $7f, $7e, $7e
06953     7E 7E 7D 7D 
06957     7D 7D 7D 7D 
0695b     7C 7C 7C 7C 
0695f     7C 7C 7C 7C | 	byte	$7e, $7e, $7d, $7d, $7d, $7d, $7d, $7d, $7c, $7c, $7c, $7c, $7c, $7c, $7c, $7c
06963     7C 7C 7C 7C 
06967     7D 7D 7D 7D 
0696b     7D 7D 7D 7E 
0696f     7E 7E 7E 7F | 	byte	$7c, $7c, $7c, $7c, $7d, $7d, $7d, $7d, $7d, $7d, $7d, $7e, $7e, $7e, $7e, $7f
06973     7F 7F 80 80 
06977     80 80 81 81 
0697b     81 82 82 82 
0697f     83 83 83 83 | 	byte	$7f, $7f, $80, $80, $80, $80, $81, $81, $81, $82, $82, $82, $83, $83, $83, $83
06983     84 84 84 84 
06987     84 84 84 84 
0698b     84 84 84 84 
0698f     84 84 84 84 | 	byte	$84[16]
06993     83 83 83 83 
06997     83          | 	byte	$83[5]
06998     82 82 82 81 
0699c     81 81 80 80 
069a0     80 80 7F 7F 
069a4     7F 7E 7E 7E | 	byte	$82, $82, $82, $81, $81, $81, $80, $80, $80, $80, $7f, $7f, $7f, $7e, $7e, $7e
069a8     7E 7D 7D 7D 
069ac     7D 7D 7D 7C 
069b0     7C 7C 7C 7C 
069b4     7C 7C 7C 7C | 	byte	$7e, $7d, $7d, $7d, $7d, $7d, $7d, $7c, $7c, $7c, $7c, $7c, $7c, $7c, $7c, $7c
069b8     7C 7C 7C 7C 
069bc     7C          | 	byte	$7c[5]
069bd     7D 7D 7D 7D 
069c1     7D 7D       | 	byte	$7d[6]
069c3     7E 7E 7E 7E 
069c7     7F 7F 7F 80 
069cb     80 80 81 81 
069cf     81 81 82 82 | 	byte	$7e, $7e, $7e, $7e, $7f, $7f, $7f, $80, $80, $80, $81, $81, $81, $81, $82, $82
069d3     82 83 83 83 
069d7     83 84 84 84 
069db     84 84 84 84 
069df     84 84 84 84 | 	byte	$82, $83, $83, $83, $83, $84, $84, $84, $84, $84, $84, $84, $84, $84, $84, $84
069e3     84 84 84 84 
069e7     84          | 	byte	$84[5]
069e8     83 83 83 83 
069ec     82 82 82 81 
069f0     81 81 81 80 
069f4     80 80 7F 7F | 	byte	$83, $83, $83, $83, $82, $82, $82, $81, $81, $81, $81, $80, $80, $80, $7f, $7f
069f8     7F 7E 7E 7E 
069fc     7E 7E 7D 7D 
06a00     7D 7D 7D 7C 
06a04     7C 7C 7C 7C | 	byte	$7f, $7e, $7e, $7e, $7e, $7e, $7d, $7d, $7d, $7d, $7d, $7c, $7c, $7c, $7c, $7c
06a08     7C 7C 7C 7C 
06a0c     7C 7C 7C 7C | 	byte	$7c[8]
06a10     7D 7D 7D 7D 
06a14     7D 7D       | 	byte	$7d[6]
06a16     7E 7E 7E 7E 
06a1a     7E          | 	byte	$7e[5]
06a1b     7F 7F 7F 7F 
06a1f     80 80 80 81 
06a23     81 81 82 82 
06a27     82 83 83 83 | 	byte	$7f, $7f, $7f, $7f, $80, $80, $80, $81, $81, $81, $82, $82, $82, $83, $83, $83
06a2b     83 84 84 84 
06a2f     84 84 84 85 
06a33     85 84 84 84 
06a37     84 84 84 84 | 	byte	$83, $84, $84, $84, $84, $84, $84, $85, $85, $84, $84, $84, $84, $84, $84, $84
06a3b     84 83 83 83 
06a3f     83 83 82 82 
06a43     82 81 81 81 
06a47     80 80 80 80 | 	byte	$84, $83, $83, $83, $83, $83, $82, $82, $82, $81, $81, $81, $80, $80, $80, $80
06a4b     7F 7F 7F 7E 
06a4f     7E 7E 7E 7D 
06a53     7D 7D 7D 7D 
06a57     7C 7C 7C 7C | 	byte	$7f, $7f, $7f, $7e, $7e, $7e, $7e, $7d, $7d, $7d, $7d, $7d, $7c, $7c, $7c, $7c
06a5b     7C 7C 7C 7C 
06a5f     7C 7C 7C 7C 
06a63     7C 7C 7C    | 	byte	$7c[11]
06a66     7D 7D 7D 7D 
06a6a     7D 7D       | 	byte	$7d[6]
06a6c     7E 7E 7E 7E 
06a70     7F 7F 7F 80 
06a74     80 80 80 81 
06a78     81 82 82 82 | 	byte	$7e, $7e, $7e, $7e, $7f, $7f, $7f, $80, $80, $80, $80, $81, $81, $82, $82, $82
06a7c     82 83 83 83 
06a80     83 84 84 84 
06a84     84 84 84 85 
06a88     84 84 84 84 | 	byte	$82, $83, $83, $83, $83, $84, $84, $84, $84, $84, $84, $85, $84, $84, $84, $84
06a8c     84 84 84 84 
06a90     84          | 	byte	$84[5]
06a91     83 83 83 83 
06a95     82 82 82 81 
06a99     81 81 81 80 
06a9d     80 80 7F 7F | 	byte	$83, $83, $83, $83, $82, $82, $82, $81, $81, $81, $81, $80, $80, $80, $7f, $7f
06aa1     7F 7F 7E 7E 
06aa5     7E 7D 7D 7D 
06aa9     7D 7D 7D 7C 
06aad     7C 7C 7C 7C | 	byte	$7f, $7f, $7e, $7e, $7e, $7d, $7d, $7d, $7d, $7d, $7d, $7c, $7c, $7c, $7c, $7c
06ab1     7C 7C 7C 7C 
06ab5     7C 7C 7C 7C 
06ab9     7C 7C       | 	byte	$7c[10]
06abb     7D 7D 7D 7D 
06abf     7D          | 	byte	$7d[5]
06ac0     7E 7E 7E 7E 
06ac4     7F 7F 7F 80 
06ac8     80 80 80 81 
06acc     81 81 82 82 | 	byte	$7e, $7e, $7e, $7e, $7f, $7f, $7f, $80, $80, $80, $80, $81, $81, $81, $82, $82
06ad0     83 83 83 83 
06ad4     84 84 84 84 
06ad8     84 84 84 85 
06adc     85 85 85 84 | 	byte	$83, $83, $83, $83, $84, $84, $84, $84, $84, $84, $84, $85, $85, $85, $85, $84
06ae0     84 84 84 84 
06ae4     84 84       | 	byte	$84[6]
06ae6     83 83 83 83 
06aea     82 82 82 81 
06aee     81 81 80 80 
06af2     80 80 7F 7F | 	byte	$83, $83, $83, $83, $82, $82, $82, $81, $81, $81, $80, $80, $80, $80, $7f, $7f
06af6     7F 7E 7E 7E 
06afa     7E 7D 7D 7D 
06afe     7D 7D 7C 7C 
06b02     7C 7C 7C 7C | 	byte	$7f, $7e, $7e, $7e, $7e, $7d, $7d, $7d, $7d, $7d, $7c, $7c, $7c, $7c, $7c, $7c
06b06     7C 7C 7C 7C 
06b0a     7C 7C 7C 7C 
06b0e     7C 7C       | 	byte	$7c[10]
06b10     7D 7D 7D 7D 
06b14     7D          | 	byte	$7d[5]
06b15     7E 7E 7E 7E 
06b19     7F 7F 7F 7F 
06b1d     80 80 81 81 
06b21     81 81 82 82 | 	byte	$7e, $7e, $7e, $7e, $7f, $7f, $7f, $7f, $80, $80, $81, $81, $81, $81, $82, $82
06b25     82 83 83 83 
06b29     84 84 84 84 
06b2d     84 84 84 84 
06b31     85 85 84 84 | 	byte	$82, $83, $83, $83, $84, $84, $84, $84, $84, $84, $84, $84, $85, $85, $84, $84
06b35     84 84 84 84 
06b39     84          | 	byte	$84[5]
06b3a     83 83 83 83 
06b3e     82 82 82 82 
06b42     81 81 81 80 
06b46     80 80 7F 7F | 	byte	$83, $83, $83, $83, $82, $82, $82, $82, $81, $81, $81, $80, $80, $80, $7f, $7f
06b4a     7F 7F 7E 7E 
06b4e     7E 7D 7D 7D 
06b52     7D 7D 7D 7C 
06b56     7C 7C 7C 7C | 	byte	$7f, $7f, $7e, $7e, $7e, $7d, $7d, $7d, $7d, $7d, $7d, $7c, $7c, $7c, $7c, $7c
06b5a     7C 7C 7C 7C 
06b5e     7C 7C 7C 7C 
06b62     7C 7C       | 	byte	$7c[10]
06b64     7D 7D 7D 7D 
06b68     7D          | 	byte	$7d[5]
06b69     7E 7E 7E 7E 
06b6d     7F 7F 7F 80 
06b71     80 80 80 81 
06b75     81 81 82 82 | 	byte	$7e, $7e, $7e, $7e, $7f, $7f, $7f, $80, $80, $80, $80, $81, $81, $81, $82, $82
06b79     82 83 83 83 
06b7d     83 84 84 84 
06b81     84 84 85 85 
06b85     85 85 85 84 | 	byte	$82, $83, $83, $83, $83, $84, $84, $84, $84, $84, $85, $85, $85, $85, $85, $84
06b89     84 84 84 84 
06b8d     84 84       | 	byte	$84[6]
06b8f     83 83 83 83 
06b93     82 82 82 81 
06b97     81 81 80 80 
06b9b     80 80 7F 7F | 	byte	$83, $83, $83, $83, $82, $82, $82, $81, $81, $81, $80, $80, $80, $80, $7f, $7f
06b9f     7F 7E 7E 7E 
06ba3     7E 7D 7D 7D 
06ba7     7D 7D 7C 7C 
06bab     7C 7C 7C 7C | 	byte	$7f, $7e, $7e, $7e, $7e, $7d, $7d, $7d, $7d, $7d, $7c, $7c, $7c, $7c, $7c, $7c
06baf     7C 7C 7C 7C 
06bb3     7C 7C 7C 7C 
06bb7     7C 7C       | 	byte	$7c[10]
06bb9     7D 7D 7D 7D 
06bbd     7D          | 	byte	$7d[5]
06bbe     7E 7E 7E 7E 
06bc2     7F 7F 7F 80 
06bc6     80 80 81 81 
06bca     81 82 82 82 | 	byte	$7e, $7e, $7e, $7e, $7f, $7f, $7f, $80, $80, $80, $81, $81, $81, $82, $82, $82
06bce     82 83 83 83 
06bd2     84 84 84 84 
06bd6     84 84 85 85 
06bda     85 85 85 85 | 	byte	$82, $83, $83, $83, $84, $84, $84, $84, $84, $84, $85, $85, $85, $85, $85, $85
06bde     84 84 84 84 
06be2     84          | 	byte	$84[5]
06be3     83 83 83 83 
06be7     83          | 	byte	$83[5]
06be8     82 82 82 81 
06bec     81 81 80 80 
06bf0     80 80 7F 7F 
06bf4     7F 7E 7E 7E | 	byte	$82, $82, $82, $81, $81, $81, $80, $80, $80, $80, $7f, $7f, $7f, $7e, $7e, $7e
06bf8     7D 7D 7D 7D 
06bfc     7D 7D       | 	byte	$7d[6]
06bfe     7C 7C 7C 7C 
06c02     7C 7C 7C 7C 
06c06     7C 7C 7C 7C 
06c0a     7C 7C 7C    | 	byte	$7c[15]
06c0d     7D 7D 7D 7D 
06c11     7D          | 	byte	$7d[5]
06c12     7E 7E 7E 7E 
06c16     7F 7F 7F 7F 
06c1a     80 80 80 81 
06c1e     81 81 82 82 | 	byte	$7e, $7e, $7e, $7e, $7f, $7f, $7f, $7f, $80, $80, $80, $81, $81, $81, $82, $82
06c22     82 83 83 83 
06c26     83 84 84 84 
06c2a     84 84 85 85 
06c2e     85 85 85 85 | 	byte	$82, $83, $83, $83, $83, $84, $84, $84, $84, $84, $85, $85, $85, $85, $85, $85
06c32     84 84 84 84 
06c36     84 84       | 	byte	$84[6]
06c38     83 83 83 83 
06c3c     82 82 82 81 
06c40     81 81 80 80 
06c44     80 7F 7F 7F | 	byte	$83, $83, $83, $83, $82, $82, $82, $81, $81, $81, $80, $80, $80, $7f, $7f, $7f
06c48     7F 7E 7E 7E 
06c4c     7E 7D 7D 7D 
06c50     7D 7D 7C 7C 
06c54     7C 7C 7C 7C | 	byte	$7f, $7e, $7e, $7e, $7e, $7d, $7d, $7d, $7d, $7d, $7c, $7c, $7c, $7c, $7c, $7c
06c58     7C 7C 7C 7C 
06c5c     7C 7C 7C 7C 
06c60     7C 7C       | 	byte	$7c[10]
06c62     7D 7D 7D 7D 
06c66     7D          | 	byte	$7d[5]
06c67     7E 7E 7E 7E 
06c6b     7F 7F 7F 80 
06c6f     80 80 81 81 
06c73     81 82 82 82 | 	byte	$7e, $7e, $7e, $7e, $7f, $7f, $7f, $80, $80, $80, $81, $81, $81, $82, $82, $82
06c77     83 83 83 83 
06c7b     84 84 84 84 
06c7f     84 85 85 85 
06c83     85 85 85 84 | 	byte	$83, $83, $83, $83, $84, $84, $84, $84, $84, $85, $85, $85, $85, $85, $85, $84
06c87     84 84 84 84 
06c8b     84 84       | 	byte	$84[6]
06c8d     83 83 83 83 
06c91     82 82 82 81 
06c95     81 81 80 80 
06c99     80 7F 7F 7F | 	byte	$83, $83, $83, $83, $82, $82, $82, $81, $81, $81, $80, $80, $80, $7f, $7f, $7f
06c9d     7F 7E 7E 7E 
06ca1     7D 7D 7D 7D 
06ca5     7D 7D 7C 7C 
06ca9     7C 7C 7C 7C | 	byte	$7f, $7e, $7e, $7e, $7d, $7d, $7d, $7d, $7d, $7d, $7c, $7c, $7c, $7c, $7c, $7c
06cad     7C 7C 7C 7C 
06cb1     7C 7C 7C 7C 
06cb5     7C 7C       | 	byte	$7c[10]
06cb7     7D 7D 7D 7D 
06cbb     7D          | 	byte	$7d[5]
06cbc     7E 7E 7E 7F 
06cc0     7F 7F 7F 80 
06cc4     80 80 81 81 
06cc8     81 82 82 82 | 	byte	$7e, $7e, $7e, $7f, $7f, $7f, $7f, $80, $80, $80, $81, $81, $81, $82, $82, $82
06ccc     83 83 83 84 
06cd0     84 84 84 84 
06cd4     84 85 85 85 
06cd8     85 85 85 84 | 	byte	$83, $83, $83, $84, $84, $84, $84, $84, $84, $85, $85, $85, $85, $85, $85, $84
06cdc     84 84 84 84 
06ce0     84          | 	byte	$84[5]
06ce1     83 83 83 83 
06ce5     82 82 82 81 
06ce9     81 81 80 80 
06ced     80 80 7F 7F | 	byte	$83, $83, $83, $83, $82, $82, $82, $81, $81, $81, $80, $80, $80, $80, $7f, $7f
06cf1     7F 7E 7E 7E 
06cf5     7E 7D 7D 7D 
06cf9     7D 7C 7C 7C 
06cfd     7C 7C 7C 7C | 	byte	$7f, $7e, $7e, $7e, $7e, $7d, $7d, $7d, $7d, $7c, $7c, $7c, $7c, $7c, $7c, $7c
06d01     7C 7C 7C 7C 
06d05     7C 7C 7C 7C 
06d09     7C 7C       | 	byte	$7c[10]
06d0b     7D 7D 7D 7D 
06d0f     7D          | 	byte	$7d[5]
06d10     7E 7E 7E 7E 
06d14     7F 7F 7F 80 
06d18     80 80 81 81 
06d1c     81 82 82 82 | 	byte	$7e, $7e, $7e, $7e, $7f, $7f, $7f, $80, $80, $80, $81, $81, $81, $82, $82, $82
06d20     83 83 83 83 
06d24     84 84 84 84 
06d28     84 85 85 85 
06d2c     85 85 85 85 | 	byte	$83, $83, $83, $83, $84, $84, $84, $84, $84, $85, $85, $85, $85, $85, $85, $85
06d30     84 84 84 84 
06d34     84 84       | 	byte	$84[6]
06d36     83 83 83 83 
06d3a     82 82 82 81 
06d3e     81 81 80 80 
06d42     80 80 7F 7F | 	byte	$83, $83, $83, $83, $82, $82, $82, $81, $81, $81, $80, $80, $80, $80, $7f, $7f
06d46     7F 7E 7E 7E 
06d4a     7E 7D 7D 7D 
06d4e     7D 7D 7C 7C 
06d52     7C 7C 7C 7C | 	byte	$7f, $7e, $7e, $7e, $7e, $7d, $7d, $7d, $7d, $7d, $7c, $7c, $7c, $7c, $7c, $7c
06d56     7C 7C 7C 7C 
06d5a     7C 7C 7C 7C 
06d5e     7C 7C       | 	byte	$7c[10]
06d60     7D 7D 7D 7D 
06d64     7D          | 	byte	$7d[5]
06d65     7E 7E 7E 7F 
06d69     7F 7F 7F 80 
06d6d     80 80 81 81 
06d71     81 82 82 82 | 	byte	$7e, $7e, $7e, $7f, $7f, $7f, $7f, $80, $80, $80, $81, $81, $81, $82, $82, $82
06d75     83 83 83 83 
06d79     84 84 84 84 
06d7d     84 85 84 85 
06d81     85 85 85 84 | 	byte	$83, $83, $83, $83, $84, $84, $84, $84, $84, $85, $84, $85, $85, $85, $85, $84
06d85     84 84 84 84 
06d89     84          | 	byte	$84[5]
06d8a     83 83 83 83 
06d8e     82 82 82 81 
06d92     81 81 80 80 
06d96     80 7F 7F 7F | 	byte	$83, $83, $83, $83, $82, $82, $82, $81, $81, $81, $80, $80, $80, $7f, $7f, $7f
06d9a     7F 7E 7E 7E 
06d9e     7E 7D 7D 7D 
06da2     7D 7D 7C 7C 
06da6     7C 7C 7C 7C | 	byte	$7f, $7e, $7e, $7e, $7e, $7d, $7d, $7d, $7d, $7d, $7c, $7c, $7c, $7c, $7c, $7c
06daa     7C 7C 7C 7C 
06dae     7C 7C 7C 7C 
06db2     7C 7C       | 	byte	$7c[10]
06db4     7D 7D 7D 7D 
06db8     7D          | 	byte	$7d[5]
06db9     7E 7E 7E 7E 
06dbd     7F 7F 7F 80 
06dc1     80 80 81 81 
06dc5     81 82 82 82 | 	byte	$7e, $7e, $7e, $7e, $7f, $7f, $7f, $80, $80, $80, $81, $81, $81, $82, $82, $82
06dc9     83 83 83 83 
06dcd     84 84 84 84 
06dd1     85 85 85 85 
06dd5     85 85 85 84 | 	byte	$83, $83, $83, $83, $84, $84, $84, $84, $85, $85, $85, $85, $85, $85, $85, $84
06dd9     84 84 84 84 
06ddd     84 84       | 	byte	$84[6]
06ddf     83 83 83 82 
06de3     82 82 82 81 
06de7     81 81 80 80 
06deb     80 80 7F 7F | 	byte	$83, $83, $83, $82, $82, $82, $82, $81, $81, $81, $80, $80, $80, $80, $7f, $7f
06def     7F 7E 7E 7E 
06df3     7E 7D 7D 7D 
06df7     7D 7D 7C 7C 
06dfb     7C 7C 7C 7C | 	byte	$7f, $7e, $7e, $7e, $7e, $7d, $7d, $7d, $7d, $7d, $7c, $7c, $7c, $7c, $7c, $7c
06dff     7C 7C 7C 7C 
06e03     7C 7C 7C 7C 
06e07     7C 7C       | 	byte	$7c[10]
06e09     7D 7D 7D 7D 
06e0d     7D          | 	byte	$7d[5]
06e0e     7E 7E 7E 7E 
06e12     7F 7F 7F 80 
06e16     80 80 81 81 
06e1a     81 82 82 82 | 	byte	$7e, $7e, $7e, $7e, $7f, $7f, $7f, $80, $80, $80, $81, $81, $81, $82, $82, $82
06e1e     83 83 83 83 
06e22     84 84 84 84 
06e26     84 84 84 85 
06e2a     85 85 85 84 | 	byte	$83, $83, $83, $83, $84, $84, $84, $84, $84, $84, $84, $85, $85, $85, $85, $84
06e2e     84 84 84 84 
06e32     84          | 	byte	$84[5]
06e33     83 83 83 83 
06e37     82 82 82 81 
06e3b     81 81 80 80 
06e3f     80 80 7F 7F | 	byte	$83, $83, $83, $83, $82, $82, $82, $81, $81, $81, $80, $80, $80, $80, $7f, $7f
06e43     7F 7E 7E 7E 
06e47     7E 7D 7D 7D 
06e4b     7D 7D 7C 7C 
06e4f     7C 7C 7C 7C | 	byte	$7f, $7e, $7e, $7e, $7e, $7d, $7d, $7d, $7d, $7d, $7c, $7c, $7c, $7c, $7c, $7c
06e53     7C 7C 7C 7C 
06e57     7C 7C 7C 7C 
06e5b     7C 7C       | 	byte	$7c[10]
06e5d     7D 7D 7D 7D 
06e61     7D          | 	byte	$7d[5]
06e62     7E 7E 7E 7E 
06e66     7F 7F 7F 80 
06e6a     80 80 81 81 
06e6e     81 82 82 82 | 	byte	$7e, $7e, $7e, $7e, $7f, $7f, $7f, $80, $80, $80, $81, $81, $81, $82, $82, $82
06e72     83 83 83 83 
06e76     84 84 84 84 
06e7a     84 85 85 85 
06e7e     85 85 85 85 | 	byte	$83, $83, $83, $83, $84, $84, $84, $84, $84, $85, $85, $85, $85, $85, $85, $85
06e82     84 84 84 84 
06e86     84 84       | 	byte	$84[6]
06e88     83 83 83 83 
06e8c     82 82 82 81 
06e90     81 81 80 80 
06e94     80 7F 7F 7F | 	byte	$83, $83, $83, $83, $82, $82, $82, $81, $81, $81, $80, $80, $80, $7f, $7f, $7f
06e98     7F 7E 7E 7E 
06e9c     7D 7D 7D 7D 
06ea0     7D 7C 7C 7C 
06ea4     7C 7C 7C 7C | 	byte	$7f, $7e, $7e, $7e, $7d, $7d, $7d, $7d, $7d, $7c, $7c, $7c, $7c, $7c, $7c, $7c
06ea8     7C 7C 7C 7C 
06eac     7C 7C 7C 7C 
06eb0     7C 7C       | 	byte	$7c[10]
06eb2     7D 7D 7D 7D 
06eb6     7D          | 	byte	$7d[5]
06eb7     7E 7E 7E 7E 
06ebb     7F 7F 7F 80 
06ebf     80 80 81 81 
06ec3     81 82 82 82 | 	byte	$7e, $7e, $7e, $7e, $7f, $7f, $7f, $80, $80, $80, $81, $81, $81, $82, $82, $82
06ec7     83 83 83 83 
06ecb     84 84 84 84 
06ecf     84 84 85 85 
06ed3     85 85 84 84 | 	byte	$83, $83, $83, $83, $84, $84, $84, $84, $84, $84, $85, $85, $85, $85, $84, $84
06ed7     84 84 84 84 
06edb     84          | 	byte	$84[5]
06edc     83 83 83 83 
06ee0     82 82 82 81 
06ee4     81 81 81 80 
06ee8     80 80 7F 7F | 	byte	$83, $83, $83, $83, $82, $82, $82, $81, $81, $81, $81, $80, $80, $80, $7f, $7f
06eec     7F 7E 7E 7E 
06ef0     7E 7D 7D 7D 
06ef4     7D 7D 7C 7C 
06ef8     7C 7C 7C 7C | 	byte	$7f, $7e, $7e, $7e, $7e, $7d, $7d, $7d, $7d, $7d, $7c, $7c, $7c, $7c, $7c, $7c
06efc     7C 7C 7C 7C 
06f00     7C 7C 7C 7C 
06f04     7C 7C       | 	byte	$7c[10]
06f06     7D 7D 7D 7D 
06f0a     7D          | 	byte	$7d[5]
06f0b     7E 7E 7E 7E 
06f0f     7F 7F 7F 80 
06f13     80 80 81 81 
06f17     81 82 82 82 | 	byte	$7e, $7e, $7e, $7e, $7f, $7f, $7f, $80, $80, $80, $81, $81, $81, $82, $82, $82
06f1b     83 83 83 83 
06f1f     84 84 84 84 
06f23     84 84 85 85 
06f27     85 85 85 85 | 	byte	$83, $83, $83, $83, $84, $84, $84, $84, $84, $84, $85, $85, $85, $85, $85, $85
06f2b     84 84 84 84 
06f2f     84 84       | 	byte	$84[6]
06f31     83 83 83 82 
06f35     82 82 82 81 
06f39     81 81 80 80 
06f3d     80 7F 7F 7F | 	byte	$83, $83, $83, $82, $82, $82, $82, $81, $81, $81, $80, $80, $80, $7f, $7f, $7f
06f41     7E 7E 7E 7E 
06f45     7D 7D 7D 7D 
06f49     7D 7C 7C 7C 
06f4d     7C 7C 7C 7C | 	byte	$7e, $7e, $7e, $7e, $7d, $7d, $7d, $7d, $7d, $7c, $7c, $7c, $7c, $7c, $7c, $7c
06f51     7C 7C 7C 7C 
06f55     7C 7C 7C 7C 
06f59     7C 7C       | 	byte	$7c[10]
06f5b     7D 7D 7D 7D 
06f5f     7D          | 	byte	$7d[5]
06f60     7E 7E 7E 7E 
06f64     7F 7F 7F 80 
06f68     80 80 81 81 
06f6c     81 82 82 82 | 	byte	$7e, $7e, $7e, $7e, $7f, $7f, $7f, $80, $80, $80, $81, $81, $81, $82, $82, $82
06f70     83 83 83 83 
06f74     84 84 84 84 
06f78     84 84 85 84 
06f7c     85 85 84 84 | 	byte	$83, $83, $83, $83, $84, $84, $84, $84, $84, $84, $85, $84, $85, $85, $84, $84
06f80     84 84 84 84 
06f84     84          | 	byte	$84[5]
06f85     83 83 83 83 
06f89     82 82 82 82 
06f8d     81 81 81 80 
06f91     80 80 7F 7F | 	byte	$83, $83, $83, $83, $82, $82, $82, $82, $81, $81, $81, $80, $80, $80, $7f, $7f
06f95     7F 7E 7E 7E 
06f99     7E 7E 7D 7D 
06f9d     7D 7D 7D 7C 
06fa1     7C 7C 7C 7C | 	byte	$7f, $7e, $7e, $7e, $7e, $7e, $7d, $7d, $7d, $7d, $7d, $7c, $7c, $7c, $7c, $7c
06fa5     7C 7C 7C 7C 
06fa9     7C 7C 7C 7C 
06fad     7C 7C       | 	byte	$7c[10]
06faf     7D 7D 7D 7D 
06fb3     7D          | 	byte	$7d[5]
06fb4     7E 7E 7E 7E 
06fb8     7F 7F 7F 80 
06fbc     80 80 81 81 
06fc0     81 82 82 82 | 	byte	$7e, $7e, $7e, $7e, $7f, $7f, $7f, $80, $80, $80, $81, $81, $81, $82, $82, $82
06fc4     83 83 83 83 
06fc8     84 84 84 84 
06fcc     84 85 85 85 
06fd0     85 85 85 85 | 	byte	$83, $83, $83, $83, $84, $84, $84, $84, $84, $85, $85, $85, $85, $85, $85, $85
06fd4     84 84 84 84 
06fd8     84 84       | 	byte	$84[6]
06fda     83 83 83 83 
06fde     82 82 82 81 
06fe2     81 81 80 80 
06fe6     80 7F 7F 7F | 	byte	$83, $83, $83, $83, $82, $82, $82, $81, $81, $81, $80, $80, $80, $7f, $7f, $7f
06fea     7E 7E 7E 7E 
06fee     7D 7D 7D 7D 
06ff2     7D 7C 7C 7C 
06ff6     7C 7C 7C 7C | 	byte	$7e, $7e, $7e, $7e, $7d, $7d, $7d, $7d, $7d, $7c, $7c, $7c, $7c, $7c, $7c, $7c
06ffa     7C 7C 7C 7C 
06ffe     7C 7C 7C 7C 
07002     7C 7C       | 	byte	$7c[10]
07004     7D 7D 7D 7D 
07008     7D          | 	byte	$7d[5]
07009     7E 7E 7E 7E 
0700d     7F 7F 7F 80 
07011     80 80 81 81 
07015     81 82 82 82 | 	byte	$7e, $7e, $7e, $7e, $7f, $7f, $7f, $80, $80, $80, $81, $81, $81, $82, $82, $82
07019     83 83 83 83 
0701d     84 84 84 84 
07021     84 84 85 85 
07025     85 85 84 84 | 	byte	$83, $83, $83, $83, $84, $84, $84, $84, $84, $84, $85, $85, $85, $85, $84, $84
07029     84 84 84 84 
0702d     84          | 	byte	$84[5]
0702e     83 83 83 83 
07032     82 82 82 82 
07036     81 81 81 80 
0703a     80 80 7F 7F | 	byte	$83, $83, $83, $83, $82, $82, $82, $82, $81, $81, $81, $80, $80, $80, $7f, $7f
0703e     7F 7F 7E 7E 
07042     7E 7D 7D 7D 
07046     7D 7D 7D 7C 
0704a     7C 7C 7C 7C | 	byte	$7f, $7f, $7e, $7e, $7e, $7d, $7d, $7d, $7d, $7d, $7d, $7c, $7c, $7c, $7c, $7c
0704e     7C 7C 7C 7C 
07052     7C 7C 7C 7C 
07056     7C 7C       | 	byte	$7c[10]
07058     7D 7D 7D 7D 
0705c     7D          | 	byte	$7d[5]
0705d     7E 7E 7E 7E 
07061     7F 7F 7F 80 
07065     80 80 81 81 
07069     81 81 82 82 | 	byte	$7e, $7e, $7e, $7e, $7f, $7f, $7f, $80, $80, $80, $81, $81, $81, $81, $82, $82
0706d     83 83 83 83 
07071     84 84 84 84 
07075     84 84 85 84 
07079     85 85 85 84 | 	byte	$83, $83, $83, $83, $84, $84, $84, $84, $84, $84, $85, $84, $85, $85, $85, $84
0707d     84 84 84 84 
07081     84          | 	byte	$84[5]
07082     83 83 83 83 
07086     83          | 	byte	$83[5]
07087     82 82 82 81 
0708b     81 81 80 80 
0708f     80 7F 7F 7F 
07093     7F 7E 7E 7E | 	byte	$82, $82, $82, $81, $81, $81, $80, $80, $80, $7f, $7f, $7f, $7f, $7e, $7e, $7e
07097     7D 7D 7D 7D 
0709b     7D          | 	byte	$7d[5]
0709c     7C 7C 7C 7C 
070a0     7C 7C 7C 7C 
070a4     7C 7C 7C 7C 
070a8     7C 7C 7C 7C 
070ac     7C          | 	byte	$7c[17]
070ad     7D 7D 7D 7D 
070b1     7D          | 	byte	$7d[5]
070b2     7E 7E 7E 7E 
070b6     7F 7F 7F 80 
070ba     80 80 81 81 
070be     81 82 82 82 | 	byte	$7e, $7e, $7e, $7e, $7f, $7f, $7f, $80, $80, $80, $81, $81, $81, $82, $82, $82
070c2     83 83 83 84 
070c6     84 84 84 84 
070ca     84 85 85 84 
070ce     85 85 84 84 | 	byte	$83, $83, $83, $84, $84, $84, $84, $84, $84, $85, $85, $84, $85, $85, $84, $84
070d2     84 84 84 84 
070d6     84          | 	byte	$84[5]
070d7     83 83 83 83 
070db     82 82 82 82 
070df     81 81 81 80 
070e3     80 80 7F 7F | 	byte	$83, $83, $83, $83, $82, $82, $82, $82, $81, $81, $81, $80, $80, $80, $7f, $7f
070e7     7F 7F 7E 7E 
070eb     7E 7E 7D 7D 
070ef     7D 7D 7D 7C 
070f3     7C 7C 7C 7C | 	byte	$7f, $7f, $7e, $7e, $7e, $7e, $7d, $7d, $7d, $7d, $7d, $7c, $7c, $7c, $7c, $7c
070f7     7C 7C 7C 7C 
070fb     7C 7C 7C 7C 
070ff     7C 7C 7C    | 	byte	$7c[11]
07102     7D 7D 7D 7D 
07106     7E 7E 7E 7E 
0710a     7F 7F 7F 80 
0710e     80 80 80 81 | 	byte	$7d, $7d, $7d, $7d, $7e, $7e, $7e, $7e, $7f, $7f, $7f, $80, $80, $80, $80, $81
07112     81 81 82 82 
07116     82 83 83 83 
0711a     83 84 84 84 
0711e     84 84 84 84 | 	byte	$81, $81, $82, $82, $82, $83, $83, $83, $83, $84, $84, $84, $84, $84, $84, $84
07122     85 84 84 84 
07126     84 84 84 84 
0712a     84 83 83 83 
0712e     83 82 82 82 | 	byte	$85, $84, $84, $84, $84, $84, $84, $84, $84, $83, $83, $83, $83, $82, $82, $82
07132     82 81 81 81 
07136     80 80 80 7F 
0713a     7F 7F 7F 7E 
0713e     7E 7E 7E 7D | 	byte	$82, $81, $81, $81, $80, $80, $80, $7f, $7f, $7f, $7f, $7e, $7e, $7e, $7e, $7d
07142     7D 7D 7D 7D 
07146     7C 7C 7C 7C 
0714a     7C 7C 7C 7C 
0714e     7C 7C 7C 7C | 	byte	$7d, $7d, $7d, $7d, $7c, $7c, $7c, $7c, $7c, $7c, $7c, $7c, $7c, $7c, $7c, $7c
07152     7C 7C 7C 7D 
07156     7D 7D 7D 7D 
0715a     7D 7E 7E 7E 
0715e     7E 7F 7F 7F | 	byte	$7c, $7c, $7c, $7d, $7d, $7d, $7d, $7d, $7d, $7e, $7e, $7e, $7e, $7f, $7f, $7f
07162     80 80 80 81 
07166     81 81 82 82 
0716a     82 83 83 83 
0716e     83 84 84 84 | 	byte	$80, $80, $80, $81, $81, $81, $82, $82, $82, $83, $83, $83, $83, $84, $84, $84
07172     84 84 84 84 
07176     84          | 	byte	$84[5]
07177     85 85 84 84 
0717b     84 84 84 84 
0717f     84 83 83 83 
07183     83 82 82 82 | 	byte	$85, $85, $84, $84, $84, $84, $84, $84, $84, $83, $83, $83, $83, $82, $82, $82
07187     82 81 81 81 
0718b     80 80 80 80 
0718f     7F 7F 7F 7E 
07193     7E 7E 7E 7D | 	byte	$82, $81, $81, $81, $80, $80, $80, $80, $7f, $7f, $7f, $7e, $7e, $7e, $7e, $7d
07197     7D 7D 7D 7D 
0719b     7C 7C 7C 7C 
0719f     7C 7C 7C 7C 
071a3     7C 7C 7C 7C | 	byte	$7d, $7d, $7d, $7d, $7c, $7c, $7c, $7c, $7c, $7c, $7c, $7c, $7c, $7c, $7c, $7c
071a7     7C 7C 7C 7D 
071ab     7D 7D 7D 7D 
071af     7D 7E 7E 7E 
071b3     7F 7F 7F 7F | 	byte	$7c, $7c, $7c, $7d, $7d, $7d, $7d, $7d, $7d, $7e, $7e, $7e, $7f, $7f, $7f, $7f
071b7     80 80 80 81 
071bb     81 81 82 82 
071bf     82 83 83 83 
071c3     84 84 84 84 | 	byte	$80, $80, $80, $81, $81, $81, $82, $82, $82, $83, $83, $83, $84, $84, $84, $84
071c7     84 84 84 84 
071cb     84 84 84 84 
071cf     84 84 84 84 
071d3     84          | 	byte	$84[13]
071d4     83 83 83 83 
071d8     82 82 82 82 
071dc     81 81 81 80 
071e0     80 80 7F 7F | 	byte	$83, $83, $83, $83, $82, $82, $82, $82, $81, $81, $81, $80, $80, $80, $7f, $7f
071e4     7F 7F 7E 7E 
071e8     7E 7E 7D 7D 
071ec     7D 7D 7D 7C 
071f0     7C 7C 7C 7C | 	byte	$7f, $7f, $7e, $7e, $7e, $7e, $7d, $7d, $7d, $7d, $7d, $7c, $7c, $7c, $7c, $7c
071f4     7C 7C 7C 7C 
071f8     7C 7C 7C 7C 
071fc     7C 7C 7C    | 	byte	$7c[11]
071ff     7D 7D 7D 7D 
07203     7D          | 	byte	$7d[5]
07204     7E 7E 7E 7E 
07208     7F 7F 7F 80 
0720c     80 80 81 81 
07210     81 82 82 82 | 	byte	$7e, $7e, $7e, $7e, $7f, $7f, $7f, $80, $80, $80, $81, $81, $81, $82, $82, $82
07214     83 83 83 84 
07218     84 84 84 84 
0721c     84 84 84 84 
07220     85 85 84 84 | 	byte	$83, $83, $83, $84, $84, $84, $84, $84, $84, $84, $84, $84, $85, $85, $84, $84
07224     84 84 84 84 
07228     84          | 	byte	$84[5]
07229     83 83 83 83 
0722d     82 82 82 82 
07231     81 81 81 80 
07235     80 80 7F 7F | 	byte	$83, $83, $83, $83, $82, $82, $82, $82, $81, $81, $81, $80, $80, $80, $7f, $7f
07239     7F 7F 7E 7E 
0723d     7E 7E 7D 7D 
07241     7D 7D 7D 7C 
07245     7C 7C 7C 7C | 	byte	$7f, $7f, $7e, $7e, $7e, $7e, $7d, $7d, $7d, $7d, $7d, $7c, $7c, $7c, $7c, $7c
07249     7C 7C 7C 7C 
0724d     7C 7C 7C 7C 
07251     7C 7C       | 	byte	$7c[10]
07253     7D 7D 7D 7D 
07257     7D          | 	byte	$7d[5]
07258     7E 7E 7E 7E 
0725c     7F 7F 7F 7F 
07260     80 80 80 81 
07264     81 81 82 82 | 	byte	$7e, $7e, $7e, $7e, $7f, $7f, $7f, $7f, $80, $80, $80, $81, $81, $81, $82, $82
07268     82 83 83 83 
0726c     83 84 84 84 
07270     84 84 84 84 
07274     84 84 84 84 | 	byte	$82, $83, $83, $83, $83, $84, $84, $84, $84, $84, $84, $84, $84, $84, $84, $84
07278     84 84 84 84 
0727c     84          | 	byte	$84[5]
0727d     83 83 83 83 
07281     82 82 82 82 
07285     81 81 81 80 
07289     80 80 80 7F | 	byte	$83, $83, $83, $83, $82, $82, $82, $82, $81, $81, $81, $80, $80, $80, $80, $7f
0728d     7F 7F 7E 7E 
07291     7E 7E 7D 7D 
07295     7D 7D 7D 7D 
07299     7C 7C 7C 7C | 	byte	$7f, $7f, $7e, $7e, $7e, $7e, $7d, $7d, $7d, $7d, $7d, $7d, $7c, $7c, $7c, $7c
0729d     7C 7C 7C 7C 
072a1     7C 7C 7C 7C 
072a5     7C 7C       | 	byte	$7c[10]
072a7     7D 7D 7D 7D 
072ab     7D 7D       | 	byte	$7d[6]
072ad     7E 7E 7E 7E 
072b1     7F 7F 7F 80 
072b5     80 80 81 81 
072b9     81 82 82 82 | 	byte	$7e, $7e, $7e, $7e, $7f, $7f, $7f, $80, $80, $80, $81, $81, $81, $82, $82, $82
072bd     83 83 83 83 
072c1     84 84 84 84 
072c5     84 84 84 84 
072c9     84 84 84 84 | 	byte	$83, $83, $83, $83, $84, $84, $84, $84, $84, $84, $84, $84, $84, $84, $84, $84
072cd     84 84 84 84 
072d1     84          | 	byte	$84[5]
072d2     83 83 83 83 
072d6     82 82 82 82 
072da     81 81 81 80 
072de     80 80 7F 7F | 	byte	$83, $83, $83, $83, $82, $82, $82, $82, $81, $81, $81, $80, $80, $80, $7f, $7f
072e2     7F 7F 7E 7E 
072e6     7E 7E 7D 7D 
072ea     7D 7D 7D 7C 
072ee     7C 7C 7C 7C | 	byte	$7f, $7f, $7e, $7e, $7e, $7e, $7d, $7d, $7d, $7d, $7d, $7c, $7c, $7c, $7c, $7c
072f2     7C 7C 7C 7C 
072f6     7C 7C 7C 7C 
072fa     7C 7C 7C    | 	byte	$7c[11]
072fd     7D 7D 7D 7D 
07301     7E 7E 7E 7E 
07305     7E 7F 7F 7F 
07309     80 80 80 81 | 	byte	$7d, $7d, $7d, $7d, $7e, $7e, $7e, $7e, $7e, $7f, $7f, $7f, $80, $80, $80, $81
0730d     81 81 82 82 
07311     82 82 83 83 
07315     83 84 84 84 
07319     84 84 84 84 | 	byte	$81, $81, $82, $82, $82, $82, $83, $83, $83, $84, $84, $84, $84, $84, $84, $84
0731d     84 84 84 84 
07321     84 84 84 84 
07325     84          | 	byte	$84[9]
07326     83 83 83 83 
0732a     82 82 82 82 
0732e     81 81 81 80 
07332     80 80 80 7F | 	byte	$83, $83, $83, $83, $82, $82, $82, $82, $81, $81, $81, $80, $80, $80, $80, $7f
07336     7F 7F 7E 7E 
0733a     7E 7E 7E 7D 
0733e     7D 7D 7D 7D 
07342     7C 7C 7C 7C | 	byte	$7f, $7f, $7e, $7e, $7e, $7e, $7e, $7d, $7d, $7d, $7d, $7d, $7c, $7c, $7c, $7c
07346     7C 7C 7C 7C 
0734a     7C 7C 7C 7C 
0734e     7C 7C       | 	byte	$7c[10]
07350     7D 7D 7D 7D 
07354     7D          | 	byte	$7d[5]
07355     7E 7E 7E 7E 
07359     7E          | 	byte	$7e[5]
0735a     7F 7F 7F 80 
0735e     80 80 81 81 
07362     81 82 82 82 
07366     83 83 83 83 | 	byte	$7f, $7f, $7f, $80, $80, $80, $81, $81, $81, $82, $82, $82, $83, $83, $83, $83
0736a     84 84 84 84 
0736e     84 84 84 84 
07372     84 84 84 84 
07376     84 84 84 84 
0737a     84          | 	byte	$84[17]
0737b     83 83 83 83 
0737f     82 82 82 81 
07383     81 81 81 80 
07387     80 80 7F 7F | 	byte	$83, $83, $83, $83, $82, $82, $82, $81, $81, $81, $81, $80, $80, $80, $7f, $7f
0738b     7F 7E 7E 7E 
0738f     7E 7E 7D 7D 
07393     7D 7D 7D 7D 
07397     7C 7C 7C 7C | 	byte	$7f, $7e, $7e, $7e, $7e, $7e, $7d, $7d, $7d, $7d, $7d, $7d, $7c, $7c, $7c, $7c
0739b     7C 7C 7C 7C 
0739f     7C 7C 7C 7C 
073a3     7C 7C       | 	byte	$7c[10]
073a5     7D 7D 7D 7D 
073a9     7D          | 	byte	$7d[5]
073aa     7E 7E 7E 7E 
073ae     7F 7F 7F 7F 
073b2     80 80 80 81 
073b6     81 81 82 82 | 	byte	$7e, $7e, $7e, $7e, $7f, $7f, $7f, $7f, $80, $80, $80, $81, $81, $81, $82, $82
073ba     82 82 83 83 
073be     83 84 84 84 
073c2     84 84 84 84 
073c6     84 84 84 84 | 	byte	$82, $82, $83, $83, $83, $84, $84, $84, $84, $84, $84, $84, $84, $84, $84, $84
073ca     84 84 84 84 
073ce     84          | 	byte	$84[5]
073cf     83 83 83 83 
073d3     83          | 	byte	$83[5]
073d4     82 82 82 81 
073d8     81 81 81 80 
073dc     80 80 7F 7F 
073e0     7F 7F 7E 7E | 	byte	$82, $82, $82, $81, $81, $81, $81, $80, $80, $80, $7f, $7f, $7f, $7f, $7e, $7e
073e4     7E 7E 7D 7D 
073e8     7D 7D 7D 7D 
073ec     7D 7C 7C 7C 
073f0     7C 7C 7C 7C | 	byte	$7e, $7e, $7d, $7d, $7d, $7d, $7d, $7d, $7d, $7c, $7c, $7c, $7c, $7c, $7c, $7c
073f4     7C 7C 7C 7C 
073f8     7C          | 	byte	$7c[5]
073f9     7D 7D 7D 7D 
073fd     7D          | 	byte	$7d[5]
073fe     7E 7E 7E 7E 
07402     7F 7F 7F 7F 
07406     80 80 80 81 
0740a     81 81 82 82 | 	byte	$7e, $7e, $7e, $7e, $7f, $7f, $7f, $7f, $80, $80, $80, $81, $81, $81, $82, $82
0740e     82 82 83 83 
07412     83 83 84 84 
07416     84 84 84 84 
0741a     84 84 84 84 | 	byte	$82, $82, $83, $83, $83, $83, $84, $84, $84, $84, $84, $84, $84, $84, $84, $84
0741e     84 84 84 84 
07422     84          | 	byte	$84[5]
07423     83 83 83 83 
07427     82 82 82 82 
0742b     81 81 81 81 
0742f     80 80 80 7F | 	byte	$83, $83, $83, $83, $82, $82, $82, $82, $81, $81, $81, $81, $80, $80, $80, $7f
07433     7F 7F 7F 7E 
07437     7E 7E 7E 7D 
0743b     7D 7D 7D 7D 
0743f     7C 7C 7C 7C | 	byte	$7f, $7f, $7f, $7e, $7e, $7e, $7e, $7d, $7d, $7d, $7d, $7d, $7c, $7c, $7c, $7c
07443     7C 7C 7C 7C 
07447     7C 7C 7C 7C 
0744b     7C 7C       | 	byte	$7c[10]
0744d     7D 7D 7D 7D 
07451     7D 7D       | 	byte	$7d[6]
07453     7E 7E 7E 7E 
07457     7F 7F 7F 7F 
0745b     80 80 80 81 
0745f     81 81 82 82 | 	byte	$7e, $7e, $7e, $7e, $7f, $7f, $7f, $7f, $80, $80, $80, $81, $81, $81, $82, $82
07463     82 83 83 83 
07467     83 84 84 84 
0746b     84 84 84 84 
0746f     84 84 84 84 | 	byte	$82, $83, $83, $83, $83, $84, $84, $84, $84, $84, $84, $84, $84, $84, $84, $84
07473     84 84 84 84 
07477     84          | 	byte	$84[5]
07478     83 83 83 83 
0747c     82 82 82 82 
07480     81 81 81 81 
07484     80 80 80 7F | 	byte	$83, $83, $83, $83, $82, $82, $82, $82, $81, $81, $81, $81, $80, $80, $80, $7f
07488     7F 7F 7F 7E 
0748c     7E 7E 7E 7D 
07490     7D 7D 7D 7D 
07494     7D 7C 7C 7C | 	byte	$7f, $7f, $7f, $7e, $7e, $7e, $7e, $7d, $7d, $7d, $7d, $7d, $7d, $7c, $7c, $7c
07498     7C 7C 7C 7C 
0749c     7C 7C 7C 7C 
074a0     7C          | 	byte	$7c[9]
074a1     7D 7D 7D 7D 
074a5     7D 7D       | 	byte	$7d[6]
074a7     7E 7E 7E 7E 
074ab     7E          | 	byte	$7e[5]
074ac     7F 7F 7F 80 
074b0     80 80 81 81 
074b4     81 82 82 82 
074b8     82 83 83 83 | 	byte	$7f, $7f, $7f, $80, $80, $80, $81, $81, $81, $82, $82, $82, $82, $83, $83, $83
074bc     83 84 84 84 
074c0     84 84 84 84 
074c4     84 84 84 84 
074c8     84 84 84 84 | 	byte	$83, $84, $84, $84, $84, $84, $84, $84, $84, $84, $84, $84, $84, $84, $84, $84
074cc     83 83 83 83 
074d0     82 82 82 82 
074d4     81 81 81 81 
074d8     80 80 80 7F | 	byte	$83, $83, $83, $83, $82, $82, $82, $82, $81, $81, $81, $81, $80, $80, $80, $7f
074dc     7F 7F 7F 7E 
074e0     7E 7E 7E 7D 
074e4     7D 7D 7D 7D 
074e8     7D 7C 7C 7C | 	byte	$7f, $7f, $7f, $7e, $7e, $7e, $7e, $7d, $7d, $7d, $7d, $7d, $7d, $7c, $7c, $7c
074ec     7C 7C 7C 7C 
074f0     7C 7C 7C 7C 
074f4     7C 7C 7C    | 	byte	$7c[11]
074f7     7D 7D 7D 7D 
074fb     7D          | 	byte	$7d[5]
074fc     7E 7E 7E 7E 
07500     7F 7F 7F 7F 
07504     80 80 80 81 
07508     81 81 82 82 | 	byte	$7e, $7e, $7e, $7e, $7f, $7f, $7f, $7f, $80, $80, $80, $81, $81, $81, $82, $82
0750c     82 83 83 83 
07510     83 84 84 84 
07514     84 84 84 84 
07518     84 84 84 84 | 	byte	$82, $83, $83, $83, $83, $84, $84, $84, $84, $84, $84, $84, $84, $84, $84, $84
0751c     84 84 84 84 
07520     84          | 	byte	$84[5]
07521     83 83 83 83 
07525     82 82 82 82 
07529     81 81 81 81 
0752d     80 80 80 7F | 	byte	$83, $83, $83, $83, $82, $82, $82, $82, $81, $81, $81, $81, $80, $80, $80, $7f
07531     7F 7F 7F 7E 
07535     7E 7E 7E 7E 
07539     7D 7D 7D 7D 
0753d     7D 7D 7C 7C | 	byte	$7f, $7f, $7f, $7e, $7e, $7e, $7e, $7e, $7d, $7d, $7d, $7d, $7d, $7d, $7c, $7c
07541     7C 7C 7C 7C 
07545     7C 7C 7C 7C 
07549     7C          | 	byte	$7c[9]
0754a     7D 7D 7D 7D 
0754e     7D 7D 7D    | 	byte	$7d[7]
07551     7E 7E 7E 7E 
07555     7F 7F 7F 80 
07559     80 80 80 81 
0755d     81 81 82 82 | 	byte	$7e, $7e, $7e, $7e, $7f, $7f, $7f, $80, $80, $80, $80, $81, $81, $81, $82, $82
07561     82 83 83 83 
07565     83 84 84 84 
07569     84 84 84 84 
0756d     84 84 84 84 | 	byte	$82, $83, $83, $83, $83, $84, $84, $84, $84, $84, $84, $84, $84, $84, $84, $84
07571     84 84 84 84 
07575     83 83 83 83 
07579     82 82 82 82 
0757d     82 81 81 81 | 	byte	$84, $84, $84, $84, $83, $83, $83, $83, $82, $82, $82, $82, $82, $81, $81, $81
07581     80 80 80 7F 
07585     7F 7F 7F 7E 
07589     7E 7E 7E 7D 
0758d     7D 7D 7D 7D | 	byte	$80, $80, $80, $7f, $7f, $7f, $7f, $7e, $7e, $7e, $7e, $7d, $7d, $7d, $7d, $7d
07591     7D 7C 7C 7C 
07595     7C 7C 7C 7C 
07599     7C 7C 7C 7C 
0759d     7C 7C 7D 7D | 	byte	$7d, $7c, $7c, $7c, $7c, $7c, $7c, $7c, $7c, $7c, $7c, $7c, $7c, $7c, $7d, $7d
075a1     7D 7D 7D 7D 
075a5     7E 7E 7E 7E 
075a9     7F 7F 7F 7F 
075ad     80 80 80 81 | 	byte	$7d, $7d, $7d, $7d, $7e, $7e, $7e, $7e, $7f, $7f, $7f, $7f, $80, $80, $80, $81
075b1     81 81 82 82 
075b5     82 83 83 83 
075b9     83 84 84 84 
075bd     84 84 84 84 | 	byte	$81, $81, $82, $82, $82, $83, $83, $83, $83, $84, $84, $84, $84, $84, $84, $84
075c1     84 84 84 84 
075c5     84 84 84 84 
075c9     84          | 	byte	$84[9]
075ca     83 83 83 83 
075ce     82 82 82 82 
075d2     81 81 81 81 
075d6     80 80 80 7F | 	byte	$83, $83, $83, $83, $82, $82, $82, $82, $81, $81, $81, $81, $80, $80, $80, $7f
075da     7F 7F 7F 7E 
075de     7E 7E 7E 7D 
075e2     7D 7D 7D 7D 
075e6     7D 7D 7C 7C | 	byte	$7f, $7f, $7f, $7e, $7e, $7e, $7e, $7d, $7d, $7d, $7d, $7d, $7d, $7d, $7c, $7c
075ea     7C 7C 7C 7C 
075ee     7C 7C 7C 7C | 	byte	$7c[8]
075f2     7D 7D 7D 7D 
075f6     7D 7D 7D 7D | 	byte	$7d[8]
075fa     7E 7E 7E 7E 
075fe     7F 7F 7F 80 
07602     80 80 80 81 
07606     81 81 82 82 | 	byte	$7e, $7e, $7e, $7e, $7f, $7f, $7f, $80, $80, $80, $80, $81, $81, $81, $82, $82
0760a     82 83 83 83 
0760e     83 83 84 84 
07612     84 84 84 84 
07616     84 84 84 84 | 	byte	$82, $83, $83, $83, $83, $83, $84, $84, $84, $84, $84, $84, $84, $84, $84, $84
0761a     84 84 84 83 
0761e     83 83 83 83 
07622     82 82 82 82 
07626     81 81 81 81 | 	byte	$84, $84, $84, $83, $83, $83, $83, $83, $82, $82, $82, $82, $81, $81, $81, $81
0762a     80 80 80 80 
0762e     7F 7F 7F 7E 
07632     7E 7E 7E 7D 
07636     7D 7D 7D 7D | 	byte	$80, $80, $80, $80, $7f, $7f, $7f, $7e, $7e, $7e, $7e, $7d, $7d, $7d, $7d, $7d
0763a     7D 7D 7D 7C 
0763e     7C 7C 7C 7C 
07642     7C 7C 7C 7C 
07646     7D 7D 7D 7D | 	byte	$7d, $7d, $7d, $7c, $7c, $7c, $7c, $7c, $7c, $7c, $7c, $7c, $7d, $7d, $7d, $7d
0764a     7D 7D 7D 7D 
0764e     7E 7E 7E 7E 
07652     7F 7F 7F 7F 
07656     80 80 80 81 | 	byte	$7d, $7d, $7d, $7d, $7e, $7e, $7e, $7e, $7f, $7f, $7f, $7f, $80, $80, $80, $81
0765a     81 81 82 82 
0765e     82 82 83 83 
07662     83 83 84 84 
07666     84 84 84 84 | 	byte	$81, $81, $82, $82, $82, $82, $83, $83, $83, $83, $84, $84, $84, $84, $84, $84
0766a     84 84 84 84 
0766e     84 84 84 84 | 	byte	$84[8]
07672     83 83 83 83 
07676     83          | 	byte	$83[5]
07677     82 82 82 82 
0767b     81 81 81 81 
0767f     80 80 80 7F 
07683     7F 7F 7F 7E | 	byte	$82, $82, $82, $82, $81, $81, $81, $81, $80, $80, $80, $7f, $7f, $7f, $7f, $7e
07687     7E 7E 7E 7D 
0768b     7D 7D 7D 7D 
0768f     7D 7D 7C 7C 
07693     7C 7C 7C 7C | 	byte	$7e, $7e, $7e, $7d, $7d, $7d, $7d, $7d, $7d, $7d, $7c, $7c, $7c, $7c, $7c, $7c
07697     7C 7C 7C 7C 
0769b     7D 7D 7D 7D 
0769f     7D 7D 7D 7E 
076a3     7E 7E 7E 7E | 	byte	$7c, $7c, $7c, $7c, $7d, $7d, $7d, $7d, $7d, $7d, $7d, $7e, $7e, $7e, $7e, $7e
076a7     7F 7F 7F 80 
076ab     80 80 81 81 
076af     81 81 82 82 
076b3     82 83 83 83 | 	byte	$7f, $7f, $7f, $80, $80, $80, $81, $81, $81, $81, $82, $82, $82, $83, $83, $83
076b7     83 83 84 84 
076bb     84 84 84 84 
076bf     84 84 84 84 
076c3     84 84 84 83 | 	byte	$83, $83, $84, $84, $84, $84, $84, $84, $84, $84, $84, $84, $84, $84, $84, $83
076c7     83 83 83 83 
076cb     83          | 	byte	$83[5]
076cc     82 82 82 81 
076d0     81 81 81 80 
076d4     80 80 80 7F 
076d8     7F 7F 7F 7E | 	byte	$82, $82, $82, $81, $81, $81, $81, $80, $80, $80, $80, $7f, $7f, $7f, $7f, $7e
076dc     7E 7E 7E 7D 
076e0     7D 7D 7D 7D 
076e4     7D 7D 7C 7C 
076e8     7C 7C 7C 7C | 	byte	$7e, $7e, $7e, $7d, $7d, $7d, $7d, $7d, $7d, $7d, $7c, $7c, $7c, $7c, $7c, $7c
076ec     7C 7C 7C 7D 
076f0     7D 7D 7D 7D 
076f4     7D 7D 7E 7E 
076f8     7E 7E 7E 7F | 	byte	$7c, $7c, $7c, $7d, $7d, $7d, $7d, $7d, $7d, $7d, $7e, $7e, $7e, $7e, $7e, $7f
076fc     7F 7F 80 80 
07700     80 80 81 81 
07704     81 82 82 82 
07708     82 83 83 83 | 	byte	$7f, $7f, $80, $80, $80, $80, $81, $81, $81, $82, $82, $82, $82, $83, $83, $83
0770c     83 84 84 84 
07710     84 84 84 84 
07714     84 84 84 84 
07718     84 84 84 83 | 	byte	$83, $84, $84, $84, $84, $84, $84, $84, $84, $84, $84, $84, $84, $84, $84, $83
0771c     83 83 83 83 
07720     82 82 82 82 
07724     81 81 81 81 
07728     80 80 80 7F | 	byte	$83, $83, $83, $83, $82, $82, $82, $82, $81, $81, $81, $81, $80, $80, $80, $7f
0772c     7F 7F 7F 7E 
07730     7E 7E 7E 7D 
07734     7D 7D 7D 7D 
07738     7D 7D 7C 7C | 	byte	$7f, $7f, $7f, $7e, $7e, $7e, $7e, $7d, $7d, $7d, $7d, $7d, $7d, $7d, $7c, $7c
0773c     7C 7C 7C 7C 
07740     7C 7C 7C 7C | 	byte	$7c[8]
07744     7D 7D 7D 7D 
07748     7D 7D 7D    | 	byte	$7d[7]
0774b     7E 7E 7E 7E 
0774f     7E          | 	byte	$7e[5]
07750     7F 7F 7F 80 
07754     80 80 80 81 
07758     81 81 82 82 
0775c     82 83 83 83 | 	byte	$7f, $7f, $7f, $80, $80, $80, $80, $81, $81, $81, $82, $82, $82, $83, $83, $83
07760     83 83 83 84 
07764     84 84 84 84 
07768     84 84 84 84 
0776c     84 84 84 83 | 	byte	$83, $83, $83, $84, $84, $84, $84, $84, $84, $84, $84, $84, $84, $84, $84, $83
07770     83 83 83 83 
07774     82 82 82 82 
07778     81 81 81 81 
0777c     80 80 80 80 | 	byte	$83, $83, $83, $83, $82, $82, $82, $82, $81, $81, $81, $81, $80, $80, $80, $80
07780     7F 7F 7F 7F 
07784     7E 7E 7E 7E 
07788     7D 7D 7D 7D 
0778c     7D 7D 7D 7D | 	byte	$7f, $7f, $7f, $7f, $7e, $7e, $7e, $7e, $7d, $7d, $7d, $7d, $7d, $7d, $7d, $7d
07790     7D 7C 7D 7C 
07794     7C 7C 7C 7D 
07798     7D 7D 7D 7D 
0779c     7D 7D 7D 7E | 	byte	$7d, $7c, $7d, $7c, $7c, $7c, $7c, $7d, $7d, $7d, $7d, $7d, $7d, $7d, $7d, $7e
077a0     7E 7E 7E 7E 
077a4     7F 7F 7F 80 
077a8     80 80 80 81 
077ac     81 81 82 82 | 	byte	$7e, $7e, $7e, $7e, $7f, $7f, $7f, $80, $80, $80, $80, $81, $81, $81, $82, $82
077b0     82 82 83 83 
077b4     83 83 84 84 
077b8     84 84 84 84 
077bc     84 84 84 84 | 	byte	$82, $82, $83, $83, $83, $83, $84, $84, $84, $84, $84, $84, $84, $84, $84, $84
077c0     84 84 84 83 
077c4     83 83 83 83 
077c8     83 82 82 82 
077cc     81 81 81 81 | 	byte	$84, $84, $84, $83, $83, $83, $83, $83, $83, $82, $82, $82, $81, $81, $81, $81
077d0     80 80 80 80 
077d4     7F 7F 7F 7F 
077d8     7E 7E 7E 7E 
077dc     7E 7D 7D 7D | 	byte	$80, $80, $80, $80, $7f, $7f, $7f, $7f, $7e, $7e, $7e, $7e, $7e, $7d, $7d, $7d
077e0     7D 7D 7D 7C 
077e4     7D 7C 7C 7C 
077e8     7C 7C 7C 7C 
077ec     7D 7C 7D 7D | 	byte	$7d, $7d, $7d, $7c, $7d, $7c, $7c, $7c, $7c, $7c, $7c, $7c, $7d, $7c, $7d, $7d
077f0     7D 7D 7D 7D 
077f4     7E 7E 7E 7E 
077f8     7F 7F 7F 7F 
077fc     80 80 80 80 | 	byte	$7d, $7d, $7d, $7d, $7e, $7e, $7e, $7e, $7f, $7f, $7f, $7f, $80, $80, $80, $80
07800     81 81 81 82 
07804     82 82 83 83 
07808     83 83 83 84 
0780c     84 84 84 84 | 	byte	$81, $81, $81, $82, $82, $82, $83, $83, $83, $83, $83, $84, $84, $84, $84, $84
07810     84 84 84 84 
07814     84 84 84 84 | 	byte	$84[8]
07818     83 83 83 83 
0781c     83          | 	byte	$83[5]
0781d     82 82 82 82 
07821     81 81 81 81 
07825     80 80 80 80 
07829     7F 7F 7F 7F | 	byte	$82, $82, $82, $82, $81, $81, $81, $81, $80, $80, $80, $80, $7f, $7f, $7f, $7f
0782d     7E 7E 7E 7E 
07831     7E          | 	byte	$7e[5]
07832     7D 7D 7D 7D 
07836     7D 7D 7D 7D 
0783a     7D          | 	byte	$7d[9]
0783b     7C 7D 7C 7C 
0783f     7D 7D 7D 7D 
07843     7D 7D 7D 7D 
07847     7D 7E 7E 7E | 	byte	$7c, $7d, $7c, $7c, $7d, $7d, $7d, $7d, $7d, $7d, $7d, $7d, $7d, $7e, $7e, $7e
0784b     7E 7E 7F 7F 
0784f     7F 7F 80 80 
07853     80 81 81 81 
07857     82 82 82 82 | 	byte	$7e, $7e, $7f, $7f, $7f, $7f, $80, $80, $80, $81, $81, $81, $82, $82, $82, $82
0785b     83 83 83 83 
0785f     83          | 	byte	$83[5]
07860     84 84 84 84 
07864     84 84 84 84 
07868     84 84 84 84 | 	byte	$84[12]
0786c     83 83 83 83 
07870     83          | 	byte	$83[5]
07871     82 82 82 82 
07875     82          | 	byte	$82[5]
07876     81 81 81 81 
0787a     80 80 80 7F 
0787e     7F 7F 7F 7E 
07882     7E 7E 7E 7E | 	byte	$81, $81, $81, $81, $80, $80, $80, $7f, $7f, $7f, $7f, $7e, $7e, $7e, $7e, $7e
07886     7D 7D 7D 7D 
0788a     7D 7D 7D    | 	byte	$7d[7]
0788d     7C 7C 7C 7C 
07891     7C 7C 7C    | 	byte	$7c[7]
07894     7D 7D 7D 7D 
07898     7D 7D 7D 7D 
0789c     7D          | 	byte	$7d[9]
0789d     7E 7E 7E 7E 
078a1     7F 7F 7F 7F 
078a5     80 80 80 81 
078a9     81 81 81 82 | 	byte	$7e, $7e, $7e, $7e, $7f, $7f, $7f, $7f, $80, $80, $80, $81, $81, $81, $81, $82
078ad     82 82 82 83 
078b1     83 83 83 83 
078b5     84 84 84 84 
078b9     84 84 84 84 | 	byte	$82, $82, $82, $83, $83, $83, $83, $83, $84, $84, $84, $84, $84, $84, $84, $84
078bd     84 84 84 84 
078c1     83 83 83 83 
078c5     83 82 82 82 
078c9     82 82 81 81 | 	byte	$84, $84, $84, $84, $83, $83, $83, $83, $83, $82, $82, $82, $82, $82, $81, $81
078cd     81 80 80 80 
078d1     80 7F 7F 7F 
078d5     7F 7E 7E 7E 
078d9     7E 7E 7D 7D | 	byte	$81, $80, $80, $80, $80, $7f, $7f, $7f, $7f, $7e, $7e, $7e, $7e, $7e, $7d, $7d
078dd     7D 7D 7D 7D 
078e1     7D 7D 7D 7D 
078e5     7D          | 	byte	$7d[9]
078e6     7C 7D 7C 7D 
078ea     7D 7D 7D 7D 
078ee     7D 7D 7D 7D 
078f2     7E 7E 7E 7E | 	byte	$7c, $7d, $7c, $7d, $7d, $7d, $7d, $7d, $7d, $7d, $7d, $7d, $7e, $7e, $7e, $7e
078f6     7F 7F 7F 7F 
078fa     80 80 80 81 
078fe     81 81 81 82 
07902     82 82 83 83 | 	byte	$7f, $7f, $7f, $7f, $80, $80, $80, $81, $81, $81, $81, $82, $82, $82, $83, $83
07906     83 83 83 83 
0790a     84 84 84 84 
0790e     84 84 84 84 
07912     84 84 83 83 | 	byte	$83, $83, $83, $83, $84, $84, $84, $84, $84, $84, $84, $84, $84, $84, $83, $83
07916     83 83 83 83 
0791a     83          | 	byte	$83[5]
0791b     82 82 82 82 
0791f     81 81 81 81 
07923     80 80 80 7F 
07927     7F 7F 7F 7E | 	byte	$82, $82, $82, $82, $81, $81, $81, $81, $80, $80, $80, $7f, $7f, $7f, $7f, $7e
0792b     7E 7E 7E 7E 
0792f     7D 7D 7D 7D 
07933     7D 7D 7D 7D 
07937     7C 7C 7D 7C | 	byte	$7e, $7e, $7e, $7e, $7d, $7d, $7d, $7d, $7d, $7d, $7d, $7d, $7c, $7c, $7d, $7c
0793b     7C 7C 7D 7D 
0793f     7D 7D 7D 7D 
07943     7D 7D 7E 7E 
07947     7E 7E 7E 7F | 	byte	$7c, $7c, $7d, $7d, $7d, $7d, $7d, $7d, $7d, $7d, $7e, $7e, $7e, $7e, $7e, $7f
0794b     7F 7F 7F 80 
0794f     80 80 80 81 
07953     81 81 82 82 
07957     82 82 83 83 | 	byte	$7f, $7f, $7f, $80, $80, $80, $80, $81, $81, $81, $82, $82, $82, $82, $83, $83
0795b     83 83 83 84 
0795f     84 84 84 84 
07963     84 84 84 84 
07967     84 84 83 83 | 	byte	$83, $83, $83, $84, $84, $84, $84, $84, $84, $84, $84, $84, $84, $84, $83, $83
0796b     83 83 83 83 
0796f     82 82 82 82 
07973     81 81 81 81 
07977     80 80 80 80 | 	byte	$83, $83, $83, $83, $82, $82, $82, $82, $81, $81, $81, $81, $80, $80, $80, $80
0797b     7F 7F 7F 7F 
0797f     7E 7E 7E 7E 
07983     7E 7D 7D 7D 
07987     7D 7D 7D 7D | 	byte	$7f, $7f, $7f, $7f, $7e, $7e, $7e, $7e, $7e, $7d, $7d, $7d, $7d, $7d, $7d, $7d
0798b     7D 7D 7D 7D 
0798f     7D 7D 7D 7D 
07993     7D 7D 7D 7D 
07997     7D 7D 7D    | 	byte	$7d[15]
0799a     7E 7E 7E 7E 
0799e     7E          | 	byte	$7e[5]
0799f     7F 7F 7F 7F 
079a3     80 80 80 80 
079a7     81 81 81 82 
079ab     82 82 82 83 | 	byte	$7f, $7f, $7f, $7f, $80, $80, $80, $80, $81, $81, $81, $82, $82, $82, $82, $83
079af     83 83 83 83 
079b3     83          | 	byte	$83[5]
079b4     84 84 84 84 
079b8     84 84 84 84 | 	byte	$84[8]
079bc     83 83 83 83 
079c0     83 83 83    | 	byte	$83[7]
079c3     82 82 82 82 
079c7     81 81 81 81 
079cb     80 80 80 80 
079cf     7F 7F 7F 7F | 	byte	$82, $82, $82, $82, $81, $81, $81, $81, $80, $80, $80, $80, $7f, $7f, $7f, $7f
079d3     7F 7E 7E 7E 
079d7     7E 7E 7D 7D 
079db     7D 7D 7D 7D 
079df     7D 7D 7D 7D | 	byte	$7f, $7e, $7e, $7e, $7e, $7e, $7d, $7d, $7d, $7d, $7d, $7d, $7d, $7d, $7d, $7d
079e3     7D 7D 7D 7D 
079e7     7D 7D 7D 7D 
079eb     7D 7D 7D    | 	byte	$7d[11]
079ee     7E 7E 7E 7E 
079f2     7E          | 	byte	$7e[5]
079f3     7F 7F 7F 7F 
079f7     80 80 80 81 
079fb     81 81 81 82 
079ff     82 82 82 83 | 	byte	$7f, $7f, $7f, $7f, $80, $80, $80, $81, $81, $81, $81, $82, $82, $82, $82, $83
07a03     83 83 83 84 
07a07     84 84 84 84 
07a0b     84 84 84 84 
07a0f     84 84 84 83 | 	byte	$83, $83, $83, $84, $84, $84, $84, $84, $84, $84, $84, $84, $84, $84, $84, $83
07a13     83 83 83 83 
07a17     83          | 	byte	$83[5]
07a18     82 82 82 82 
07a1c     81 81 81 81 
07a20     80 80 80 80 
07a24     7F 7F 7F 7F | 	byte	$82, $82, $82, $82, $81, $81, $81, $81, $80, $80, $80, $80, $7f, $7f, $7f, $7f
07a28     7E 7E 7E 7E 
07a2c     7E          | 	byte	$7e[5]
07a2d     7D 7D 7D 7D 
07a31     7D 7D 7D 7D 
07a35     7D 7D 7D 7D 
07a39     7D 7D 7D 7D 
07a3d     7D 7D 7D 7D 
07a41     7D 7D       | 	byte	$7d[22]
07a43     7E 7E 7E 7E 
07a47     7E          | 	byte	$7e[5]
07a48     7F 7F 7F 7F 
07a4c     80 80 80 81 
07a50     81 81 81 82 
07a54     82 82 82 83 | 	byte	$7f, $7f, $7f, $7f, $80, $80, $80, $81, $81, $81, $81, $82, $82, $82, $82, $83
07a58     83 83 83 83 
07a5c     83          | 	byte	$83[5]
07a5d     84 84 84 84 
07a61     84 84 84    | 	byte	$84[7]
07a64     83 83 83 83 
07a68     83 83 83 83 | 	byte	$83[8]
07a6c     82 82 82 82 
07a70     81 81 81 81 
07a74     81 80 80 80 
07a78     7F 7F 7F 7F | 	byte	$82, $82, $82, $82, $81, $81, $81, $81, $81, $80, $80, $80, $7f, $7f, $7f, $7f
07a7c     7F 7E 7E 7E 
07a80     7E 7E 7D 7D 
07a84     7D 7D 7D 7D 
07a88     7D 7D 7D 7D | 	byte	$7f, $7e, $7e, $7e, $7e, $7e, $7d, $7d, $7d, $7d, $7d, $7d, $7d, $7d, $7d, $7d
07a8c     7D 7D 7D 7D 
07a90     7D 7D 7D 7D 
07a94     7D 7D 7D    | 	byte	$7d[11]
07a97     7E 7E 7E 7E 
07a9b     7E          | 	byte	$7e[5]
07a9c     7F 7F 7F 7F 
07aa0     80 80 80 81 
07aa4     81 81 81 82 
07aa8     82 82 83 83 | 	byte	$7f, $7f, $7f, $7f, $80, $80, $80, $81, $81, $81, $81, $82, $82, $82, $83, $83
07aac     83 83 83 83 
07ab0     83          | 	byte	$83[5]
07ab1     84 84 84 84 
07ab5     84 84 84 84 | 	byte	$84[8]
07ab9     83 83 83 83 
07abd     83 83 83 83 | 	byte	$83[8]
07ac1     82 82 82 82 
07ac5     81 81 81 81 
07ac9     80 80 80 80 
07acd     7F 7F 7F 7F | 	byte	$82, $82, $82, $82, $81, $81, $81, $81, $80, $80, $80, $80, $7f, $7f, $7f, $7f
07ad1     7E 7E 7E 7E 
07ad5     7E 7E       | 	byte	$7e[6]
07ad7     7D 7D 7D 7D 
07adb     7D 7D 7D 7D 
07adf     7D 7D 7D 7D 
07ae3     7D 7D 7D 7D 
07ae7     7D 7D 7D 7D 
07aeb     7D          | 	byte	$7d[21]
07aec     7E 7E 7E 7E 
07af0     7E          | 	byte	$7e[5]
07af1     7F 7F 7F 7F 
07af5     80 80 80 81 
07af9     81 81 81 82 
07afd     82 82 82 83 | 	byte	$7f, $7f, $7f, $7f, $80, $80, $80, $81, $81, $81, $81, $82, $82, $82, $82, $83
07b01     83 83 83 83 
07b05     83 83       | 	byte	$83[6]
07b07     84 84 84 84 
07b0b     84 84       | 	byte	$84[6]
07b0d     83 83 83 83 
07b11     83 83 83 83 | 	byte	$83[8]
07b15     82 82 82 82 
07b19     82          | 	byte	$82[5]
07b1a     81 81 81 81 
07b1e     80 80 80 80 
07b22     7F 7F 7F 7F 
07b26     7E 7E 7E 7E | 	byte	$81, $81, $81, $81, $80, $80, $80, $80, $7f, $7f, $7f, $7f, $7e, $7e, $7e, $7e
07b2a     7E 7D 7D 7D 
07b2e     7D 7D 7D 7D 
07b32     7D 7D 7D 7D 
07b36     7D 7D 7D 7D | 	byte	$7e, $7d, $7d, $7d, $7d, $7d, $7d, $7d, $7d, $7d, $7d, $7d, $7d, $7d, $7d, $7d
07b3a     7D 7D 7D 7D 
07b3e     7D 7D       | 	byte	$7d[6]
07b40     7E 7E 7E 7E 
07b44     7E          | 	byte	$7e[5]
07b45     7F 7F 7F 7F 
07b49     80 80 80 80 
07b4d     81 81 81 82 
07b51     82 82 82 83 | 	byte	$7f, $7f, $7f, $7f, $80, $80, $80, $80, $81, $81, $81, $82, $82, $82, $82, $83
07b55     83 83 83 83 
07b59     83          | 	byte	$83[5]
07b5a     84 84 84 84 
07b5e     84 84 84 84 | 	byte	$84[8]
07b62     83 83 83 83 
07b66     83 83 83    | 	byte	$83[7]
07b69     82 82 82 82 
07b6d     82          | 	byte	$82[5]
07b6e     81 81 81 81 
07b72     80 80 80 80 
07b76     7F 7F 7F 7F 
07b7a     7E 7E 7E 7E | 	byte	$81, $81, $81, $81, $80, $80, $80, $80, $7f, $7f, $7f, $7f, $7e, $7e, $7e, $7e
07b7e     7E 7E 7D 7D 
07b82     7D 7D 7D 7D 
07b86     7D 7D 7D 7D 
07b8a     7D 7D 7D 7D | 	byte	$7e, $7e, $7d, $7d, $7d, $7d, $7d, $7d, $7d, $7d, $7d, $7d, $7d, $7d, $7d, $7d
07b8e     7D 7D 7D 7D 
07b92     7D 7D 7D    | 	byte	$7d[7]
07b95     7E 7E 7E 7E 
07b99     7E          | 	byte	$7e[5]
07b9a     7F 7F 7F 7F 
07b9e     80 80 80 81 
07ba2     81 81 81 82 
07ba6     82 82 82 83 | 	byte	$7f, $7f, $7f, $7f, $80, $80, $80, $81, $81, $81, $81, $82, $82, $82, $82, $83
07baa     83 83 83 83 
07bae     83 83 83    | 	byte	$83[7]
07bb1     84 84 84 83 
07bb5     84 83 83 83 
07bb9     83 83 83 83 
07bbd     82 82 82 82 | 	byte	$84, $84, $84, $83, $84, $83, $83, $83, $83, $83, $83, $83, $82, $82, $82, $82
07bc1     82 81 81 81 
07bc5     81 81 80 80 
07bc9     80 80 7F 7F 
07bcd     7F 7F 7F 7E | 	byte	$82, $81, $81, $81, $81, $81, $80, $80, $80, $80, $7f, $7f, $7f, $7f, $7f, $7e
07bd1     7E 7E 7E 7E 
07bd5     7D 7D 7D 7D 
07bd9     7D 7D 7D 7D 
07bdd     7D 7D 7D 7D | 	byte	$7e, $7e, $7e, $7e, $7d, $7d, $7d, $7d, $7d, $7d, $7d, $7d, $7d, $7d, $7d, $7d
07be1     7D 7D 7D 7D 
07be5     7D 7D 7D 7D | 	byte	$7d[8]
07be9     7E 7E 7E 7E 
07bed     7E          | 	byte	$7e[5]
07bee     7F 7F 7F 7F 
07bf2     80 80 80 80 
07bf6     81 81 81 82 
07bfa     82 82 82 83 | 	byte	$7f, $7f, $7f, $7f, $80, $80, $80, $80, $81, $81, $81, $82, $82, $82, $82, $83
07bfe     83 83 83 83 
07c02     83 83 83    | 	byte	$83[7]
07c05     84 84 83 84 
07c09     84 83 83 83 
07c0d     83 83 83 83 
07c11     83 82 82 82 | 	byte	$84, $84, $83, $84, $84, $83, $83, $83, $83, $83, $83, $83, $83, $82, $82, $82
07c15     82 82 81 81 
07c19     81 81 80 80 
07c1d     80 80 7F 7F 
07c21     7F 7F 7F 7E | 	byte	$82, $82, $81, $81, $81, $81, $80, $80, $80, $80, $7f, $7f, $7f, $7f, $7f, $7e
07c25     7E 7E 7E 7E 
07c29     7D 7D 7D 7D 
07c2d     7D 7D 7D 7D 
07c31     7D 7D 7D 7D | 	byte	$7e, $7e, $7e, $7e, $7d, $7d, $7d, $7d, $7d, $7d, $7d, $7d, $7d, $7d, $7d, $7d
07c35     7D 7D 7D 7D 
07c39     7D 7D 7D 7D 
07c3d     7D          | 	byte	$7d[9]
07c3e     7E 7E 7E 7E 
07c42     7E          | 	byte	$7e[5]
07c43     7F 7F 7F 7F 
07c47     80 80 80 81 
07c4b     81 81 81 82 
07c4f     82 82 82 83 | 	byte	$7f, $7f, $7f, $7f, $80, $80, $80, $81, $81, $81, $81, $82, $82, $82, $82, $83
07c53     83 83 83 83 
07c57     83 83 83    | 	byte	$83[7]
07c5a     84 83 83 83 
07c5e     83 83 83 83 
07c62     83 83 83 83 
07c66     83 82 82 82 | 	byte	$84, $83, $83, $83, $83, $83, $83, $83, $83, $83, $83, $83, $83, $82, $82, $82
07c6a     82 81 81 81 
07c6e     81 81 80 80 
07c72     80 80 7F 7F 
07c76     7F 7F 7E 7E | 	byte	$82, $81, $81, $81, $81, $81, $80, $80, $80, $80, $7f, $7f, $7f, $7f, $7e, $7e
07c7a     7E 7E 7E 7E 
07c7e     7D 7D 7D 7D 
07c82     7D 7D 7D 7D 
07c86     7D 7D 7D 7D | 	byte	$7e, $7e, $7e, $7e, $7d, $7d, $7d, $7d, $7d, $7d, $7d, $7d, $7d, $7d, $7d, $7d
07c8a     7D 7D 7D 7D 
07c8e     7D 7D 7D 7D | 	byte	$7d[8]
07c92     7E 7E 7E 7E 
07c96     7E          | 	byte	$7e[5]
07c97     7F 7F 7F 7F 
07c9b     80 80 80 80 
07c9f     81 81 81 82 
07ca3     82 82 82 82 | 	byte	$7f, $7f, $7f, $7f, $80, $80, $80, $80, $81, $81, $81, $82, $82, $82, $82, $82
07ca7     83 83 83 83 
07cab     83 83 83 83 
07caf     83 83 83 83 
07cb3     83 83 83 83 
07cb7     83 83 83 83 | 	byte	$83[20]
07cbb     82 82 82 82 
07cbf     82          | 	byte	$82[5]
07cc0     81 81 81 81 
07cc4     80 80 80 80 
07cc8     7F 7F 7F 7F 
07ccc     7F 7E 7E 7E | 	byte	$81, $81, $81, $81, $80, $80, $80, $80, $7f, $7f, $7f, $7f, $7f, $7e, $7e, $7e
07cd0     7E 7E 7D 7D 
07cd4     7D 7D 7D 7D 
07cd8     7D 7D 7D 7D 
07cdc     7D 7D 7D 7D | 	byte	$7e, $7e, $7d, $7d, $7d, $7d, $7d, $7d, $7d, $7d, $7d, $7d, $7d, $7d, $7d, $7d
07ce0     7D 7D 7D 7D 
07ce4     7D 7D       | 	byte	$7d[6]
07ce6     7E 7E 7E 7E 
07cea     7E          | 	byte	$7e[5]
07ceb     7F 7F 7F 7F 
07cef     7F          | 	byte	$7f[5]
07cf0     80 80 80 81 
07cf4     81 81 81 82 
07cf8     82 82 82 83 
07cfc     83 83 83 83 | 	byte	$80, $80, $80, $81, $81, $81, $81, $82, $82, $82, $82, $83, $83, $83, $83, $83
07d00     83 83 83 83 
07d04     84 83 84 83 
07d08     83 83 83 83 
07d0c     83 83 83 82 | 	byte	$83, $83, $83, $83, $84, $83, $84, $83, $83, $83, $83, $83, $83, $83, $83, $82
07d10     82 82 82 82 
07d14     81 81 81 81 
07d18     81 80 80 80 
07d1c     80 7F 7F 7F | 	byte	$82, $82, $82, $82, $81, $81, $81, $81, $81, $80, $80, $80, $80, $7f, $7f, $7f
07d20     7F 7F 7E 7E 
07d24     7E 7E 7E 7E 
07d28     7D 7D 7D 7D 
07d2c     7D 7D 7D 7D | 	byte	$7f, $7f, $7e, $7e, $7e, $7e, $7e, $7e, $7d, $7d, $7d, $7d, $7d, $7d, $7d, $7d
07d30     7D 7D 7D 7D 
07d34     7D 7D 7D 7D 
07d38     7D 7D 7D    | 	byte	$7d[11]
07d3b     7E 7E 7E 7E 
07d3f     7E          | 	byte	$7e[5]
07d40     7F 7F 7F 7F 
07d44     80 80 80 80 
07d48     81 81 81 81 
07d4c     82 82 82 82 | 	byte	$7f, $7f, $7f, $7f, $80, $80, $80, $80, $81, $81, $81, $81, $82, $82, $82, $82
07d50     83 83 83 83 
07d54     83 83 83 83 
07d58     83 83 83 83 
07d5c     83 83 83 83 
07d60     83 83 83    | 	byte	$83[19]
07d63     82 82 82 82 
07d67     82 82       | 	byte	$82[6]
07d69     81 81 81 81 
07d6d     80 80 80 80 
07d71     7F 7F 7F 7F 
07d75     7F 7E 7E 7E | 	byte	$81, $81, $81, $81, $80, $80, $80, $80, $7f, $7f, $7f, $7f, $7f, $7e, $7e, $7e
07d79     7E 7E 7E 7D 
07d7d     7D 7D 7D 7D 
07d81     7D 7D 7D 7D 
07d85     7D 7D 7D 7D | 	byte	$7e, $7e, $7e, $7d, $7d, $7d, $7d, $7d, $7d, $7d, $7d, $7d, $7d, $7d, $7d, $7d
07d89     7D 7D 7D 7D 
07d8d     7D 7D       | 	byte	$7d[6]
07d8f     7E 7E 7E 7E 
07d93     7E          | 	byte	$7e[5]
07d94     7F 7F 7F 7F 
07d98     80 80 80 80 
07d9c     81 81 81 81 
07da0     82 82 82 82 | 	byte	$7f, $7f, $7f, $7f, $80, $80, $80, $80, $81, $81, $81, $81, $82, $82, $82, $82
07da4     83 83 83 83 
07da8     83 83 83 83 
07dac     83 83 83 83 
07db0     83 83 83 83 
07db4     83 83 83 83 | 	byte	$83[20]
07db8     82 82 82 82 
07dbc     82          | 	byte	$82[5]
07dbd     81 81 81 81 
07dc1     81          | 	byte	$81[5]
07dc2     80 80 80 80 
07dc6     7F 7F 7F 7F 
07dca     7F 7E 7E 7E 
07dce     7E 7E 7E 7D | 	byte	$80, $80, $80, $80, $7f, $7f, $7f, $7f, $7f, $7e, $7e, $7e, $7e, $7e, $7e, $7d
07dd2     7D 7D 7D 7D 
07dd6     7D 7D 7D 7D 
07dda     7D 7D 7D 7D 
07dde     7D 7D 7D 7D 
07de2     7D          | 	byte	$7d[17]
07de3     7E 7E 7E 7E 
07de7     7E 7E       | 	byte	$7e[6]
07de9     7F 7F 7F 7F 
07ded     80 80 80 80 
07df1     81 81 81 81 
07df5     82 82 82 82 | 	byte	$7f, $7f, $7f, $7f, $80, $80, $80, $80, $81, $81, $81, $81, $82, $82, $82, $82
07df9     83 83 83 83 
07dfd     83 83 83 83 
07e01     83 83 83 83 
07e05     83 83 83 83 
07e09     83 83 83    | 	byte	$83[19]
07e0c     82 82 82 82 
07e10     82 82       | 	byte	$82[6]
07e12     81 81 81 81 
07e16     80 80 80 80 
07e1a     7F 7F 7F 7F 
07e1e     7E 7F 7E 7E | 	byte	$81, $81, $81, $81, $80, $80, $80, $80, $7f, $7f, $7f, $7f, $7e, $7f, $7e, $7e
07e22     7E 7E 7E 7E 
07e26     7D 7D 7D 7D 
07e2a     7D 7D 7D 7D 
07e2e     7D 7D 7D 7D | 	byte	$7e, $7e, $7e, $7e, $7d, $7d, $7d, $7d, $7d, $7d, $7d, $7d, $7d, $7d, $7d, $7d
07e32     7D 7D 7D 7D 
07e36     7D 7D       | 	byte	$7d[6]
07e38     7E 7E 7E 7E 
07e3c     7E          | 	byte	$7e[5]
07e3d     7F 7F 7F 7F 
07e41     80 80 80 80 
07e45     81 81 81 81 
07e49     82 82 82 82 | 	byte	$7f, $7f, $7f, $7f, $80, $80, $80, $80, $81, $81, $81, $81, $82, $82, $82, $82
07e4d     83 83 83 83 
07e51     83 83 83 83 
07e55     83 83 83 83 
07e59     83 83 83 83 
07e5d     83 83 83 83 | 	byte	$83[20]
07e61     82 82 82 82 
07e65     82          | 	byte	$82[5]
07e66     81 81 81 81 
07e6a     80 80 80 80 
07e6e     80 7F 7F 7F 
07e72     7F 7F 7E 7E | 	byte	$81, $81, $81, $81, $80, $80, $80, $80, $80, $7f, $7f, $7f, $7f, $7f, $7e, $7e
07e76     7E 7E 7E 7E 
07e7a     7D 7D 7D 7D 
07e7e     7D 7D 7D 7D 
07e82     7D 7D 7D 7D | 	byte	$7e, $7e, $7e, $7e, $7d, $7d, $7d, $7d, $7d, $7d, $7d, $7d, $7d, $7d, $7d, $7d
07e86     7D 7D 7D 7D 
07e8a     7D 7D       | 	byte	$7d[6]
07e8c     7E 7E 7E 7E 
07e90     7E 7E       | 	byte	$7e[6]
07e92     7F 7F 7F 7F 
07e96     80 80 80 80 
07e9a     81 81 81 81 
07e9e     82 82 82 82 | 	byte	$7f, $7f, $7f, $7f, $80, $80, $80, $80, $81, $81, $81, $81, $82, $82, $82, $82
07ea2     82 83 83 83 
07ea6     83 83 83 83 
07eaa     83 83 83 83 
07eae     83 83 83 83 | 	byte	$82, $83, $83, $83, $83, $83, $83, $83, $83, $83, $83, $83, $83, $83, $83, $83
07eb2     83 83 83 82 
07eb6     82 82 82 82 
07eba     82 81 81 81 
07ebe     81 80 80 80 | 	byte	$83, $83, $83, $82, $82, $82, $82, $82, $82, $81, $81, $81, $81, $80, $80, $80
07ec2     80 80 7F 7F 
07ec6     7F 7F 7E 7E 
07eca     7E 7E 7E 7E 
07ece     7E 7D 7D 7D | 	byte	$80, $80, $7f, $7f, $7f, $7f, $7e, $7e, $7e, $7e, $7e, $7e, $7e, $7d, $7d, $7d
07ed2     7D 7D 7D 7D 
07ed6     7D 7D 7D 7D 
07eda     7D 7D 7D 7D 
07ede     7D 7D       | 	byte	$7d[14]
07ee0     7E 7E 7E 7E 
07ee4     7E 7E       | 	byte	$7e[6]
07ee6     7F 7F 7F 7F 
07eea     80 80 80 80 
07eee     81 81 81 81 
07ef2     82 82 82 82 | 	byte	$7f, $7f, $7f, $7f, $80, $80, $80, $80, $81, $81, $81, $81, $82, $82, $82, $82
07ef6     82 83 83 83 
07efa     83 83 83 83 
07efe     83 83 83 83 
07f02     83 83 83 83 | 	byte	$82, $83, $83, $83, $83, $83, $83, $83, $83, $83, $83, $83, $83, $83, $83, $83
07f06     83 83 83 83 
07f0a     82 82 82 82 
07f0e     82 81 81 81 
07f12     81 80 80 80 | 	byte	$83, $83, $83, $83, $82, $82, $82, $82, $82, $81, $81, $81, $81, $80, $80, $80
07f16     80 80 7F 7F 
07f1a     7F 7F 7E 7E 
07f1e     7E 7E 7E 7E 
07f22     7E 7D 7D 7D | 	byte	$80, $80, $7f, $7f, $7f, $7f, $7e, $7e, $7e, $7e, $7e, $7e, $7e, $7d, $7d, $7d
07f26     7D 7D 7D 7D 
07f2a     7D 7D 7D 7D 
07f2e     7D 7D 7D 7D 
07f32     7D 7D 7D    | 	byte	$7d[15]
07f35     7E 7E 7E 7E 
07f39     7E 7E       | 	byte	$7e[6]
07f3b     7F 7F 7F 7F 
07f3f     80 80 80 80 
07f43     81 81 81 81 
07f47     82 82 82 82 | 	byte	$7f, $7f, $7f, $7f, $80, $80, $80, $80, $81, $81, $81, $81, $82, $82, $82, $82
07f4b     82 83 83 83 
07f4f     83 83 83 83 
07f53     83 83 83 83 
07f57     83 83 83 83 | 	byte	$82, $83, $83, $83, $83, $83, $83, $83, $83, $83, $83, $83, $83, $83, $83, $83
07f5b     83 83 83 82 
07f5f     82 82 82 82 
07f63     82 81 81 81 
07f67     81 80 80 80 | 	byte	$83, $83, $83, $82, $82, $82, $82, $82, $82, $81, $81, $81, $81, $80, $80, $80
07f6b     80 80 7F 7F 
07f6f     7F 7F 7F 7E 
07f73     7E 7E 7E 7E 
07f77     7E 7D 7D 7D | 	byte	$80, $80, $7f, $7f, $7f, $7f, $7f, $7e, $7e, $7e, $7e, $7e, $7e, $7d, $7d, $7d
07f7b     7D 7D 7D 7D 
07f7f     7D 7D 7D 7D 
07f83     7D 7D 7D 7D 
07f87     7D          | 	byte	$7d[13]
07f88     7E 7E 7E 7E 
07f8c     7E 7E 7E    | 	byte	$7e[7]
07f8f     7F 7F 7F 7F 
07f93     80 80 80 80 
07f97     81 81 81 81 
07f9b     82 82 82 82 | 	byte	$7f, $7f, $7f, $7f, $80, $80, $80, $80, $81, $81, $81, $81, $82, $82, $82, $82
07f9f     82 82 83 83 
07fa3     83 83 83 83 
07fa7     83 83 83 83 
07fab     83 83 83 83 | 	byte	$82, $82, $83, $83, $83, $83, $83, $83, $83, $83, $83, $83, $83, $83, $83, $83
07faf     83 83 83 82 
07fb3     82 82 82 82 
07fb7     82 81 81 81 
07fbb     81 81 80 80 | 	byte	$83, $83, $83, $82, $82, $82, $82, $82, $82, $81, $81, $81, $81, $81, $80, $80
07fbf     80 80 7F 7F 
07fc3     7F 7F 7F 7E 
07fc7     7E 7E 7E 7E 
07fcb     7E 7D 7D 7D | 	byte	$80, $80, $7f, $7f, $7f, $7f, $7f, $7e, $7e, $7e, $7e, $7e, $7e, $7d, $7d, $7d
07fcf     7D 7D 7D 7D 
07fd3     7D 7D 7D 7D 
07fd7     7D 7D 7D 7D 
07fdb     7D 7D       | 	byte	$7d[14]
07fdd     7E 7E 7E 7E 
07fe1     7E 7E 7E    | 	byte	$7e[7]
07fe4     7F 7F 7F 7F 
07fe8     80 80 80 80 
07fec     81 81 81 81 
07ff0     82 82 82 82 | 	byte	$7f, $7f, $7f, $7f, $80, $80, $80, $80, $81, $81, $81, $81, $82, $82, $82, $82
07ff4     82 83 83 83 
07ff8     83 83 83 83 
07ffc     83 83 83 83 
08000     83 83 83 83 | 	byte	$82, $83, $83, $83, $83, $83, $83, $83, $83, $83, $83, $83, $83, $83, $83, $83
08004     83 83 83 82 
08008     82 82 82 82 
0800c     81 81 81 81 
08010     81 80 80 80 | 	byte	$83, $83, $83, $82, $82, $82, $82, $82, $81, $81, $81, $81, $81, $80, $80, $80
08014     80 80 7F 7F 
08018     7F 7F 7F 7E 
0801c     7E 7E 7E 7E 
08020     7E 7E 7D 7D | 	byte	$80, $80, $7f, $7f, $7f, $7f, $7f, $7e, $7e, $7e, $7e, $7e, $7e, $7e, $7d, $7d
08024     7D 7D 7D 7D 
08028     7D 7D 7D 7D 
0802c     7D 7D 7D 7D 
08030     7D          | 	byte	$7d[13]
08031     7E 7E 7E 7E 
08035     7E 7E 7E    | 	byte	$7e[7]
08038     7F 7F 7F 7F 
0803c     80 80 80 80 
08040     81 81 81 81 
08044     81 82 82 82 | 	byte	$7f, $7f, $7f, $7f, $80, $80, $80, $80, $81, $81, $81, $81, $81, $82, $82, $82
08048     82 82 83 83 
0804c     83 83 83 83 
08050     83 83 83 83 
08054     83 83 83 83 | 	byte	$82, $82, $83, $83, $83, $83, $83, $83, $83, $83, $83, $83, $83, $83, $83, $83
08058     83 83 82 82 
0805c     82 82 82 82 
08060     81 81 81 81 
08064     81 80 80 80 | 	byte	$83, $83, $82, $82, $82, $82, $82, $82, $81, $81, $81, $81, $81, $80, $80, $80
08068     80 80 7F 7F 
0806c     7F 7F 7F 7E 
08070     7E 7E 7E 7E 
08074     7E 7E 7D 7D | 	byte	$80, $80, $7f, $7f, $7f, $7f, $7f, $7e, $7e, $7e, $7e, $7e, $7e, $7e, $7d, $7d
08078     7D 7D 7D 7D 
0807c     7D 7D 7D 7D 
08080     7D 7D 7D 7D 
08084     7D 7D       | 	byte	$7d[14]
08086     7E 7E 7E 7E 
0808a     7E 7E       | 	byte	$7e[6]
0808c     7F 7F 7F 7F 
08090     7F          | 	byte	$7f[5]
08091     80 80 80 80 
08095     81 81 81 81 
08099     82 82 82 82 
0809d     82 83 83 83 | 	byte	$80, $80, $80, $80, $81, $81, $81, $81, $82, $82, $82, $82, $82, $83, $83, $83
080a1     83 83 83 83 
080a5     83 83 83 83 
080a9     83 83 83 83 
080ad     83 83 83    | 	byte	$83[15]
080b0     82 82 82 82 
080b4     82          | 	byte	$82[5]
080b5     81 81 81 81 
080b9     81          | 	byte	$81[5]
080ba     80 80 80 80 
080be     80          | 	byte	$80[5]
080bf     7F 7F 7F 7F 
080c3     7F          | 	byte	$7f[5]
080c4     7E 7E 7E 7E 
080c8     7E 7E 7E    | 	byte	$7e[7]
080cb     7D 7D 7D 7D 
080cf     7D 7D 7D 7D 
080d3     7D 7D 7D 7D 
080d7     7D 7D 7D    | 	byte	$7d[15]
080da     7E 7E 7E 7E 
080de     7E 7E 7E    | 	byte	$7e[7]
080e1     7F 7F 7F 7F 
080e5     80 80 80 80 
080e9     81 81 81 81 
080ed     81 82 82 82 | 	byte	$7f, $7f, $7f, $7f, $80, $80, $80, $80, $81, $81, $81, $81, $81, $82, $82, $82
080f1     82 82 83 83 
080f5     83 83 83 83 
080f9     83 83 83 83 
080fd     83 83 83 83 | 	byte	$82, $82, $83, $83, $83, $83, $83, $83, $83, $83, $83, $83, $83, $83, $83, $83
08101     83 83 82 82 
08105     82 82 82 82 
08109     81 81 81 81 
0810d     81 80 80 80 | 	byte	$83, $83, $82, $82, $82, $82, $82, $82, $81, $81, $81, $81, $81, $80, $80, $80
08111     80 80 7F 7F 
08115     7F 7F 7F 7E 
08119     7E 7E 7E 7E 
0811d     7E 7E 7D 7D | 	byte	$80, $80, $7f, $7f, $7f, $7f, $7f, $7e, $7e, $7e, $7e, $7e, $7e, $7e, $7d, $7d
08121     7D 7D 7D 7D 
08125     7D 7D 7D 7D 
08129     7D 7D 7D 7D 
0812d     7D          | 	byte	$7d[13]
0812e     7E 7D 7E 7E 
08132     7E 7E 7E 7F 
08136     7F 7F 7F 7F 
0813a     80 80 80 80 | 	byte	$7e, $7d, $7e, $7e, $7e, $7e, $7e, $7f, $7f, $7f, $7f, $7f, $80, $80, $80, $80
0813e     81 81 81 81 
08142     82 82 82 82 
08146     82 83 83 83 
0814a     83 83 83 83 | 	byte	$81, $81, $81, $81, $82, $82, $82, $82, $82, $83, $83, $83, $83, $83, $83, $83
0814e     83 83 83 83 
08152     83 83 83 83 
08156     83 83       | 	byte	$83[10]
08158     82 82 82 82 
0815c     82 82       | 	byte	$82[6]
0815e     81 81 81 81 
08162     81          | 	byte	$81[5]
08163     80 80 80 80 
08167     80          | 	byte	$80[5]
08168     7F 7F 7F 7F 
0816c     7F          | 	byte	$7f[5]
0816d     7E 7E 7E 7E 
08171     7E 7E 7E 7E | 	byte	$7e[8]
08175     7D 7D 7D 7D 
08179     7D 7D 7D 7D 
0817d     7D 7D 7D 7D 
08181     7D 7D       | 	byte	$7d[14]
08183     7E 7E 7E 7E 
08187     7E 7E 7E    | 	byte	$7e[7]
0818a     7F 7F 7F 7F 
0818e     80 80 80 80 
08192     81 81 81 81 
08196     81 82 82 82 | 	byte	$7f, $7f, $7f, $7f, $80, $80, $80, $80, $81, $81, $81, $81, $81, $82, $82, $82
0819a     82 82 83 83 
0819e     83 83 83 83 
081a2     83 83 83 83 
081a6     83 83 83 83 | 	byte	$82, $82, $83, $83, $83, $83, $83, $83, $83, $83, $83, $83, $83, $83, $83, $83
081aa     83 83 82 82 
081ae     82 82 82 82 
081b2     81 81 81 81 
081b6     81 80 80 80 | 	byte	$83, $83, $82, $82, $82, $82, $82, $82, $81, $81, $81, $81, $81, $80, $80, $80
081ba     80 80 7F 7F 
081be     7F 7F 7F 7F 
081c2     7E 7E 7E 7E 
081c6     7E 7E 7E 7D | 	byte	$80, $80, $7f, $7f, $7f, $7f, $7f, $7f, $7e, $7e, $7e, $7e, $7e, $7e, $7e, $7d
081ca     7D 7D 7D 7D 
081ce     7D 7D 7D 7D 
081d2     7D 7D 7D 7D 
081d6     7D          | 	byte	$7d[13]
081d7     7E 7E 7E 7E 
081db     7E 7E 7E    | 	byte	$7e[7]
081de     7F 7F 7F 7F 
081e2     7F          | 	byte	$7f[5]
081e3     80 80 80 80 
081e7     81 81 81 81 
081eb     82 82 82 82 
081ef     82 83 83 83 | 	byte	$80, $80, $80, $80, $81, $81, $81, $81, $82, $82, $82, $82, $82, $83, $83, $83
081f3     83 83 83 83 
081f7     83 83 83 83 
081fb     83 83 83 83 
081ff     83 83       | 	byte	$83[14]
08201     82 82 82 82 
08205     82 82       | 	byte	$82[6]
08207     81 81 81 81 
0820b     81          | 	byte	$81[5]
0820c     80 80 80 80 
08210     80          | 	byte	$80[5]
08211     7F 7F 7F 7F 
08215     7F 7F       | 	byte	$7f[6]
08217     7E 7E 7E 7E 
0821b     7E 7E       | 	byte	$7e[6]
0821d     7D 7D 7D 7D 
08221     7D 7D 7D 7D 
08225     7D 7D 7D 7D 
08229     7D 7D       | 	byte	$7d[14]
0822b     7E 7E 7E 7E 
0822f     7E 7E 7E 7E | 	byte	$7e[8]
08233     7F 7F 7F 7F 
08237     7F          | 	byte	$7f[5]
08238     80 80 80 80 
0823c     81 81 81 81 
08240     82 82 82 82 
08244     82 82 83 83 | 	byte	$80, $80, $80, $80, $81, $81, $81, $81, $82, $82, $82, $82, $82, $82, $83, $83
08248     83 83 83 83 
0824c     83 83 83 83 
08250     83 83 83 83 | 	byte	$83[12]
08254     82 82 82 82 
08258     82 82 82    | 	byte	$82[7]
0825b     81 81 81 81 
0825f     81          | 	byte	$81[5]
08260     80 80 80 80 
08264     80          | 	byte	$80[5]
08265     7F 7F 7F 7F 
08269     7F          | 	byte	$7f[5]
0826a     7E 7E 7E 7E 
0826e     7E 7E 7E 7E 
08272     7E          | 	byte	$7e[9]
08273     7D 7D 7D 7D 
08277     7D 7D 7D 7D 
0827b     7D 7D 7D 7D | 	byte	$7d[12]
0827f     7E 7E 7E 7E 
08283     7E 7E 7E 7E | 	byte	$7e[8]
08287     7F 7F 7F 7F 
0828b     80 80 80 80 
0828f     80 81 81 81 
08293     81 82 82 82 | 	byte	$7f, $7f, $7f, $7f, $80, $80, $80, $80, $80, $81, $81, $81, $81, $82, $82, $82
08297     82 82 82 83 
0829b     83 83 83 83 
0829f     83 83 83 83 
082a3     83 83 83 83 | 	byte	$82, $82, $82, $83, $83, $83, $83, $83, $83, $83, $83, $83, $83, $83, $83, $83
082a7     83 83 83 82 
082ab     82 82 82 82 
082af     82 81 81 81 
082b3     81 81 80 80 | 	byte	$83, $83, $83, $82, $82, $82, $82, $82, $82, $81, $81, $81, $81, $81, $80, $80
082b7     80 80 7F 7F 
082bb     7F 7F 7F 7F 
082bf     7E 7E 7E 7E 
082c3     7E 7E 7E 7E | 	byte	$80, $80, $7f, $7f, $7f, $7f, $7f, $7f, $7e, $7e, $7e, $7e, $7e, $7e, $7e, $7e
082c7     7D 7D 7D 7D 
082cb     7D 7D 7D 7D 
082cf     7D 7D 7D 7D | 	byte	$7d[12]
082d3     7E 7D 7E 7E 
082d7     7E 7E 7E 7E 
082db     7E 7F 7F 7F 
082df     7F 7F 80 80 | 	byte	$7e, $7d, $7e, $7e, $7e, $7e, $7e, $7e, $7e, $7f, $7f, $7f, $7f, $7f, $80, $80
082e3     80 80 81 81 
082e7     81 81 82 82 
082eb     82 82 82 82 
082ef     83 83 83 83 | 	byte	$80, $80, $81, $81, $81, $81, $82, $82, $82, $82, $82, $82, $83, $83, $83, $83
082f3     83 83 83 83 
082f7     83 83 83 83 
082fb     83 83       | 	byte	$83[10]
082fd     82 82 82 82 
08301     82 82 82    | 	byte	$82[7]
08304     81 81 81 81 
08308     81          | 	byte	$81[5]
08309     80 80 80 80 
0830d     80          | 	byte	$80[5]
0830e     7F 7F 7F 7F 
08312     7F 7F       | 	byte	$7f[6]
08314     7E 7E 7E 7E 
08318     7E 7E 7E 7E | 	byte	$7e[8]
0831c     7D 7D 7D 7D 
08320     7D 7D 7D 7D 
08324     7D 7D 7D 7D | 	byte	$7d[12]
08328     7E 7E 7E 7E 
0832c     7E 7E 7E 7E | 	byte	$7e[8]
08330     7F 7F 7F 7F 
08334     7F          | 	byte	$7f[5]
08335     80 80 80 80 
08339     81 81 81 81 
0833d     82 82 82 82 
08341     82 82 82 83 | 	byte	$80, $80, $80, $80, $81, $81, $81, $81, $82, $82, $82, $82, $82, $82, $82, $83
08345     83 83 83 83 
08349     83 83 83 83 
0834d     83 83 83 83 
08351     83          | 	byte	$83[13]
08352     82 82 82 82 
08356     82 82       | 	byte	$82[6]
08358     81 81 81 81 
0835c     81 81       | 	byte	$81[6]
0835e     80 80 80 80 
08362     80          | 	byte	$80[5]
08363     7F 7F 7F 7F 
08367     7F          | 	byte	$7f[5]
08368     7E 7E 7E 7E 
0836c     7E 7E 7E 7E | 	byte	$7e[8]
08370     7D 7D 7D 7D 
08374     7D 7D 7D 7D 
08378     7D 7D 7D 7D | 	byte	$7d[12]
0837c     7E 7E 7E 7E 
08380     7E 7E 7E 7E | 	byte	$7e[8]
08384     7F 7F 7F 7F 
08388     7F          | 	byte	$7f[5]
08389     80 80 80 80 
0838d     80          | 	byte	$80[5]
0838e     81 81 81 81 
08392     82 82 82 82 
08396     82 82 83 83 
0839a     83 83 83 83 | 	byte	$81, $81, $81, $81, $82, $82, $82, $82, $82, $82, $83, $83, $83, $83, $83, $83
0839e     83 83 83 83 
083a2     83 83 83    | 	byte	$83[7]
083a5     82 82 82 82 
083a9     82 82 82 82 | 	byte	$82[8]
083ad     81 81 81 81 
083b1     81          | 	byte	$81[5]
083b2     80 80 80 80 
083b6     80          | 	byte	$80[5]
083b7     7F 7F 7F 7F 
083bb     7F 7F       | 	byte	$7f[6]
083bd     7E 7E 7E 7E 
083c1     7E 7E 7E 7E 
083c5     7E          | 	byte	$7e[9]
083c6     7D 7D 7D 7D 
083ca     7D 7D 7D 7D 
083ce     7D 7D       | 	byte	$7d[10]
083d0     7E 7E 7E 7E 
083d4     7E 7E 7E 7E 
083d8     7E          | 	byte	$7e[9]
083d9     7F 7F 7F 7F 
083dd     7F          | 	byte	$7f[5]
083de     80 80 80 80 
083e2     81 81 81 81 
083e6     81 82 82 82 
083ea     82 82 82 83 | 	byte	$80, $80, $80, $80, $81, $81, $81, $81, $81, $82, $82, $82, $82, $82, $82, $83
083ee     83 83 83 83 
083f2     83 83 83 83 
083f6     83 83 83 83 | 	byte	$83[12]
083fa     82 82 82 82 
083fe     82 82 82    | 	byte	$82[7]
08401     81 81 81 81 
08405     81          | 	byte	$81[5]
08406     80 80 80 80 
0840a     80          | 	byte	$80[5]
0840b     7F 7F 7F 7F 
0840f     7F 7F       | 	byte	$7f[6]
08411     7E 7E 7E 7E 
08415     7E 7E 7E 7E 
08419     7E          | 	byte	$7e[9]
0841a     7D 7D 7D 7D 
0841e     7D 7D 7D 7D 
08422     7D 7D 7D    | 	byte	$7d[11]
08425     7E 7E 7E 7E 
08429     7E 7E 7E 7E | 	byte	$7e[8]
0842d     7F 7F 7F 7F 
08431     7F          | 	byte	$7f[5]
08432     80 80 80 80 
08436     80          | 	byte	$80[5]
08437     81 81 81 81 
0843b     82 82 82 82 
0843f     82 82 82 83 
08443     83 83 83 83 | 	byte	$81, $81, $81, $81, $82, $82, $82, $82, $82, $82, $82, $83, $83, $83, $83, $83
08447     83 83 83 83 
0844b     83 83 83 83 | 	byte	$83[8]
0844f     82 82 82 82 
08453     82 82 82    | 	byte	$82[7]
08456     81 81 81 81 
0845a     81          | 	byte	$81[5]
0845b     80 80 80 80 
0845f     80          | 	byte	$80[5]
08460     7F 7F 7F 7F 
08464     7F 7F       | 	byte	$7f[6]
08466     7E 7E 7E 7E 
0846a     7E 7E 7E 7E 
0846e     7E 7E       | 	byte	$7e[10]
08470     7D 7D 7D 7E 
08474     7D 7D 7D 7D 
08478     7E 7E 7E 7E 
0847c     7E 7E 7E 7E | 	byte	$7d, $7d, $7d, $7e, $7d, $7d, $7d, $7d, $7e, $7e, $7e, $7e, $7e, $7e, $7e, $7e
08480     7E 7E 7F 7F 
08484     7F 7F 7F 80 
08488     80 80 80 81 
0848c     81 81 81 81 | 	byte	$7e, $7e, $7f, $7f, $7f, $7f, $7f, $80, $80, $80, $80, $81, $81, $81, $81, $81
08490     82 82 82 82 
08494     82 82       | 	byte	$82[6]
08496     83 83 83 83 
0849a     83 83 83 83 
0849e     83 83 83 83 | 	byte	$83[12]
084a2     82 82 82 82 
084a6     82 82 82 82 | 	byte	$82[8]
084aa     81 81 81 81 
084ae     81          | 	byte	$81[5]
084af     80 80 80 80 
084b3     80 80       | 	byte	$80[6]
084b5     7F 7F 7F 7F 
084b9     7F 7F       | 	byte	$7f[6]
084bb     7E 7E 7E 7E 
084bf     7E 7E 7E 7E 
084c3     7E          | 	byte	$7e[9]
084c4     7D 7D 7D 7D 
084c8     7D 7D 7D 7D 
084cc     7D          | 	byte	$7d[9]
084cd     7E 7E 7E 7E 
084d1     7E 7E 7E 7E 
084d5     7E          | 	byte	$7e[9]
084d6     7F 7F 7F 7F 
084da     7F          | 	byte	$7f[5]
084db     80 80 80 80 
084df     80          | 	byte	$80[5]
084e0     81 81 81 81 
084e4     82 82 82 82 
084e8     82 82 83 83 
084ec     83 83 83 83 | 	byte	$81, $81, $81, $81, $82, $82, $82, $82, $82, $82, $83, $83, $83, $83, $83, $83
084f0     83 83 83 83 
084f4     83 83 83    | 	byte	$83[7]
084f7     82 82 82 82 
084fb     82 82 82 82 | 	byte	$82[8]
084ff     81 81 81 81 
08503     81          | 	byte	$81[5]
08504     80 80 80 80 
08508     80          | 	byte	$80[5]
08509     7F 7F 7F 7F 
0850d     7F 7F 7F    | 	byte	$7f[7]
08510     7E 7E 7E 7E 
08514     7E 7E 7E 7E 
08518     7E          | 	byte	$7e[9]
08519     7D 7D 7D 7E 
0851d     7D 7D 7D 7D 
08521     7E 7E 7E 7E 
08525     7E 7E 7E 7E | 	byte	$7d, $7d, $7d, $7e, $7d, $7d, $7d, $7d, $7e, $7e, $7e, $7e, $7e, $7e, $7e, $7e
08529     7E 7E 7F 7F 
0852d     7F 7F 80 80 
08531     80 80 80 81 
08535     81 81 81 81 | 	byte	$7e, $7e, $7f, $7f, $7f, $7f, $80, $80, $80, $80, $80, $81, $81, $81, $81, $81
08539     82 82 82 82 
0853d     82 82 82 82 | 	byte	$82[8]
08541     83 83 83 83 
08545     83 83 83 83 
08549     83 83       | 	byte	$83[10]
0854b     82 82 82 82 
0854f     82 82 82 82 | 	byte	$82[8]
08553     81 81 81 81 
08557     81 81       | 	byte	$81[6]
08559     80 80 80 80 
0855d     80          | 	byte	$80[5]
0855e     7F 7F 7F 7F 
08562     7F 7F       | 	byte	$7f[6]
08564     7E 7E 7E 7E 
08568     7E 7E 7E 7E 
0856c     7E          | 	byte	$7e[9]
0856d     7D 7D 7D 7E 
08571     7E 7D 7D 7D 
08575     7D 7E 7E 7E 
08579     7E 7E 7E 7E | 	byte	$7d, $7d, $7d, $7e, $7e, $7d, $7d, $7d, $7d, $7e, $7e, $7e, $7e, $7e, $7e, $7e
0857d     7E 7F 7F 7F 
08581     7F 7F 7F 80 
08585     80 80 80 80 
08589     81 81 81 81 | 	byte	$7e, $7f, $7f, $7f, $7f, $7f, $7f, $80, $80, $80, $80, $80, $81, $81, $81, $81
0858d     81 82 82 82 
08591     82 82 82 82 
08595     83 83 83 83 
08599     83 83 83 83 | 	byte	$81, $82, $82, $82, $82, $82, $82, $82, $83, $83, $83, $83, $83, $83, $83, $83
0859d     83 83 82 83 
085a1     82 82 82 82 
085a5     82 82 82 81 
085a9     81 81 81 81 | 	byte	$83, $83, $82, $83, $82, $82, $82, $82, $82, $82, $82, $81, $81, $81, $81, $81
085ad     80 80 80 80 
085b1     80          | 	byte	$80[5]
085b2     7F 7F 7F 7F 
085b6     7F 7F       | 	byte	$7f[6]
085b8     7E 7E 7E 7E 
085bc     7E 7E 7E 7E 
085c0     7E          | 	byte	$7e[9]
085c1     7D 7E 7D 7D 
085c5     7E 7D 7D 7D 
085c9     7D 7E 7E 7E 
085cd     7E 7E 7E 7E | 	byte	$7d, $7e, $7d, $7d, $7e, $7d, $7d, $7d, $7d, $7e, $7e, $7e, $7e, $7e, $7e, $7e
085d1     7E 7E 7F 7F 
085d5     7F 7F 7F 80 
085d9     80 80 80 80 
085dd     81 81 81 81 | 	byte	$7e, $7e, $7f, $7f, $7f, $7f, $7f, $80, $80, $80, $80, $80, $81, $81, $81, $81
085e1     81 82 82 82 
085e5     82 82 82 82 
085e9     83 83 83 83 
085ed     83 83 83 83 | 	byte	$81, $82, $82, $82, $82, $82, $82, $82, $83, $83, $83, $83, $83, $83, $83, $83
085f1     83 83 83 82 
085f5     82 82 82 82 
085f9     82 82 82 81 
085fd     81 81 81 81 | 	byte	$83, $83, $83, $82, $82, $82, $82, $82, $82, $82, $82, $81, $81, $81, $81, $81
08601     81 80 80 80 
08605     80 80 7F 7F 
08609     7F 7F 7F 7F 
0860d     7E 7E 7E 7E | 	byte	$81, $80, $80, $80, $80, $80, $7f, $7f, $7f, $7f, $7f, $7f, $7e, $7e, $7e, $7e
08611     7E 7E 7E 7E 
08615     7E 7E 7E    | 	byte	$7e[7]
08618     7D 7E 7E 7E 
0861c     7E 7E 7E 7E 
08620     7E 7E 7E 7E 
08624     7E 7E 7E 7F | 	byte	$7d, $7e, $7e, $7e, $7e, $7e, $7e, $7e, $7e, $7e, $7e, $7e, $7e, $7e, $7e, $7f
08628     7F 7F 7F 7F 
0862c     7F          | 	byte	$7f[5]
0862d     80 80 80 80 
08631     81 81 81 81 
08635     81 82 82 82 
08639     82 82 82 82 | 	byte	$80, $80, $80, $80, $81, $81, $81, $81, $81, $82, $82, $82, $82, $82, $82, $82
0863d     83 83 83 83 
08641     83 83 83 83 
08645     83 83 83 83 | 	byte	$83[12]
08649     82 82 82 82 
0864d     82 82 82    | 	byte	$82[7]
08650     81 81 81 81 
08654     81 81       | 	byte	$81[6]
08656     80 80 80 80 
0865a     80 80       | 	byte	$80[6]
0865c     7F 7F 7F 7F 
08660     7F          | 	byte	$7f[5]
08661     7E 7E 7E 7E 
08665     7E 7E 7E 7E 
08669     7E 7E 7E    | 	byte	$7e[11]
0866c     7D 7E 7E 7E 
08670     7D 7E 7D 7E 
08674     7E 7E 7E 7E 
08678     7E 7E 7E 7E | 	byte	$7d, $7e, $7e, $7e, $7d, $7e, $7d, $7e, $7e, $7e, $7e, $7e, $7e, $7e, $7e, $7e
0867c     7F 7F 7F 7F 
08680     7F 7F       | 	byte	$7f[6]
08682     80 80 80 80 
08686     81 81 81 81 
0868a     81 82 82 82 
0868e     82 82 82 82 | 	byte	$80, $80, $80, $80, $81, $81, $81, $81, $81, $82, $82, $82, $82, $82, $82, $82
08692     82 83 83 83 
08696     83 83 83 83 
0869a     83 83 82 82 
0869e     82 82 82 82 | 	byte	$82, $83, $83, $83, $83, $83, $83, $83, $83, $83, $82, $82, $82, $82, $82, $82
086a2     82 82 81 81 
086a6     81 81 81 81 
086aa     80 80 80 80 
086ae     80 80 7F 7F | 	byte	$82, $82, $81, $81, $81, $81, $81, $81, $80, $80, $80, $80, $80, $80, $7f, $7f
086b2     7F 7F 7F 7F 
086b6     7E 7E 7E 7E 
086ba     7E 7E 7E 7E 
086be     7E 7E 7E 7E | 	byte	$7f, $7f, $7f, $7f, $7e, $7e, $7e, $7e, $7e, $7e, $7e, $7e, $7e, $7e, $7e, $7e
086c2     7E 7E 7D 7E 
086c6     7E 7E 7E 7E 
086ca     7E 7E 7E 7E 
086ce     7E 7E 7F 7F | 	byte	$7e, $7e, $7d, $7e, $7e, $7e, $7e, $7e, $7e, $7e, $7e, $7e, $7e, $7e, $7f, $7f
086d2     7F 7F 7F 7F 
086d6     80 80 80 80 
086da     81 81 81 81 
086de     81 82 82 82 | 	byte	$7f, $7f, $7f, $7f, $80, $80, $80, $80, $81, $81, $81, $81, $81, $82, $82, $82
086e2     82 82 82 82 
086e6     82          | 	byte	$82[5]
086e7     83 83 83 83 
086eb     83 83       | 	byte	$83[6]
086ed     82 83 83 83 
086f1     82 82 82 82 
086f5     82 82 82 82 
086f9     81 81 81 81 | 	byte	$82, $83, $83, $83, $82, $82, $82, $82, $82, $82, $82, $82, $81, $81, $81, $81
086fd     81 80 81 80 
08701     80 80 80 80 
08705     7F 7F 7F 7F 
08709     7F 7F 7E 7E | 	byte	$81, $80, $81, $80, $80, $80, $80, $80, $7f, $7f, $7f, $7f, $7f, $7f, $7e, $7e
0870d     7E 7E 7E 7E 
08711     7E 7E 7E 7E 
08715     7E 7E 7E 7E 
08719     7E 7E 7E 7E 
0871d     7E 7E 7E 7E 
08721     7E 7E 7E 7E | 	byte	$7e[24]
08725     7F 7F 7F 7F 
08729     7F 7F       | 	byte	$7f[6]
0872b     80 80 80 80 
0872f     81 81 81 81 
08733     81 82 82 82 
08737     82 82 82 82 | 	byte	$80, $80, $80, $80, $81, $81, $81, $81, $81, $82, $82, $82, $82, $82, $82, $82
0873b     82 82 83 83 
0873f     83 83 83 83 
08743     83 82 82 82 
08747     82 82 82 82 | 	byte	$82, $82, $83, $83, $83, $83, $83, $83, $83, $82, $82, $82, $82, $82, $82, $82
0874b     82 82 81 81 
0874f     81 81 81 81 
08753     80 80 80 80 
08757     80 80 7F 7F | 	byte	$82, $82, $81, $81, $81, $81, $81, $81, $80, $80, $80, $80, $80, $80, $7f, $7f
0875b     7F 7F 7F 7F 
0875f     7F          | 	byte	$7f[5]
08760     7E 7E 7E 7E 
08764     7E 7E 7E 7E 
08768     7E 7E 7E 7E 
0876c     7E 7E 7E 7E 
08770     7E 7E 7E 7E 
08774     7E 7E 7E 7E 
08778     7E          | 	byte	$7e[25]
08779     7F 7F 7F 7F 
0877d     7F 7F       | 	byte	$7f[6]
0877f     80 80 80 80 
08783     80          | 	byte	$80[5]
08784     81 81 81 81 
08788     81          | 	byte	$81[5]
08789     82 82 82 82 
0878d     82 82 82 82 
08791     82          | 	byte	$82[9]
08792     83 83 83 82 
08796     83 83 82 82 
0879a     82 82 82 82 
0879e     82 82 82 81 | 	byte	$83, $83, $83, $82, $83, $83, $82, $82, $82, $82, $82, $82, $82, $82, $82, $81
087a2     81 81 81 81 
087a6     81 81       | 	byte	$81[6]
087a8     80 80 80 80 
087ac     80          | 	byte	$80[5]
087ad     7F 7F 7F 7F 
087b1     7F 7F       | 	byte	$7f[6]
087b3     7E 7F 7E 7E 
087b7     7E 7E 7E 7E 
087bb     7E 7E 7E 7E 
087bf     7E 7E 7E 7E | 	byte	$7e, $7f, $7e, $7e, $7e, $7e, $7e, $7e, $7e, $7e, $7e, $7e, $7e, $7e, $7e, $7e
087c3     7E 7E 7E 7E 
087c7     7E 7E 7E 7E 
087cb     7E 7E 7E    | 	byte	$7e[11]
087ce     7F 7F 7F 7F 
087d2     7F          | 	byte	$7f[5]
087d3     80 80 80 80 
087d7     80          | 	byte	$80[5]
087d8     81 81 81 81 
087dc     81          | 	byte	$81[5]
087dd     82 82 82 82 
087e1     82 82 82 82 
087e5     82          | 	byte	$82[9]
087e6     83 83 83 83 
087ea     82 83 83 83 
087ee     82 82 82 82 
087f2     82 82 82 82 | 	byte	$83, $83, $83, $83, $82, $83, $83, $83, $82, $82, $82, $82, $82, $82, $82, $82
087f6     81 81 81 81 
087fa     81 81 81    | 	byte	$81[7]
087fd     80 80 80 80 
08801     80          | 	byte	$80[5]
08802     7F 7F 7F 7F 
08806     7F 7F 7F    | 	byte	$7f[7]
08809     7E 7E 7E 7E 
0880d     7E 7E 7E 7E 
08811     7E 7E 7E 7E 
08815     7E 7E 7E 7E 
08819     7E 7E 7E 7E 
0881d     7E 7E 7E 7E 
08821     7E          | 	byte	$7e[25]
08822     7F 7F 7F 7F 
08826     7F 7F       | 	byte	$7f[6]
08828     80 80 80 80 
0882c     80          | 	byte	$80[5]
0882d     81 81 81 81 
08831     81 81       | 	byte	$81[6]
08833     82 82 82 82 
08837     82 82 82 82 | 	byte	$82[8]
0883b     83 83 82 82 
0883f     82 83 82 82 
08843     82 82 82 82 
08847     82 82 82 81 | 	byte	$83, $83, $82, $82, $82, $83, $82, $82, $82, $82, $82, $82, $82, $82, $82, $81
0884b     81 81 81 81 
0884f     81 81       | 	byte	$81[6]
08851     80 80 80 80 
08855     80          | 	byte	$80[5]
08856     7F 7F 7F 7F 
0885a     7F 7F 7F    | 	byte	$7f[7]
0885d     7E 7E 7E 7E 
08861     7E 7E 7E 7E 
08865     7E 7E 7E 7E 
08869     7E 7E 7E 7E 
0886d     7E 7E 7E 7E 
08871     7E 7E 7E 7E 
08875     7E 7E       | 	byte	$7e[26]
08877     7F 7F 7F 7F 
0887b     7F          | 	byte	$7f[5]
0887c     80 80 80 80 
08880     80          | 	byte	$80[5]
08881     81 81 81 81 
08885     81 81       | 	byte	$81[6]
08887     82 82 82 82 
0888b     82 82 82 82 | 	byte	$82[8]
0888f     83 82 83 82 
08893     83 82 82 82 
08897     82 82 82 82 
0889b     82 82 82 82 | 	byte	$83, $82, $83, $82, $83, $82, $82, $82, $82, $82, $82, $82, $82, $82, $82, $82
0889f     81 81 81 81 
088a3     81 81       | 	byte	$81[6]
088a5     80 80 80 80 
088a9     80 80 80    | 	byte	$80[7]
088ac     7F 7F 7F 7F 
088b0     7F 7F       | 	byte	$7f[6]
088b2     7E 7E 7E 7E 
088b6     7E 7E 7E 7E 
088ba     7E 7E 7E 7E 
088be     7E 7E 7E 7E 
088c2     7E 7E 7E 7E 
088c6     7E 7E 7E 7E 
088ca     7E          | 	byte	$7e[25]
088cb     7F 7F 7F 7F 
088cf     7F 7F       | 	byte	$7f[6]
088d1     80 80 80 80 
088d5     81 81 81 81 
088d9     81 81 81 82 
088dd     82 82 82 82 | 	byte	$80, $80, $80, $80, $81, $81, $81, $81, $81, $81, $81, $82, $82, $82, $82, $82
088e1     82 82 82 83 
088e5     82 83 82 82 
088e9     82 82 82 82 
088ed     82 82 82 82 | 	byte	$82, $82, $82, $83, $82, $83, $82, $82, $82, $82, $82, $82, $82, $82, $82, $82
088f1     82 82 82 81 
088f5     81 81 81 81 
088f9     81 80 80 80 
088fd     80 80 7F 7F | 	byte	$82, $82, $82, $81, $81, $81, $81, $81, $81, $80, $80, $80, $80, $80, $7f, $7f
08901     7F 7F 7F 7F 
08905     7F 7F       | 	byte	$7f[6]
08907     7E 7E 7E 7E 
0890b     7E 7E 7E 7E 
0890f     7E 7E 7E 7E 
08913     7E 7E 7E 7E 
08917     7E 7E 7E 7E 
0891b     7E 7E 7E 7E | 	byte	$7e[24]
0891f     7F 7F 7F 7F 
08923     7F 7F       | 	byte	$7f[6]
08925     80 80 80 80 
08929     80          | 	byte	$80[5]
0892a     81 81 81 81 
0892e     81 81       | 	byte	$81[6]
08930     82 82 82 82 
08934     82 82 82 82 
08938     82          | 	byte	$82[9]
08939     83 83 82 82 
0893d     82 82 82 82 
08941     82 82 82 82 
08945     82 82 82 81 | 	byte	$83, $83, $82, $82, $82, $82, $82, $82, $82, $82, $82, $82, $82, $82, $82, $81
08949     81 81 81 81 
0894d     81          | 	byte	$81[5]
0894e     80 80 80 80 
08952     80 80       | 	byte	$80[6]
08954     7F 7F 7F 7F 
08958     7F 7F 7F    | 	byte	$7f[7]
0895b     7E 7E 7E 7E 
0895f     7E 7E 7E 7E 
08963     7E 7E 7E 7E 
08967     7E 7E 7E 7E 
0896b     7E 7E 7E 7E 
0896f     7E 7E 7E 7E 
08973     7E          | 	byte	$7e[25]
08974     7F 7F 7F 7F 
08978     7F 7F       | 	byte	$7f[6]
0897a     80 80 80 80 
0897e     80          | 	byte	$80[5]
0897f     81 81 81 81 
08983     81          | 	byte	$81[5]
08984     82 82 82 82 
08988     82 82 82 82 
0898c     82 82 82 82 
08990     82 82 82 82 
08994     82 82 82 82 
08998     82 82 82 82 | 	byte	$82[24]
0899c     81 81 81 81 
089a0     81 81 81    | 	byte	$81[7]
089a3     80 80 80 80 
089a7     80 80       | 	byte	$80[6]
089a9     7F 7F 7F 7F 
089ad     7F 7F 7F    | 	byte	$7f[7]
089b0     7E 7E 7E 7E 
089b4     7E 7E 7E 7E 
089b8     7E 7E 7E 7E 
089bc     7E 7E 7E 7E 
089c0     7E 7E 7E 7E 
089c4     7E 7E 7E 7E | 	byte	$7e[24]
089c8     7F 7F 7F 7F 
089cc     7F 7F       | 	byte	$7f[6]
089ce     80 80 80 80 
089d2     80          | 	byte	$80[5]
089d3     81 81 81 81 
089d7     81          | 	byte	$81[5]
089d8     82 82 82 82 
089dc     82 82 82 82 
089e0     82 82 82 82 | 	byte	$82[12]
089e4     83 82 82 82 
089e8     82 82 82 82 
089ec     82 82 82 82 
089f0     82 81 81 81 | 	byte	$83, $82, $82, $82, $82, $82, $82, $82, $82, $82, $82, $82, $82, $81, $81, $81
089f4     81 81 81 80 
089f8     80 80 80 80 
089fc     80 80 7F 7F 
08a00     7F 7F 7F 7F | 	byte	$81, $81, $81, $80, $80, $80, $80, $80, $80, $80, $7f, $7f, $7f, $7f, $7f, $7f
08a04     7E 7E 7E 7E 
08a08     7E 7E 7E 7E 
08a0c     7E 7E 7E 7E 
08a10     7E 7E 7E 7E 
08a14     7E 7E 7E 7E 
08a18     7E 7E 7E 7E | 	byte	$7e[24]
08a1c     7F 7F 7F 7F 
08a20     7F 7F 7F    | 	byte	$7f[7]
08a23     80 80 80 80 
08a27     81 81 81 81 
08a2b     81 81 82 82 
08a2f     82 82 82 82 | 	byte	$80, $80, $80, $80, $81, $81, $81, $81, $81, $81, $82, $82, $82, $82, $82, $82
08a33     82 82 82 82 
08a37     82 82 82 82 
08a3b     82 82 82 82 
08a3f     82 82 82 82 
08a43     82 82       | 	byte	$82[18]
08a45     81 81 81 81 
08a49     81 81 81    | 	byte	$81[7]
08a4c     80 80 80 80 
08a50     80 80       | 	byte	$80[6]
08a52     7F 7F 7F 7F 
08a56     7F 7F 7F    | 	byte	$7f[7]
08a59     7E 7E 7E 7E 
08a5d     7E 7E 7E 7E 
08a61     7E 7E 7E 7E 
08a65     7E 7E 7E 7E 
08a69     7E 7E 7E 7E 
08a6d     7E 7E 7E    | 	byte	$7e[23]
08a70     7F 7F 7F 7F 
08a74     7F 7F 7F    | 	byte	$7f[7]
08a77     80 80 80 80 
08a7b     80          | 	byte	$80[5]
08a7c     81 81 81 81 
08a80     81 81       | 	byte	$81[6]
08a82     82 82 82 82 
08a86     82 82 82 82 
08a8a     82 82 82 82 
08a8e     82 82 82 82 
08a92     82 82 82 82 
08a96     82 82 82 82 | 	byte	$82[24]
08a9a     81 81 81 81 
08a9e     81 81       | 	byte	$81[6]
08aa0     80 80 80 80 
08aa4     80 80       | 	byte	$80[6]
08aa6     7F 7F 7F 7F 
08aaa     7F 7F 7F    | 	byte	$7f[7]
08aad     7E 7E 7E 7E 
08ab1     7E 7E 7E 7E 
08ab5     7E 7E 7E 7E 
08ab9     7E 7E 7E 7E 
08abd     7E 7E 7E 7E 
08ac1     7E 7E 7E 7E | 	byte	$7e[24]
08ac5     7F 7F 7F 7F 
08ac9     7F 7F 7F    | 	byte	$7f[7]
08acc     80 80 80 80 
08ad0     80          | 	byte	$80[5]
08ad1     81 81 81 81 
08ad5     81 81       | 	byte	$81[6]
08ad7     82 82 82 82 
08adb     82 82 82 82 
08adf     82 82 82 82 
08ae3     82 82 82 82 
08ae7     82 82 82 82 
08aeb     82 82 82    | 	byte	$82[23]
08aee     81 81 81 81 
08af2     81 81       | 	byte	$81[6]
08af4     80 80 80 80 
08af8     80 80 80    | 	byte	$80[7]
08afb     7F 7F 7F 7F 
08aff     7F 7F 7F 7F | 	byte	$7f[8]
08b03     7E 7E 7E 7E 
08b07     7E 7E 7E 7E 
08b0b     7E 7E 7E 7E 
08b0f     7E 7E 7E 7E 
08b13     7E 7E 7E 7E 
08b17     7E 7E       | 	byte	$7e[22]
08b19     7F 7F 7F 7F 
08b1d     7F 7F 7F    | 	byte	$7f[7]
08b20     80 80 80 80 
08b24     80          | 	byte	$80[5]
08b25     81 81 81 81 
08b29     81 81       | 	byte	$81[6]
08b2b     82 82 82 82 
08b2f     82 82 82 82 
08b33     82 82 82 82 
08b37     82 82 82 82 
08b3b     82 82 82 82 
08b3f     82 82 82    | 	byte	$82[23]
08b42     81 81 81 81 
08b46     81 81 81    | 	byte	$81[7]
08b49     80 80 80 80 
08b4d     80 80       | 	byte	$80[6]
08b4f     7F 7F 7F 7F 
08b53     7F 7F 7F 7F | 	byte	$7f[8]
08b57     7E 7E 7E 7E 
08b5b     7E 7E 7E 7E 
08b5f     7E 7E 7E 7E 
08b63     7E 7E 7E 7E 
08b67     7E 7E 7E 7E 
08b6b     7E 7E 7E    | 	byte	$7e[23]
08b6e     7F 7F 7F 7F 
08b72     7F 7F       | 	byte	$7f[6]
08b74     80 80 80 80 
08b78     80 80       | 	byte	$80[6]
08b7a     81 81 81 81 
08b7e     81 81       | 	byte	$81[6]
08b80     82 82 82 82 
08b84     82 82 82 82 
08b88     82 82 82 00 | 	byte	$82, $82, $82, $82, $82, $82, $82, $82, $82, $82, $82, $00
08b8c                 | 	alignl
08b8c                 | __system__dat_
08b8c     00 00 00 00 
08b90     00 00 00 00 | 	byte	$00[8]
08b94     03 00 00 00 
08b98     00 00 00 00 
08b9c     00 00 00 00 
08ba0     00 00 00 00 | 	byte	$03, $00, $00, $00, $00, $00, $00, $00, $00, $00, $00, $00, $00, $00, $00, $00
08ba4                 | objmem
08ba4     00 00 00 00 
      ...             
08cbc     00 00 00 00 
08cc0     00 00 00 00 | 	long	0[72]
08cc4                 | stackspace
08cc4     00 00 00 00 | 	long	0[1]
08cc8 074             | 	org	COG_BSS_START
08cc8 074             | _var01
08cc8 074             | 	res	1
08cc8 075             | _var02
08cc8 075             | 	res	1
08cc8 076             | _var03
08cc8 076             | 	res	1
08cc8 077             | arg01
08cc8 077             | 	res	1
08cc8 078             | arg02
08cc8 078             | 	res	1
08cc8 079             | arg03
08cc8 079             | 	res	1
08cc8 07a             | arg04
08cc8 07a             | 	res	1
08cc8 07b             | local01
08cc8 07b             | 	res	1
08cc8 07c             | local02
08cc8 07c             | 	res	1
08cc8 07d             | local03
08cc8 07d             | 	res	1
08cc8 07e             | local04
08cc8 07e             | 	res	1
08cc8 07f             | local05
08cc8 07f             | 	res	1
08cc8 080             | local06
08cc8 080             | 	res	1
08cc8 081             | local07
08cc8 081             | 	res	1
08cc8 082             | muldiva_
08cc8 082             | 	res	1
08cc8 083             | muldivb_
08cc8 083             | 	res	1
08cc8 084             | 	fit	480
08cc8 084             | 
